(dp0
S'class_sl'
p1
(dp2
S'HSD-NR'
p3
(I8
I15
tp4
sS'HSD-NC'
p5
(I0
I8
tp6
ssS'class_hierarchy'
p7
(dp8
g3
(lp9
S'HSD-NR_subcl'
p10
asg5
(lp11
S'HSD-NC_subcl'
p12
assS'feats'
p13
(dp14
S'Bacteria.Chloroflexi'
p15
(lp16
F0.0
aF0.0
aF0.0
aF0.0
aF0.0
aF0.0
aF0.0
aF0.0
aF0.0
aF0.0
aF0.0
aF0.0
aF228.66289372892012
aF0.0
aF0.0
asS'Bacteria.Campylobacterota'
p17
(lp18
F0.0
aF0.0
aF0.0
aF0.0
aF0.0
aF0.0
aF0.0
aF0.0
aF0.0
aF0.0
aF0.0
aF1153.0360255665312
aF0.0
aF0.0
aF0.0
asS'Bacteria.Desulfobacterota'
p19
(lp20
F0.0
aF0.0
aF0.0
aF0.0
aF0.0
aF0.0
aF934.6764980787206
aF2292.8994082840236
aF0.0
aF0.0
aF0.0
aF6019.392794886694
aF7231.4640141771
aF0.0
aF0.0
asS'Bacteria.Actinobacteriota'
p21
(lp22
F13679.134200907165
aF7084.859098869607
aF6350.210970464134
aF6110.024884464984
aF9698.04427251236
aF8708.525277205124
aF13812.44158271887
aF12647.92899408284
aF11767.084512737569
aF9678.604974067874
aF1682.1946169772261
aF11221.673445671122
aF10861.487452123705
aF51969.88032808928
aF18841.591067690162
asS'Bacteria.Gemmatimonadota'
p23
(lp24
F0.0
aF0.0
aF0.0
aF0.0
aF0.0
aF0.0
aF0.0
aF0.0
aF0.0
aF0.0
aF1423.3954451345758
aF0.0
aF0.0
aF0.0
aF0.0
asS'Bacteria'
p25
(lp26
F500000.0
aF500000.0
aF500000.0
aF500000.0
aF500000.0
aF500000.0
aF500000.0
aF500000.0
aF500000.0
aF500000.0
aF500000.0
aF500000.0
aF500000.0
aF500000.0
aF500000.0
asS'Bacteria.Cyanobacteria'
p27
(lp28
F143.34422066818885
aF0.0
aF0.0
aF25.392311208166166
aF0.0
aF0.0
aF259.6323605774224
aF0.0
aF0.0
aF0.0
aF0.0
aF662.7687391051713
aF228.66289372892012
aF0.0
aF0.0
asS'Bacteria.Firmicutes'
p29
(lp30
F239349.01246070833
aF465151.89422369807
aF450654.00843881856
aF318565.5883398507
aF472365.49896124366
aF474926.4038414224
aF470713.46972686675
aF307248.52071005915
aF426930.85321471904
aF454128.7213623556
aF184782.6086956522
aF428157.68448576407
aF194735.0368718916
aF347272.64578010846
aF333217.0272156316
asS'Bacteria.Bacteroidota'
p31
(lp32
F195890.11641598493
aF17312.226594188065
aF22790.084388185653
aF128450.18028540959
aF8417.508417508418
aF6468.826618479209
aF986.602970194205
aF105288.46153846155
aF16457.74363121715
aF11046.677829052149
aF284808.48861283646
aF44696.03428239396
aF255788.0294975133
aF57819.01304289364
aF45184.92672714586
asS'Bacteria.Proteobacteria'
p33
(lp34
F3348.1114398926966
aF5890.781722655628
aF7035.864978902953
aF1859.9867959981718
aF6044.4874274661515
aF4899.3408159629425
aF11423.823865406584
aF64534.023668639056
aF17994.338859684594
aF12669.988156981257
aF15916.149068322984
aF6346.2376525275995
aF15892.07111415995
aF14746.089372955044
aF31751.57013258898
asS'Bacteria.Acidobacteriota'
p35
(lp36
F0.0
aF0.0
aF0.0
aF0.0
aF0.0
aF0.0
aF0.0
aF0.0
aF0.0
aF0.0
aF0.0
aF0.0
aF342.99434059338023
aF0.0
aF0.0
asS'Bacteria.Deferribacterota'
p37
(lp38
F0.0
aF0.0
aF0.0
aF0.0
aF205.9603123432911
aF0.0
aF0.0
aF0.0
aF0.0
aF0.0
aF0.0
aF0.0
aF0.0
aF0.0
aF0.0
asS'Bacteria.Verrucomicrobiota'
p39
(lp40
F45690.97033798519
aF1747.5227632845847
aF5495.7805907173
aF43585.90218881723
aF2677.4840604627843
aF3079.5856557481347
aF0.0
aF443.7869822485207
aF10594.419733117673
aF12200.351206762773
aF5046.583850931678
aF535.6624055781523
aF457.32578745784025
aF27766.572542691945
aF71004.88485694349
asS'Bacteria.Patescibacteria'
p41
(lp42
F1899.3109238535021
aF2812.7155973040385
aF7674.050632911392
aF1402.9251942511805
aF591.016548463357
aF1917.3177911820344
aF1869.352996157441
aF7544.378698224852
aF16255.560048524061
aF275.6564707804141
aF6340.57971014493
aF1207.510168506682
aF14234.265134625279
aF425.7989332616198
aF0.0
assS'subclass_sl'
p43
(dp44
g12
(I0
I8
tp45
sg10
(I8
I15
tp46
ssS'norm'
p47
F1000000.0
sS'cls'
p48
(dp49
S'class'
p50
(S'HSD-NC'
p51
S'HSD-NC'
p52
S'HSD-NC'
p53
S'HSD-NC'
p54
S'HSD-NC'
p55
S'HSD-NC'
p56
S'HSD-NC'
p57
g5
S'HSD-NR'
p58
S'HSD-NR'
p59
S'HSD-NR'
p60
S'HSD-NR'
p61
S'HSD-NR'
p62
S'HSD-NR'
p63
g3
tp64
sS'subclass'
p65
(lp66
S'HSD-NC_subcl'
p67
aS'HSD-NC_subcl'
p68
aS'HSD-NC_subcl'
p69
aS'HSD-NC_subcl'
p70
aS'HSD-NC_subcl'
p71
aS'HSD-NC_subcl'
p72
aS'HSD-NC_subcl'
p73
ag12
aS'HSD-NR_subcl'
p74
aS'HSD-NR_subcl'
p75
aS'HSD-NR_subcl'
p76
aS'HSD-NR_subcl'
p77
aS'HSD-NR_subcl'
p78
aS'HSD-NR_subcl'
p79
ag10
asS'subject'
p80
(S'S210421121688'
p81
S'S210421121689'
p82
S'S210421121690'
p83
S'S210421121698'
p84
S'S210421121699'
p85
S'S210421121700'
p86
S'S210421121701'
p87
S'S210421121702'
p88
S'S210421121691'
p89
S'S210421121692'
p90
S'S210421121693'
p91
S'S210421121707'
p92
S'S210421121708'
p93
S'S210421121709'
p94
S'S210421121710'
p95
tp96
ss.