(dp0
S'class_sl'
p1
(dp2
S'HSD-NR'
p3
(I8
I15
tp4
sS'HSD-NC'
p5
(I0
I8
tp6
ssS'class_hierarchy'
p7
(dp8
g3
(lp9
S'HSD-NR_subcl'
p10
asg5
(lp11
S'HSD-NC_subcl'
p12
assS'feats'
p13
(dp14
S'Bacteria.Firmicutes.Bacilli.Acholeplasmatales'
p15
(lp16
F0.0
aF0.0
aF0.0
aF0.0
aF0.0
aF0.0
aF0.0
aF295.85798816568047
aF0.0
aF61.25699350675868
aF0.0
aF254.21266705403832
aF0.0
aF0.0
aF0.0
asS'Bacteria.Firmicutes.Bacilli.Lactobacillales.Streptococcaceae'
p17
(lp18
F0.0
aF159.21031682853052
aF0.0
aF0.0
aF0.0
aF0.0
aF4050.264825007789
aF4215.976331360947
aF0.0
aF2225.670764078899
aF0.0
aF998.6926205694364
aF0.0
aF627.4931648065977
aF0.0
asS'Bacteria.Actinobacteriota.Actinobacteria.Bifidobacteriales'
p19
(lp20
F19156.931205012952
aF10477.55513604901
aF5991.5611814346
aF1491.7982834797624
aF5945.984669388924
aF6736.063390259008
aF7685.117873091703
aF10355.029585798817
aF4609.785685402346
aF163.35198268468983
aF0.0
aF0.0
aF13891.2707940319
aF49168.571556631265
aF5582.6936496859735
asS'Bacteria.Firmicutes.Clostridia.Oscillospirales.uncultured'
p21
(lp22
F0.0
aF0.0
aF0.0
aF0.0
aF0.0
aF0.0
aF0.0
aF0.0
aF0.0
aF0.0
aF0.0
aF326.84485764090647
aF0.0
aF0.0
aF0.0
asS'Bacteria.Acidobacteriota.Acidobacteriae.Bryobacterales'
p23
(lp24
F0.0
aF0.0
aF0.0
aF0.0
aF0.0
aF0.0
aF0.0
aF0.0
aF0.0
aF0.0
aF0.0
aF0.0
aF685.9886811867605
aF0.0
aF0.0
asS'Bacteria.Actinobacteriota.Actinobacteria.Streptomycetales'
p25
(lp26
F0.0
aF0.0
aF0.0
aF0.0
aF0.0
aF0.0
aF0.0
aF0.0
aF0.0
aF0.0
aF0.0
aF0.0
aF0.0
aF0.0
aF3489.1835310537335
asS'Bacteria.Firmicutes.Bacilli.RF39'
p27
(lp28
F3317.394821178085
aF1569.358837309801
aF1793.2489451476797
aF2336.0926311512876
aF5713.159968479115
aF7016.025722599747
aF4257.970713469726
aF26775.147928994083
aF12211.888394662355
aF2082.7377792297957
aF2846.790890269151
aF3450.029052876235
aF14062.76796432859
aF1120.5235085832103
aF0.0
asS'Bacteria.Firmicutes.Clostridia.Peptostreptococcales_Tissierellales.Anaerovoracaceae'
p29
(lp30
F1965.8635977351612
aF128.88454219452473
aF379.74683544303804
aF4050.073637702504
aF555.1973637080018
aF305.413453462625
aF0.0
aF0.0
aF1293.9749292357462
aF204.1899783558623
aF0.0
aF690.005810575247
aF0.0
aF0.0
aF0.0
asS'Bacteria.Proteobacteria.Gammaproteobacteria'
p31
(lp32
F6634.78964235617
aF11470.724255312698
aF13755.274261603377
aF3719.973591996343
aF12088.974854932298
aF9662.942319275831
aF21912.97123273445
aF122041.42011834319
aF35341.69025475132
aF23420.590517417404
aF31832.298136645968
aF12692.4753050552
aF30526.496312810843
aF29268.074044193458
aF63503.14026517795
asS'Bacteria.Firmicutes.Clostridia.Clostridia_vadinBB60_group.Clostridia_vadinBB60_group'
p33
(lp34
F307.16618714611894
aF0.0
aF158.22784810126583
aF387.2327459245341
aF340.28225517587214
aF398.7342309095382
aF0.0
aF0.0
aF566.114031540639
aF0.0
aF0.0
aF562.8994770482278
aF0.0
aF0.0
aF0.0
asS'Bacteria.Bacteroidota'
p35
(lp36
F391780.2328319699
aF34624.453188376145
aF45580.16877637131
aF256900.36057081918
aF16835.01683501683
aF12937.653236958422
aF1973.20594038841
aF210576.92307692306
aF32915.4872624343
aF22093.355658104298
aF569616.9772256728
aF89392.06856478791
aF511576.05899502663
aF115638.02608578729
aF90369.8534542917
asS'Bacteria.Proteobacteria.Gammaproteobacteria.Enterobacterales.Pasteurellaceae'
p37
(lp38
F0.0
aF0.0
aF0.0
aF285.6635010918694
aF0.0
aF0.0
aF0.0
aF665.6804733727811
aF1374.8483623129803
aF0.0
aF0.0
aF0.0
aF0.0
aF672.3141051499261
aF0.0
asS'Bacteria.Cyanobacteria.Cyanobacteriia.Chloroplast.Chloroplast'
p39
(lp40
F0.0
aF0.0
aF0.0
aF0.0
aF0.0
aF0.0
aF0.0
aF0.0
aF0.0
aF0.0
aF0.0
aF0.0
aF457.3257874578403
aF0.0
aF0.0
asS'Bacteria.Bacteroidota.Bacteroidia.Chitinophagales.Chitinophagaceae'
p41
(lp42
F0.0
aF0.0
aF0.0
aF0.0
aF0.0
aF0.0
aF0.0
aF0.0
aF0.0
aF0.0
aF0.0
aF0.0
aF857.4858514834507
aF0.0
aF0.0
asS'Bacteria.Bacteroidota.Bacteroidia.Bacteroidales.Rikenellaceae'
p43
(lp44
F3286.678202463473
aF98.5587675605189
aF0.0
aF3923.1120816616726
aF608.9261408410343
aF322.380867543882
aF0.0
aF0.0
aF0.0
aF204.1899783558623
aF0.0
aF1143.9570017431727
aF0.0
aF4302.8102729595275
aF0.0
asS'Bacteria.Acidobacteriota'
p45
(lp46
F0.0
aF0.0
aF0.0
aF0.0
aF0.0
aF0.0
aF0.0
aF0.0
aF0.0
aF0.0
aF0.0
aF0.0
aF685.9886811867605
aF0.0
aF0.0
asS'Bacteria.Actinobacteriota.Actinobacteria.Pseudonocardiales.Pseudonocardiaceae'
p47
(lp48
F0.0
aF0.0
aF0.0
aF0.0
aF0.0
aF101.80448448754169
aF0.0
aF0.0
aF0.0
aF0.0
aF0.0
aF0.0
aF0.0
aF32136.614226166475
aF5233.7752965806
asS'Bacteria.Firmicutes.Bacilli.Lactobacillales.Aerococcaceae'
p49
(lp50
F0.0
aF0.0
aF0.0
aF0.0
aF0.0
aF0.0
aF1246.2353307716273
aF813.6094674556213
aF0.0
aF0.0
aF0.0
aF272.37071470075534
aF0.0
aF0.0
aF0.0
asS'Bacteria.Firmicutes.Clostridia.Clostridiales'
p51
(lp52
F60429.82788454647
aF433787.46180847764
aF235221.5189873418
aF25614.49393123762
aF190952.07393079728
aF294181.02534083294
aF402326.3059507737
aF18639.05325443787
aF16983.42094621917
aF658737.2891738473
aF12681.159420289856
aF10350.087158628705
aF15091.750986108731
aF1613.553852359823
aF0.0
asS'Bacteria.Actinobacteriota.Actinobacteria.Micrococcales.Dermabacteraceae'
p53
(lp54
F0.0
aF0.0
aF0.0
aF0.0
aF0.0
aF0.0
aF0.0
aF0.0
aF0.0
aF0.0
aF0.0
aF217.8965717606043
aF0.0
aF0.0
aF0.0
asS'Bacteria.Firmicutes.Clostridia.Christensenellales.Christensenellaceae'
p55
(lp56
F4924.897867242774
aF576.1897180461106
aF2035.864978902954
aF4786.450662739323
aF788.0220646178092
aF525.9898365189654
aF41541.17769238757
aF29807.69230769231
aF3720.17792155277
aF3859.190590925797
aF0.0
aF13872.748402091807
aF21437.146287086263
aF1568.7329120164945
aF0.0
asS'Bacteria.Proteobacteria'
p57
(lp58
F6696.222879785393
aF11781.563445311258
aF14071.729957805908
aF3719.973591996343
aF12088.974854932298
aF9798.681631925887
aF22847.64773081317
aF129068.04733727808
aF35988.67771936919
aF25339.97631396251
aF31832.298136645968
aF12692.4753050552
aF31784.142228319903
aF29492.1787459101
aF63503.14026517795
asS'Bacteria.Bacteroidota.Bacteroidia'
p59
(lp60
F391780.2328319699
aF34624.453188376145
aF45580.16877637131
aF256900.36057081918
aF16835.01683501683
aF12937.653236958422
aF1973.20594038841
aF210576.92307692306
aF32915.4872624343
aF22093.355658104298
aF569616.9772256728
aF89392.06856478791
aF511576.05899502663
aF115638.02608578729
aF90369.8534542917
asS'Bacteria.Campylobacterota.Campylobacteria.Campylobacterales'
p61
(lp62
F0.0
aF0.0
aF0.0
aF0.0
aF0.0
aF0.0
aF0.0
aF0.0
aF0.0
aF0.0
aF0.0
aF2306.0720511330624
aF0.0
aF0.0
aF0.0
asS'Bacteria.Proteobacteria.Alphaproteobacteria.Rhizobiales.Rhizobiaceae'
p63
(lp64
F0.0
aF0.0
aF221.51898734177217
aF0.0
aF0.0
aF135.73931265005558
aF934.6764980787206
aF6065.08875739645
aF646.9874646178731
aF1286.3968636419324
aF0.0
aF0.0
aF0.0
aF224.10470171664207
aF0.0
asS'Bacteria.Proteobacteria.Alphaproteobacteria.Rhodobacterales'
p65
(lp66
F0.0
aF0.0
aF0.0
aF0.0
aF0.0
aF0.0
aF0.0
aF0.0
aF0.0
aF0.0
aF0.0
aF0.0
aF1257.645915509061
aF0.0
aF0.0
asS'Bacteria.Desulfobacterota'
p67
(lp68
F0.0
aF0.0
aF0.0
aF0.0
aF0.0
aF0.0
aF1869.352996157441
aF4585.798816568047
aF0.0
aF0.0
aF0.0
aF12038.785589773388
aF14462.928028354201
aF0.0
aF0.0
asS'Bacteria.Desulfobacterota.Desulfovibrionia'
p69
(lp70
F0.0
aF0.0
aF0.0
aF0.0
aF0.0
aF0.0
aF1869.352996157441
aF4585.798816568047
aF0.0
aF0.0
aF0.0
aF12038.785589773388
aF14462.928028354201
aF0.0
aF0.0
asS'Bacteria.Firmicutes.Clostridia.Monoglobales'
p71
(lp72
F8109.1873406575405
aF4018.1651390057705
aF9272.151898734177
aF0.0
aF197.0055161544523
aF67.86965632502779
aF2284.764773081317
aF0.0
aF79094.217549535
aF1960.2237922162778
aF26397.515527950312
aF11566.676350958744
aF14405.762304921971
aF30343.776612433336
aF7327.28541521284
asS'Bacteria.Cyanobacteria.Vampirivibrionia'
p73
(lp74
F286.6884413363777
aF0.0
aF0.0
aF50.78462241633233
aF0.0
aF0.0
aF519.2647211548448
aF0.0
aF0.0
aF0.0
aF0.0
aF1325.5374782103427
aF0.0
aF0.0
aF0.0
asS'Bacteria.Firmicutes.Clostridia.Oscillospirales.Butyricicoccaceae'
p75
(lp76
F624.5712471971086
aF621.6783799971191
aF706.7510548523207
aF406.27697933065866
aF1110.3947274160037
aF262.9949182594827
aF0.0
aF8505.917159763314
aF4205.4185200161755
aF285.8659696982072
aF0.0
aF9605.607205113307
aF514.4915108900703
aF7216.171395275875
aF3489.1835310537335
asS'Bacteria.Deferribacterota'
p77
(lp78
F0.0
aF0.0
aF0.0
aF0.0
aF411.920624686582
aF0.0
aF0.0
aF0.0
aF0.0
aF0.0
aF0.0
aF0.0
aF0.0
aF0.0
aF0.0
asS'Bacteria.Actinobacteriota.Coriobacteriia.Coriobacteriales'
p79
(lp80
F8201.337196801376
aF3350.998097057642
aF6708.860759493672
aF10728.251485450206
aF13450.103875635787
aF10579.182679663705
aF14020.147471180808
aF14940.828402366862
aF18924.38334007279
aF19193.857965451054
aF3364.3892339544514
aF21807.815223707144
aF7831.704110215514
aF22634.574873380847
aF23377.52965806002
asS'Bacteria.Firmicutes.Bacilli.Erysipelotrichales'
p81
(lp82
F45194.38500209897
aF89286.66196617162
aF73470.4641350211
aF14886.242445787415
aF93380.61465721038
aF110296.67523521077
aF132412.5038944854
aF72411.24260355029
aF38980.99474322685
aF89373.95352636093
aF5434.782608695652
aF18085.415456130155
aF49905.676556336824
aF29626.64156694008
aF71179.34403349615
asS'Bacteria.Actinobacteriota.Actinobacteria.Micrococcales'
p83
(lp84
F0.0
aF341.1649646325654
aF0.0
aF0.0
aF0.0
aF0.0
aF0.0
aF0.0
aF0.0
aF0.0
aF0.0
aF635.5316676350959
aF0.0
aF0.0
aF0.0
asS'Bacteria.Firmicutes.Clostridia.Clostridia_UCG_014.Clostridia_UCG_014'
p85
(lp86
F238002.60067371785
aF57126.17796680845
aF100316.45569620254
aF92523.23396475546
aF220789.45483200796
aF52386.89097588082
aF69996.88441167306
aF278476.33136094676
aF267852.8103517995
aF36488.74913219259
aF62111.801242236026
aF336214.4102266124
aF129366.03212713658
aF97530.36618708263
aF74319.60921144452
asS'Bacteria.Desulfobacterota.Desulfovibrionia.Desulfovibrionales'
p87
(lp88
F0.0
aF0.0
aF0.0
aF0.0
aF0.0
aF0.0
aF1869.352996157441
aF4585.798816568047
aF0.0
aF0.0
aF0.0
aF12038.785589773388
aF14462.928028354201
aF0.0
aF0.0
asS'Bacteria.Firmicutes.Bacilli.RF39.RF39'
p89
(lp90
F3317.394821178085
aF1569.358837309801
aF1793.2489451476797
aF2336.0926311512876
aF5713.159968479115
aF7016.025722599747
aF4257.970713469726
aF26775.147928994083
aF12211.888394662355
aF2082.7377792297957
aF2846.790890269151
aF3450.029052876235
aF14062.76796432859
aF1120.5235085832103
aF0.0
asS'Bacteria.Firmicutes.Clostridia.Clostridia_vadinBB60_group'
p91
(lp92
F307.16618714611894
aF0.0
aF158.22784810126583
aF387.2327459245341
aF340.28225517587214
aF398.7342309095382
aF0.0
aF0.0
aF566.114031540639
aF0.0
aF0.0
aF562.8994770482278
aF0.0
aF0.0
aF0.0
asS'Bacteria.Bacteroidota.Bacteroidia.Chitinophagales'
p93
(lp94
F0.0
aF0.0
aF0.0
aF0.0
aF0.0
aF0.0
aF0.0
aF0.0
aF0.0
aF0.0
aF0.0
aF0.0
aF857.4858514834507
aF0.0
aF0.0
asS'Bacteria.Bacteroidota.Bacteroidia.Bacteroidales.Tannerellaceae'
p95
(lp96
F645.0489930068497
aF280.5134153645538
aF0.0
aF7090.802904880403
aF0.0
aF152.7067267313125
aF0.0
aF1109.4674556213017
aF0.0
aF0.0
aF0.0
aF217.8965717606043
aF0.0
aF5423.333781542738
aF0.0
asS'Bacteria.Proteobacteria.Gammaproteobacteria.Burkholderiales.Sutterellaceae'
p97
(lp98
F1064.8427821065457
aF0.0
aF0.0
aF107.91732263470621
aF0.0
aF0.0
aF0.0
aF2810.6508875739646
aF0.0
aF0.0
aF0.0
aF472.10923881464265
aF0.0
aF8022.948321455786
aF0.0
asS'Bacteria.Bacteroidota.Bacteroidia.Bacteroidales.Muribaculaceae'
p99
(lp100
F376002.12968556426
aF32274.20565424069
aF45316.45569620254
aF237113.40206185565
aF15670.893330467794
aF11631.162352701636
aF1973.20594038841
aF165532.54437869822
aF30408.410837040035
aF19561.39992649161
aF569616.9772256728
aF78951.19116792562
aF465729.14880237816
aF82111.96270897766
aF70481.50732728542
asS'Bacteria.Proteobacteria.Gammaproteobacteria.Xanthomonadales.Xanthomonadaceae'
p101
(lp102
F0.0
aF0.0
aF0.0
aF0.0
aF89.5479618883874
aF0.0
aF0.0
aF0.0
aF0.0
aF0.0
aF0.0
aF0.0
aF0.0
aF0.0
aF0.0
asS'Bacteria.Proteobacteria.Alphaproteobacteria.Rhizobiales'
p103
(lp104
F61.43323742922379
aF310.83918999855956
aF221.51898734177217
aF0.0
aF0.0
aF135.73931265005558
aF934.6764980787206
aF6065.08875739645
aF646.9874646178731
aF1286.3968636419324
aF0.0
aF0.0
aF0.0
aF224.10470171664207
aF0.0
asS'Bacteria.Cyanobacteria'
p105
(lp106
F286.6884413363777
aF0.0
aF0.0
aF50.78462241633233
aF0.0
aF0.0
aF519.2647211548448
aF0.0
aF0.0
aF0.0
aF0.0
aF1325.5374782103427
aF457.3257874578403
aF0.0
aF0.0
asS'Bacteria.Firmicutes.Clostridia.Peptostreptococcales_Tissierellales'
p107
(lp108
F0.0
aF197.1175351210378
aF253.16455696202536
aF0.0
aF805.9316569954865
aF347.8319886657674
aF0.0
aF0.0
aF0.0
aF0.0
aF0.0
aF217.8965717606043
aF0.0
aF0.0
aF0.0
asS'Bacteria.Actinobacteriota.Actinobacteria.Corynebacteriales'
p109
(lp110
F0.0
aF0.0
aF0.0
aF0.0
aF0.0
aF0.0
aF5919.6178211652295
aF0.0
aF0.0
aF0.0
aF0.0
aF0.0
aF0.0
aF0.0
aF0.0
asS'Bacteria.Verrucomicrobiota'
p111
(lp112
F91381.94067597039
aF3495.0455265691703
aF10991.5611814346
aF87171.80437763446
aF5354.968120925567
aF6159.171311496271
aF0.0
aF887.5739644970414
aF21188.839466235346
aF24400.702413525545
aF10093.167701863355
aF1071.3248111563046
aF914.6515749156806
aF55533.145085383905
aF142009.76971388696
asS'Bacteria.Firmicutes.Bacilli.Staphylococcales'
p113
(lp114
F0.0
aF113.7216548775218
aF0.0
aF0.0
aF0.0
aF0.0
aF5711.911932703292
aF0.0
aF1617.4686615446826
aF0.0
aF0.0
aF907.9023823358513
aF1943.6345966958213
aF0.0
aF0.0
asS'Bacteria.Firmicutes.Bacilli.Staphylococcales.Staphylococcaceae'
p115
(lp116
F0.0
aF113.7216548775218
aF0.0
aF0.0
aF0.0
aF0.0
aF5711.911932703292
aF0.0
aF1617.4686615446826
aF0.0
aF0.0
aF907.9023823358513
aF1943.6345966958213
aF0.0
aF0.0
asS'Bacteria.Cyanobacteria.Vampirivibrionia.Gastranaerophilales'
p117
(lp118
F286.6884413363777
aF0.0
aF0.0
aF50.78462241633233
aF0.0
aF0.0
aF519.2647211548448
aF0.0
aF0.0
aF0.0
aF0.0
aF1325.5374782103427
aF0.0
aF0.0
aF0.0
asS'Bacteria.Verrucomicrobiota.Verrucomicrobiae.Verrucomicrobiales'
p119
(lp120
F91381.94067597039
aF3495.0455265691703
aF10991.5611814346
aF87171.80437763446
aF5354.968120925567
aF6159.171311496271
aF0.0
aF887.5739644970414
aF21188.839466235346
aF24400.702413525545
aF10093.167701863355
aF1071.3248111563046
aF914.6515749156806
aF55533.145085383905
aF142009.76971388696
asS'Bacteria.Bacteroidota.Bacteroidia.Bacteroidales'
p121
(lp122
F391780.2328319699
aF34624.453188376145
aF45580.16877637131
aF256900.36057081918
aF16835.01683501683
aF12937.653236958422
aF1973.20594038841
aF210576.92307692306
aF32915.4872624343
aF20847.79679013354
aF569616.9772256728
aF89137.85589773387
aF510718.57314354327
aF115638.02608578729
aF90369.8534542917
asS'Bacteria.Actinobacteriota.Coriobacteriia'
p123
(lp124
F8201.337196801376
aF3350.998097057642
aF6708.860759493672
aF10728.251485450206
aF13450.103875635787
aF10579.182679663705
aF14020.147471180808
aF14940.828402366862
aF18924.38334007279
aF19193.857965451054
aF3364.3892339544514
aF21807.815223707144
aF7831.704110215514
aF22634.574873380847
aF23377.52965806002
asS'Bacteria.Firmicutes.Bacilli.Lactobacillales'
p125
(lp126
F808.8709594847799
aF20371.339110393405
aF49451.476793248956
aF1295.0078716164744
aF26953.936528404607
aF61040.272157321866
aF33648.353930833946
aF16272.189349112426
aF1779.2155276991512
aF6268.632335524972
aF0.0
aF7299.535153980245
aF14520.093751786431
aF6185.289767379321
aF0.0
asS'Bacteria.Deferribacterota.Deferribacteres.Deferribacterales'
p127
(lp128
F0.0
aF0.0
aF0.0
aF0.0
aF411.920624686582
aF0.0
aF0.0
aF0.0
aF0.0
aF0.0
aF0.0
aF0.0
aF0.0
aF0.0
aF0.0
asS'Bacteria.Proteobacteria.Gammaproteobacteria.Pseudomonadales.Moraxellaceae'
p129
(lp130
F0.0
aF0.0
aF0.0
aF82.52501142654003
aF53.72877713303244
aF0.0
aF0.0
aF0.0
aF0.0
aF2736.1457099685545
aF0.0
aF0.0
aF0.0
aF672.3141051499261
aF0.0
asS'Bacteria.Proteobacteria.Gammaproteobacteria.Xanthomonadales'
p131
(lp132
F0.0
aF0.0
aF0.0
aF0.0
aF89.5479618883874
aF0.0
aF0.0
aF0.0
aF0.0
aF0.0
aF0.0
aF0.0
aF0.0
aF0.0
aF0.0
asS'Bacteria.Proteobacteria.Alphaproteobacteria.Sphingomonadales.Sphingomonadaceae'
p133
(lp134
F0.0
aF0.0
aF94.93670886075951
aF0.0
aF0.0
aF0.0
aF0.0
aF0.0
aF0.0
aF0.0
aF0.0
aF0.0
aF0.0
aF0.0
aF0.0
asS'Bacteria.Proteobacteria.Alphaproteobacteria.Rhodobacterales.Rhodobacteraceae'
p135
(lp136
F0.0
aF0.0
aF0.0
aF0.0
aF0.0
aF0.0
aF0.0
aF0.0
aF0.0
aF0.0
aF0.0
aF0.0
aF1257.645915509061
aF0.0
aF0.0
asS'Bacteria.Patescibacteria'
p137
(lp138
F3798.6218477070042
aF5625.431194608079
aF15348.101265822786
aF2805.850388502361
aF1182.0330969267136
aF3834.6355823640697
aF3738.705992314882
aF15088.757396449704
aF32511.120097048122
aF551.3129415608282
aF12681.159420289856
aF2415.0203370133645
aF28468.53026925056
aF851.5978665232398
aF0.0
asS'Bacteria.Firmicutes.Clostridia.Lachnospirales.Defluviitaleaceae'
p139
(lp140
F0.0
aF0.0
aF0.0
aF82.52501142654003
aF555.1973637080018
aF0.0
aF0.0
aF0.0
aF0.0
aF0.0
aF0.0
aF1289.2213829169089
aF0.0
aF0.0
aF0.0
asS'Bacteria.Gemmatimonadota.Gemmatimonadetes.Gemmatimonadales'
p141
(lp142
F0.0
aF0.0
aF0.0
aF0.0
aF0.0
aF0.0
aF0.0
aF0.0
aF0.0
aF0.0
aF2846.790890269151
aF0.0
aF0.0
aF0.0
aF0.0
asS'Bacteria.Bacteroidota.Bacteroidia.Bacteroidales.Bacteroidaceae'
p143
(lp144
F2621.151463646882
aF447.3051758515858
aF0.0
aF3294.6523792595603
aF250.7342932874847
aF721.1150984534203
aF0.0
aF33875.73964497041
aF0.0
aF183.77098052027605
aF0.0
aF2088.1754793724576
aF31441.147887726525
aF4168.347451929542
aF2791.3468248429867
asS'Bacteria.Cyanobacteria.Cyanobacteriia.Chloroplast'
p145
(lp146
F0.0
aF0.0
aF0.0
aF0.0
aF0.0
aF0.0
aF0.0
aF0.0
aF0.0
aF0.0
aF0.0
aF0.0
aF457.3257874578403
aF0.0
aF0.0
asS'Bacteria.Proteobacteria.Gammaproteobacteria.Enterobacterales.Enterobacteriaceae'
p147
(lp148
F3542.6500250852387
aF5534.453870706061
aF7774.2616033755285
aF2018.6887410492102
aF7665.3055376459615
aF6990.5746014778615
aF15577.941634645344
aF8949.704142011833
aF27820.460978568542
aF6656.593294401111
aF18633.540372670806
aF5774.259151656013
aF21551.477733950724
aF12325.758594415314
aF30006.978367062107
asS'Bacteria.Proteobacteria.Alphaproteobacteria.Rhizobiales.Beijerinckiaceae'
p149
(lp150
F61.43323742922379
aF310.83918999855956
aF0.0
aF0.0
aF0.0
aF0.0
aF0.0
aF0.0
aF0.0
aF0.0
aF0.0
aF0.0
aF0.0
aF0.0
aF0.0
asS'Bacteria.Proteobacteria.Alphaproteobacteria'
p151
(lp152
F61.43323742922379
aF310.83918999855956
aF316.45569620253167
aF0.0
aF0.0
aF135.73931265005558
aF934.6764980787206
aF7026.627218934912
aF646.9874646178731
aF1919.3857965451054
aF0.0
aF0.0
aF1257.645915509061
aF224.10470171664207
aF0.0
asS'Bacteria.Firmicutes.Bacilli.Acholeplasmatales.Acholeplasmataceae'
p153
(lp154
F0.0
aF0.0
aF0.0
aF0.0
aF0.0
aF0.0
aF0.0
aF295.85798816568047
aF0.0
aF61.25699350675868
aF0.0
aF254.21266705403832
aF0.0
aF0.0
aF0.0
asS'Bacteria.Proteobacteria.Gammaproteobacteria.Burkholderiales.Oxalobacteraceae'
p155
(lp156
F0.0
aF0.0
aF0.0
aF0.0
aF0.0
aF0.0
aF0.0
aF0.0
aF0.0
aF428.7989545473108
aF13198.757763975156
aF0.0
aF0.0
aF0.0
aF0.0
asS'Bacteria.Chloroflexi.Anaerolineae.Anaerolineales'
p157
(lp158
F0.0
aF0.0
aF0.0
aF0.0
aF0.0
aF0.0
aF0.0
aF0.0
aF0.0
aF0.0
aF0.0
aF0.0
aF457.3257874578403
aF0.0
aF0.0
asS'Bacteria.Firmicutes.Clostridia.Monoglobales.Monoglobaceae'
p159
(lp160
F8109.1873406575405
aF4018.1651390057705
aF9272.151898734177
aF0.0
aF197.0055161544523
aF67.86965632502779
aF2284.764773081317
aF0.0
aF79094.217549535
aF1960.2237922162778
aF26397.515527950312
aF11566.676350958744
aF14405.762304921971
aF30343.776612433336
aF7327.28541521284
asS'Bacteria.Cyanobacteria.Cyanobacteriia'
p161
(lp162
F0.0
aF0.0
aF0.0
aF0.0
aF0.0
aF0.0
aF0.0
aF0.0
aF0.0
aF0.0
aF0.0
aF0.0
aF457.3257874578403
aF0.0
aF0.0
asS'Bacteria.Chloroflexi.Anaerolineae.Anaerolineales.Anaerolineaceae'
p163
(lp164
F0.0
aF0.0
aF0.0
aF0.0
aF0.0
aF0.0
aF0.0
aF0.0
aF0.0
aF0.0
aF0.0
aF0.0
aF457.3257874578403
aF0.0
aF0.0
asS'Bacteria.Firmicutes.Clostridia.Peptococcales.Peptococcaceae'
p165
(lp166
F0.0
aF242.6061970720465
aF210.97046413502113
aF1072.8251485450205
aF0.0
aF483.57130131582295
aF0.0
aF0.0
aF0.0
aF81.67599134234491
aF0.0
aF780.796048808832
aF0.0
aF851.5978665232398
aF0.0
asS'Bacteria.Firmicutes.Bacilli.Lactobacillales.Lactobacillaceae'
p167
(lp168
F808.8709594847799
aF20212.128793564872
aF49451.476793248956
aF1295.0078716164744
aF26953.936528404607
aF61040.272157321866
aF28351.853775054526
aF11242.603550295858
aF1779.2155276991512
aF4042.961571446073
aF0.0
aF6028.4718187100525
aF14520.093751786431
aF5557.796602572724
aF0.0
asS'Bacteria.Chloroflexi'
p169
(lp170
F0.0
aF0.0
aF0.0
aF0.0
aF0.0
aF0.0
aF0.0
aF0.0
aF0.0
aF0.0
aF0.0
aF0.0
aF457.3257874578403
aF0.0
aF0.0
asS'Bacteria.Firmicutes.Clostridia.Oscillospirales.UCG_010'
p171
(lp172
F1535.8309357305948
aF45.48866195100872
aF0.0
aF615.7635467980296
aF0.0
aF322.380867543882
aF0.0
aF0.0
aF0.0
aF0.0
aF0.0
aF653.6897152818129
aF0.0
aF0.0
aF0.0
asS'Bacteria.Firmicutes.Clostridia.Eubacteriales.Anaerofustaceae'
p173
(lp174
F327.64393295586024
aF75.81443658501453
aF189.87341772151902
aF0.0
aF358.1918475535496
aF0.0
aF0.0
aF0.0
aF404.36716538617065
aF0.0
aF0.0
aF0.0
aF0.0
aF1703.1957330464795
aF0.0
asS'Bacteria.Proteobacteria.Gammaproteobacteria.Pseudomonadales.Pseudomonadaceae'
p175
(lp176
F389.077170385084
aF758.1443658501454
aF3259.4936708860764
aF272.9673454877863
aF1880.5071996561353
aF458.12018019393753
aF0.0
aF27884.615384615387
aF970.4811969268096
aF2674.888716461796
aF0.0
aF1634.224288204532
aF0.0
aF2106.584196136436
aF15003.489183531054
asS'Bacteria.Proteobacteria.Alphaproteobacteria.Caulobacterales.Caulobacteraceae'
p177
(lp178
F0.0
aF0.0
aF0.0
aF0.0
aF0.0
aF0.0
aF0.0
aF961.5384615384615
aF0.0
aF632.9889329031731
aF0.0
aF0.0
aF0.0
aF0.0
aF0.0
asS'Bacteria.Firmicutes.Clostridia.Peptococcales'
p179
(lp180
F0.0
aF242.6061970720465
aF210.97046413502113
aF1072.8251485450205
aF0.0
aF483.57130131582295
aF0.0
aF0.0
aF0.0
aF81.67599134234491
aF0.0
aF780.796048808832
aF0.0
aF851.5978665232398
aF0.0
asS'Bacteria.Firmicutes.Clostridia'
p181
(lp182
F429377.37413865473
aF818962.7068786438
aF776592.8270042194
aF618613.8337311462
aF818683.2867683929
aF771499.8345677126
aF765396.1989822412
aF498742.6035502958
aF799272.1391023048
aF810470.8620900885
aF361283.64389233955
aF826318.2742591517
aF309037.9008746356
aF656895.7016718214
aF595254.710397767
asS'Bacteria.Actinobacteriota.Actinobacteria.Micrococcales.Micrococcaceae'
p183
(lp184
F0.0
aF341.1649646325654
aF0.0
aF0.0
aF0.0
aF0.0
aF0.0
aF0.0
aF0.0
aF0.0
aF0.0
aF417.6350958744916
aF0.0
aF0.0
aF0.0
asS'Bacteria.Patescibacteria.Saccharimonadia.Saccharimonadales.Saccharimonadaceae'
p185
(lp186
F3798.6218477070042
aF5625.431194608079
aF15348.101265822786
aF2805.850388502361
aF1182.0330969267136
aF3834.6355823640697
aF3738.705992314882
aF15088.757396449704
aF32511.120097048122
aF551.3129415608282
aF12681.159420289856
aF2306.0720511330624
aF28468.53026925056
aF851.5978665232398
aF0.0
asS'Bacteria.Firmicutes.Bacilli.Erysipelotrichales.Erysipelotrichaceae'
p187
(lp188
F45194.38500209897
aF89286.66196617162
aF73470.4641350211
aF14886.242445787415
aF93380.61465721038
aF110296.67523521077
aF130854.70973102086
aF71671.59763313609
aF37767.893247068336
aF89373.95352636093
aF5434.782608695652
aF11167.199302730969
aF49905.676556336824
aF29626.64156694008
aF71179.34403349615
asS'Bacteria.Actinobacteriota'
p189
(lp190
F27358.26840181433
aF14169.718197739216
aF12700.421940928272
aF12220.049768929968
aF19396.08854502471
aF17417.050554410253
aF27624.883165437743
aF25295.85798816568
aF23534.169025475137
aF19357.209948135744
aF3364.3892339544514
aF22443.346891342244
aF21722.974904247414
aF103939.76065617858
aF37683.182135380324
asS'Bacteria.Proteobacteria.Gammaproteobacteria.Burkholderiales'
p191
(lp192
F2703.062446885847
aF5178.126018756492
aF2721.5189873417726
aF1060.1289929409375
aF2399.885378608782
aF2214.2475376040315
aF6335.029598089106
aF84541.4201183432
aF5175.899716942985
aF11352.962796585944
aF13198.757763975156
aF5283.991865194654
aF8975.018578860117
aF13491.103043341851
aF18492.672714584787
asS'Bacteria.Firmicutes'
p193
(lp194
F478698.0249214166
aF930303.7884473962
aF901308.016877637
aF637131.1766797014
aF944730.9979224872
aF949852.807682845
aF941426.9394537335
aF614497.0414201182
aF853861.7064294381
aF908257.4427247111
aF369565.2173913044
aF856315.3689715281
aF389470.0737437832
aF694545.2915602172
aF666434.0544312632
asS'Bacteria.Firmicutes.Clostridia.Oscillospirales'
p195
(lp196
F163.82196647793012
aF0.0
aF0.0
aF0.0
aF0.0
aF0.0
aF0.0
aF0.0
aF0.0
aF0.0
aF0.0
aF0.0
aF0.0
aF0.0
aF0.0
asS'Bacteria.Actinobacteriota.Coriobacteriia.Coriobacteriales.Atopobiaceae'
p197
(lp198
F6255.951344875956
aF742.9814785331424
aF1540.084388185654
aF8309.633842872377
aF3725.1952145569157
aF3851.602996445327
aF3219.4412711600376
aF0.0
aF3801.0513546300044
aF530.893943725242
aF0.0
aF3577.135386403254
aF685.9886811867605
aF13042.893639908569
aF5582.6936496859735
asS'Bacteria.Firmicutes.Clostridia.Oscillospirales.Hungateiclostridiaceae'
p199
(lp200
F0.0
aF0.0
aF0.0
aF57.13270021837388
aF0.0
aF0.0
aF0.0
aF0.0
aF0.0
aF0.0
aF0.0
aF0.0
aF0.0
aF0.0
aF0.0
asS'Bacteria.Proteobacteria.Gammaproteobacteria.Burkholderiales.Comamonadaceae'
p201
(lp202
F0.0
aF576.1897180461106
aF263.7130801687764
aF0.0
aF0.0
aF161.190433771941
aF1557.7941634645342
aF65384.61538461539
aF3558.4310553983023
aF5635.643402621799
aF0.0
aF2251.5979081929113
aF2858.286171611502
aF761.9559858365831
aF8374.04047452896
asS'Bacteria.Firmicutes.Bacilli.Erysipelotrichales.Erysipelatoclostridiaceae'
p203
(lp204
F0.0
aF0.0
aF0.0
aF0.0
aF0.0
aF0.0
aF1557.7941634645342
aF739.6449704142011
aF1213.101496158512
aF0.0
aF0.0
aF6918.216153399187
aF0.0
aF0.0
aF0.0
asS'Bacteria.Firmicutes.Clostridia.Oscillospirales._Eubacterium__coprostanoligenes_group'
p205
(lp206
F37566.42468797035
aF116284.18283409529
aF136265.82278481012
aF26382.611345284648
aF48839.45841392649
aF39169.27540658166
aF10073.735590403989
aF4511.834319526628
aF13263.243024666399
aF2164.4137705721405
aF70134.57556935817
aF25548.373038930855
aF6745.555365003145
aF13625.565864371836
aF0.0
asS'Bacteria.Actinobacteriota.Coriobacteriia.Coriobacteriales.Eggerthellaceae'
p207
(lp208
F1945.38585192542
aF2608.0166185245
aF4388.185654008439
aF1821.8983291859224
aF9456.264775413709
aF6507.003300162039
aF5504.206044241354
aF8579.881656804733
aF7197.735543873839
aF14374.974476252706
aF0.0
aF10477.193492155724
aF4744.7550448750935
aF6409.394469095962
aF16050.244242847175
asS'Bacteria.Firmicutes.Clostridia.Christensenellales'
p209
(lp210
F4924.897867242774
aF576.1897180461106
aF2035.864978902954
aF4786.450662739323
aF788.0220646178092
aF525.9898365189654
aF41541.17769238757
aF29807.69230769231
aF3720.17792155277
aF3859.190590925797
aF0.0
aF13872.748402091807
aF21437.146287086263
aF1568.7329120164945
aF0.0
asS'Bacteria.Campylobacterota.Campylobacteria.Campylobacterales.Helicobacteraceae'
p211
(lp212
F0.0
aF0.0
aF0.0
aF0.0
aF0.0
aF0.0
aF0.0
aF0.0
aF0.0
aF0.0
aF0.0
aF2306.0720511330624
aF0.0
aF0.0
aF0.0
asS'Bacteria.Firmicutes.Clostridia.Clostridia_UCG_014'
p213
(lp214
F238002.60067371785
aF57126.17796680845
aF100316.45569620254
aF92523.23396475546
aF220789.45483200796
aF52386.89097588082
aF69996.88441167306
aF278476.33136094676
aF267852.8103517995
aF36488.74913219259
aF62111.801242236026
aF336214.4102266124
aF129366.03212713658
aF97530.36618708263
aF74319.60921144452
asS'Bacteria.Proteobacteria.Alphaproteobacteria.Caulobacterales'
p215
(lp216
F0.0
aF0.0
aF0.0
aF0.0
aF0.0
aF0.0
aF0.0
aF961.5384615384615
aF0.0
aF632.9889329031731
aF0.0
aF0.0
aF0.0
aF0.0
aF0.0
asS'Bacteria.Firmicutes.Bacilli.Exiguobacterales.Exiguobacteraceae'
p217
(lp218
F0.0
aF0.0
aF0.0
aF0.0
aF0.0
aF0.0
aF0.0
aF0.0
aF0.0
aF0.0
aF0.0
aF0.0
aF0.0
aF717.1350454932547
aF0.0
asS'Bacteria.Acidobacteriota.Acidobacteriae.Bryobacterales.Bryobacteraceae'
p219
(lp220
F0.0
aF0.0
aF0.0
aF0.0
aF0.0
aF0.0
aF0.0
aF0.0
aF0.0
aF0.0
aF0.0
aF0.0
aF685.9886811867605
aF0.0
aF0.0
asS'Bacteria.Cyanobacteria.Vampirivibrionia.Gastranaerophilales.Gastranaerophilales'
p221
(lp222
F286.6884413363777
aF0.0
aF0.0
aF50.78462241633233
aF0.0
aF0.0
aF519.2647211548448
aF0.0
aF0.0
aF0.0
aF0.0
aF1325.5374782103427
aF0.0
aF0.0
aF0.0
asS'Bacteria.Bacteroidota.Bacteroidia.Bacteroidales.Prevotellaceae'
p223
(lp224
F9225.22448728844
aF1523.8701753587923
aF263.7130801687764
aF5478.391143161851
aF304.46307042051717
aF110.28819152817016
aF0.0
aF10059.171597633136
aF2507.0764253942584
aF898.4359047657941
aF0.0
aF6736.635676932016
aF13548.27645343852
aF19631.571870377844
aF17096.99930216329
asS'Bacteria.Proteobacteria.Gammaproteobacteria.Burkholderiales.Alcaligenaceae'
p225
(lp226
F102.38872904870631
aF75.81443658501453
aF179.32489451476798
aF158.70194505103854
aF250.7342932874847
aF178.15784785319795
aF0.0
aF3476.3313609467455
aF0.0
aF1123.0448809572426
aF0.0
aF0.0
aF0.0
aF896.4188068665683
aF0.0
asS'Bacteria.Firmicutes.Bacilli.Exiguobacterales'
p227
(lp228
F0.0
aF0.0
aF0.0
aF0.0
aF0.0
aF0.0
aF0.0
aF0.0
aF0.0
aF0.0
aF0.0
aF0.0
aF0.0
aF717.1350454932547
aF0.0
asS'Bacteria.Firmicutes.Clostridia.Eubacteriales'
p229
(lp230
F327.64393295586024
aF75.81443658501453
aF189.87341772151902
aF0.0
aF358.1918475535496
aF0.0
aF0.0
aF0.0
aF404.36716538617065
aF0.0
aF0.0
aF0.0
aF0.0
aF1703.1957330464795
aF0.0
asS'Bacteria.Bacteroidota.Bacteroidia.Flavobacteriales'
p231
(lp232
F0.0
aF0.0
aF0.0
aF0.0
aF0.0
aF0.0
aF0.0
aF0.0
aF0.0
aF1245.55886797076
aF0.0
aF254.21266705403832
aF0.0
aF0.0
aF0.0
asS'Bacteria.Gemmatimonadota'
p233
(lp234
F0.0
aF0.0
aF0.0
aF0.0
aF0.0
aF0.0
aF0.0
aF0.0
aF0.0
aF0.0
aF2846.790890269151
aF0.0
aF0.0
aF0.0
aF0.0
asS'Bacteria.Proteobacteria.Gammaproteobacteria.Burkholderiales.Burkholderiaceae'
p235
(lp236
F1535.8309357305948
aF4526.121864125368
aF2278.4810126582283
aF793.5097252551926
aF2149.1510853212976
aF1874.8992559788926
aF4777.235434624572
aF12869.822485207102
aF1617.4686615446826
aF4165.475558459591
aF0.0
aF2560.2847181871
aF6116.732407248614
aF3809.779929182915
aF10118.632240055827
asS'Bacteria.Firmicutes.Bacilli'
p237
(lp238
F49320.65078276183
aF111341.08156875236
aF124715.18987341774
aF18517.34294855518
aF126047.7111540941
aF178352.9731151324
aF176030.74047149235
aF115754.43786982249
aF54589.56732713304
aF97786.58063462246
aF8281.573498964804
aF29997.094712376525
aF80432.17286914767
aF37649.58988839587
aF71179.34403349615
asS'Bacteria.Acidobacteriota.Acidobacteriae'
p239
(lp240
F0.0
aF0.0
aF0.0
aF0.0
aF0.0
aF0.0
aF0.0
aF0.0
aF0.0
aF0.0
aF0.0
aF0.0
aF685.9886811867605
aF0.0
aF0.0
asS'Bacteria.Verrucomicrobiota.Verrucomicrobiae'
p241
(lp242
F91381.94067597039
aF3495.0455265691703
aF10991.5611814346
aF87171.80437763446
aF5354.968120925567
aF6159.171311496271
aF0.0
aF887.5739644970414
aF21188.839466235346
aF24400.702413525545
aF10093.167701863355
aF1071.3248111563046
aF914.6515749156806
aF55533.145085383905
aF142009.76971388696
asS'Bacteria.Gemmatimonadota.Gemmatimonadetes.Gemmatimonadales.Gemmatimonadaceae'
p243
(lp244
F0.0
aF0.0
aF0.0
aF0.0
aF0.0
aF0.0
aF0.0
aF0.0
aF0.0
aF0.0
aF2846.790890269151
aF0.0
aF0.0
aF0.0
aF0.0
asS'Bacteria.Actinobacteriota.Actinobacteria.Bifidobacteriales.Bifidobacteriaceae'
p245
(lp246
F19156.931205012952
aF10477.55513604901
aF5991.5611814346
aF1491.7982834797624
aF5945.984669388924
aF6736.063390259008
aF7685.117873091703
aF10355.029585798817
aF4609.785685402346
aF163.35198268468983
aF0.0
aF0.0
aF13891.2707940319
aF49168.571556631265
aF5582.6936496859735
asS'Bacteria.Actinobacteriota.Coriobacteriia.Coriobacteriales.Coriobacteriales_Incertae_Sedis'
p247
(lp248
F0.0
aF0.0
aF0.0
aF0.0
aF0.0
aF0.0
aF0.0
aF443.7869822485207
aF0.0
aF387.96095887613836
aF0.0
aF508.42533410807664
aF0.0
aF0.0
aF1744.5917655268668
asS'Bacteria.Proteobacteria.Alphaproteobacteria.Sphingomonadales'
p249
(lp250
F0.0
aF0.0
aF94.93670886075951
aF0.0
aF0.0
aF0.0
aF0.0
aF0.0
aF0.0
aF0.0
aF0.0
aF0.0
aF0.0
aF0.0
aF0.0
asS'Bacteria.Verrucomicrobiota.Verrucomicrobiae.Verrucomicrobiales.Akkermansiaceae'
p251
(lp252
F91381.94067597039
aF3495.0455265691703
aF10991.5611814346
aF87171.80437763446
aF5354.968120925567
aF6159.171311496271
aF0.0
aF887.5739644970414
aF21188.839466235346
aF24400.702413525545
aF10093.167701863355
aF1071.3248111563046
aF914.6515749156806
aF55533.145085383905
aF142009.76971388696
asS'Bacteria.Campylobacterota.Campylobacteria'
p253
(lp254
F0.0
aF0.0
aF0.0
aF0.0
aF0.0
aF0.0
aF0.0
aF0.0
aF0.0
aF0.0
aF0.0
aF2306.0720511330624
aF0.0
aF0.0
aF0.0
asS'Bacteria.Desulfobacterota.Desulfovibrionia.Desulfovibrionales.Desulfovibrionaceae'
p255
(lp256
F0.0
aF0.0
aF0.0
aF0.0
aF0.0
aF0.0
aF1869.352996157441
aF4585.798816568047
aF0.0
aF0.0
aF0.0
aF12038.785589773388
aF14462.928028354201
aF0.0
aF0.0
asS'Bacteria.Proteobacteria.Gammaproteobacteria.Pseudomonadales'
p257
(lp258
F389.077170385084
aF758.1443658501454
aF3259.4936708860764
aF355.4923569143263
aF1934.2359767891678
aF458.12018019393753
aF0.0
aF27884.615384615387
aF970.4811969268096
aF5411.03442643035
aF0.0
aF1634.224288204532
aF0.0
aF2778.898301286362
aF15003.489183531054
asS'Bacteria.Deferribacterota.Deferribacteres'
p259
(lp260
F0.0
aF0.0
aF0.0
aF0.0
aF411.920624686582
aF0.0
aF0.0
aF0.0
aF0.0
aF0.0
aF0.0
aF0.0
aF0.0
aF0.0
aF0.0
asS'Bacteria.Actinobacteriota.Actinobacteria'
p261
(lp262
F19156.931205012952
aF10818.720100681574
aF5991.5611814346
aF1491.7982834797624
aF5945.984669388924
aF6837.867874746549
aF13604.735694256933
aF10355.029585798817
aF4609.785685402346
aF163.35198268468983
aF0.0
aF635.5316676350959
aF13891.2707940319
aF81305.18578279774
aF14305.652477320307
asS'Bacteria.Actinobacteriota.Coriobacteriia.Coriobacteriales.uncultured'
p263
(lp264
F0.0
aF0.0
aF780.5907172995782
aF596.7193133919048
aF268.6438856651622
aF220.57638305634032
aF5296.500155779417
aF5917.159763313609
aF7925.596441568946
aF3900.0285865969695
aF3364.3892339544514
aF7245.061011040093
aF2400.9603841536614
aF3182.286764376317
aF0.0
asS'Bacteria.Firmicutes.Clostridia.uncultured.uncultured'
p265
(lp266
F0.0
aF0.0
aF0.0
aF0.0
aF0.0
aF186.6415548938264
aF0.0
aF0.0
aF0.0
aF0.0
aF0.0
aF599.2155723416619
aF0.0
aF717.1350454932547
aF0.0
asS'Bacteria.Firmicutes.Clostridia.Oscillospirales.Ruminococcaceae'
p267
(lp268
F21941.904635137762
aF796.0515841426526
aF2447.257383966245
aF57443.75603067391
aF27867.325739666157
aF32772.56029794779
aF11112.265032713676
aF16642.011834319528
aF53538.212697129
aF38673.581900600315
aF61594.20289855073
aF35371.87681580477
aF49162.522151717836
aF200484.066155708
aF254361.47941381714
asS'Bacteria.Bacteroidota.Bacteroidia.Flavobacteriales.Weeksellaceae'
p269
(lp270
F0.0
aF0.0
aF0.0
aF0.0
aF0.0
aF0.0
aF0.0
aF0.0
aF0.0
aF1245.55886797076
aF0.0
aF254.21266705403832
aF0.0
aF0.0
aF0.0
asS'Bacteria.Gemmatimonadota.Gemmatimonadetes'
p271
(lp272
F0.0
aF0.0
aF0.0
aF0.0
aF0.0
aF0.0
aF0.0
aF0.0
aF0.0
aF0.0
aF2846.790890269151
aF0.0
aF0.0
aF0.0
aF0.0
asS'Bacteria.Firmicutes.Clostridia.Lachnospirales.Lachnospiraceae'
p273
(lp274
F23262.719239866077
aF52016.28494097847
aF70379.74683544305
aF356095.42430552025
aF99631.06239701982
aF106368.71887539979
aF51926.47211548448
aF99778.10650887573
aF136352.60816821674
aF10413.688896148977
aF86956.52173913043
aF290819.29110981984
aF37958.04035900075
aF289408.8117968716
aF250523.3775296581
asS'Bacteria.Patescibacteria.Saccharimonadia'
p275
(lp276
F3798.6218477070042
aF5625.431194608079
aF15348.101265822786
aF2805.850388502361
aF1182.0330969267136
aF3834.6355823640697
aF3738.705992314882
aF15088.757396449704
aF32511.120097048122
aF551.3129415608282
aF12681.159420289856
aF2415.0203370133645
aF28468.53026925056
aF851.5978665232398
aF0.0
asS'Bacteria.Firmicutes.Clostridia.Peptostreptococcales_Tissierellales.Peptostreptococcaceae'
p277
(lp278
F14907.79894949164
aF150954.12468442245
aF211729.9578059072
aF9807.780204154182
aF201321.72791747257
aF236143.98547589354
aF168241.7696541697
aF23668.639053254436
aF17873.028710068746
aF56111.406052190956
aF8281.573498964804
aF25294.160371876816
aF0.0
aF5109.58719913944
aF5233.7752965806
asS'Bacteria.Firmicutes.Clostridia.Lachnospirales'
p279
(lp280
F23262.719239866077
aF52016.28494097847
aF70379.74683544305
aF356177.9493169468
aF100186.25976072781
aF106368.71887539979
aF51926.47211548448
aF99778.10650887573
aF136352.60816821674
aF10413.688896148977
aF86956.52173913043
aF292108.5124927368
aF37958.04035900075
aF289408.8117968716
aF250523.3775296581
asS'Bacteria.Firmicutes.Clostridia.Clostridiales.Clostridiaceae'
p281
(lp282
F60429.82788454647
aF433787.46180847764
aF235221.5189873418
aF25614.49393123762
aF190952.07393079728
aF294181.02534083294
aF402326.3059507737
aF18639.05325443787
aF16983.42094621917
aF658737.2891738473
aF12681.159420289856
aF10350.087158628705
aF15091.750986108731
aF1613.553852359823
aF0.0
asS'Bacteria.Campylobacterota'
p283
(lp284
F0.0
aF0.0
aF0.0
aF0.0
aF0.0
aF0.0
aF0.0
aF0.0
aF0.0
aF0.0
aF0.0
aF2306.0720511330624
aF0.0
aF0.0
aF0.0
asS'Bacteria.Patescibacteria.Saccharimonadia.Saccharimonadales'
p285
(lp286
F0.0
aF0.0
aF0.0
aF0.0
aF0.0
aF0.0
aF0.0
aF0.0
aF0.0
aF0.0
aF0.0
aF108.94828588030215
aF0.0
aF0.0
aF0.0
asS'Bacteria.Firmicutes.Clostridia.uncultured'
p287
(lp288
F0.0
aF0.0
aF0.0
aF0.0
aF0.0
aF186.6415548938264
aF0.0
aF0.0
aF0.0
aF0.0
aF0.0
aF599.2155723416619
aF0.0
aF717.1350454932547
aF0.0
asS'Bacteria.Proteobacteria.Gammaproteobacteria.Enterobacterales'
p289
(lp290
F3542.6500250852387
aF5534.453870706061
aF7774.2616033755285
aF2304.35224214108
aF7665.3055376459615
aF6990.5746014778615
aF15577.941634645344
aF9615.384615384613
aF29195.309340881522
aF6656.593294401111
aF18633.540372670806
aF5774.259151656013
aF21551.477733950724
aF12998.07269956524
aF30006.978367062107
asS'Bacteria'
p291
(lp292
F1000000.0
aF1000000.0
aF1000000.0
aF1000000.0
aF1000000.0
aF1000000.0
aF1000000.0
aF1000000.0
aF1000000.0
aF1000000.0
aF1000000.0
aF1000000.0
aF1000000.0
aF1000000.0
aF1000000.0
asS'Bacteria.Deferribacterota.Deferribacteres.Deferribacterales.Deferribacteraceae'
p293
(lp294
F0.0
aF0.0
aF0.0
aF0.0
aF411.920624686582
aF0.0
aF0.0
aF0.0
aF0.0
aF0.0
aF0.0
aF0.0
aF0.0
aF0.0
aF0.0
asS'Bacteria.Actinobacteriota.Actinobacteria.Corynebacteriales.Corynebacteriaceae'
p295
(lp296
F0.0
aF0.0
aF0.0
aF0.0
aF0.0
aF0.0
aF5919.6178211652295
aF0.0
aF0.0
aF0.0
aF0.0
aF0.0
aF0.0
aF0.0
aF0.0
asS'Bacteria.Firmicutes.Clostridia.Oscillospirales.Oscillospiraceae'
p297
(lp298
F15307.114992781595
aF2092.478449746401
aF7025.316455696203
aF39288.2535168351
aF24571.9607421735
aF7575.9503872812265
aF7892.82376155364
aF18713.017751479292
aF204124.54508693898
aF1490.5868419977946
aF33126.29399585922
aF62554.47414294015
aF34356.59978277026
aF6723.141051499262
aF0.0
asS'Bacteria.Actinobacteriota.Actinobacteria.Pseudonocardiales'
p299
(lp300
F0.0
aF0.0
aF0.0
aF0.0
aF0.0
aF101.80448448754169
aF0.0
aF0.0
aF0.0
aF0.0
aF0.0
aF0.0
aF0.0
aF32136.614226166475
aF5233.7752965806
asS'Bacteria.Chloroflexi.Anaerolineae'
p301
(lp302
F0.0
aF0.0
aF0.0
aF0.0
aF0.0
aF0.0
aF0.0
aF0.0
aF0.0
aF0.0
aF0.0
aF0.0
aF457.3257874578403
aF0.0
aF0.0
asS'Bacteria.Actinobacteriota.Actinobacteria.Streptomycetales.Streptomycetaceae'
p303
(lp304
F0.0
aF0.0
aF0.0
aF0.0
aF0.0
aF0.0
aF0.0
aF0.0
aF0.0
aF0.0
aF0.0
aF0.0
aF0.0
aF0.0
aF3489.1835310537335
assS'subclass_sl'
p305
(dp306
g12
(I0
I8
tp307
sg10
(I8
I15
tp308
ssS'norm'
p309
F1000000.0
sS'cls'
p310
(dp311
S'class'
p312
(S'HSD-NC'
p313
S'HSD-NC'
p314
S'HSD-NC'
p315
S'HSD-NC'
p316
S'HSD-NC'
p317
S'HSD-NC'
p318
S'HSD-NC'
p319
g5
S'HSD-NR'
p320
S'HSD-NR'
p321
S'HSD-NR'
p322
S'HSD-NR'
p323
S'HSD-NR'
p324
S'HSD-NR'
p325
g3
tp326
sS'subclass'
p327
(lp328
S'HSD-NC_subcl'
p329
aS'HSD-NC_subcl'
p330
aS'HSD-NC_subcl'
p331
aS'HSD-NC_subcl'
p332
aS'HSD-NC_subcl'
p333
aS'HSD-NC_subcl'
p334
aS'HSD-NC_subcl'
p335
ag12
aS'HSD-NR_subcl'
p336
aS'HSD-NR_subcl'
p337
aS'HSD-NR_subcl'
p338
aS'HSD-NR_subcl'
p339
aS'HSD-NR_subcl'
p340
aS'HSD-NR_subcl'
p341
ag10
asS'subject'
p342
(S'S210421121688'
p343
S'S210421121689'
p344
S'S210421121690'
p345
S'S210421121698'
p346
S'S210421121699'
p347
S'S210421121700'
p348
S'S210421121701'
p349
S'S210421121702'
p350
S'S210421121691'
p351
S'S210421121692'
p352
S'S210421121693'
p353
S'S210421121707'
p354
S'S210421121708'
p355
S'S210421121709'
p356
S'S210421121710'
p357
tp358
ss.