(dp0
S'class_sl'
p1
(dp2
S'HSD-NR'
p3
(I8
I15
tp4
sS'HSD-NC'
p5
(I0
I8
tp6
ssS'class_hierarchy'
p7
(dp8
g3
(lp9
S'HSD-NR_subcl'
p10
asg5
(lp11
S'HSD-NC_subcl'
p12
assS'feats'
p13
(dp14
S'Bacteria.Firmicutes.Clostridia.Oscillospirales.Ruminococcaceae.Ruminococcaceae'
p15
(lp16
F0.0
aF0.0
aF94.9367088607595
aF0.0
aF0.0
aF0.0
aF0.0
aF0.0
aF0.0
aF0.0
aF0.0
aF0.0
aF0.0
aF0.0
aF0.0
asS'Bacteria.Firmicutes.Bacilli.Acholeplasmatales'
p17
(lp18
F0.0
aF0.0
aF0.0
aF0.0
aF0.0
aF0.0
aF0.0
aF295.8579881656805
aF0.0
aF61.25699350675868
aF0.0
aF254.21266705403826
aF0.0
aF0.0
aF0.0
asS'Bacteria.Firmicutes.Clostridia.Peptostreptococcales_Tissierellales.Anaerovoracaceae'
p19
(lp20
F0.0
aF0.0
aF0.0
aF2818.5465441064453
aF0.0
aF0.0
aF0.0
aF0.0
aF0.0
aF0.0
aF0.0
aF272.3707147007553
aF0.0
aF0.0
aF0.0
asS'Bacteria.Firmicutes.Clostridia.Oscillospirales.UCG_010'
p21
(lp22
F1535.8309357305957
aF45.48866195100872
aF0.0
aF615.7635467980297
aF0.0
aF322.380867543882
aF0.0
aF0.0
aF0.0
aF0.0
aF0.0
aF653.6897152818127
aF0.0
aF0.0
aF0.0
asS'Bacteria.Firmicutes.Clostridia.Oscillospirales.Butyricicoccaceae'
p23
(lp24
F624.571247197109
aF621.6783799971192
aF706.7510548523206
aF406.2769793306588
aF1110.3947274160037
aF262.9949182594827
aF0.0
aF8505.917159763316
aF4205.418520016175
aF285.8659696982072
aF0.0
aF9605.607205113303
aF514.4915108900701
aF7216.171395275874
aF3489.1835310537335
asS'Bacteria.Desulfobacterota.Desulfovibrionia.Desulfovibrionales.Desulfovibrionaceae.Desulfovibrio'
p25
(lp26
F0.0
aF0.0
aF0.0
aF0.0
aF0.0
aF0.0
aF1869.352996157441
aF4585.798816568048
aF0.0
aF0.0
aF0.0
aF12038.785589773384
aF14462.928028354192
aF0.0
aF0.0
asS'Bacteria.Actinobacteriota.Actinobacteria.Bifidobacteriales'
p27
(lp28
F19156.931205012963
aF10477.55513604901
aF5991.561181434599
aF1491.7982834797626
aF5945.984669388924
aF6736.063390259009
aF7685.117873091703
aF10355.02958579882
aF4609.785685402345
aF163.35198268468983
aF0.0
aF0.0
aF13891.270794031892
aF49168.571556631265
aF5582.6936496859735
asS'Bacteria.Cyanobacteria.Vampirivibrionia.Gastranaerophilales.Gastranaerophilales'
p29
(lp30
F286.6884413363779
aF0.0
aF0.0
aF50.78462241633235
aF0.0
aF0.0
aF519.2647211548448
aF0.0
aF0.0
aF0.0
aF0.0
aF1325.5374782103424
aF0.0
aF0.0
aF0.0
asS'Bacteria.Firmicutes.Clostridia.Clostridiales.Clostridiaceae.Candidatus_Arthromitus'
p31
(lp32
F0.0
aF0.0
aF0.0
aF736.377025036819
aF0.0
aF0.0
aF0.0
aF0.0
aF0.0
aF0.0
aF0.0
aF599.2155723416618
aF0.0
aF0.0
aF0.0
asS'Bacteria.Firmicutes.Clostridia.Lachnospirales.Lachnospiraceae.Butyrivibrio'
p33
(lp34
F0.0
aF0.0
aF0.0
aF0.0
aF286.5534780428397
aF1281.0397631348994
aF0.0
aF0.0
aF0.0
aF0.0
aF0.0
aF0.0
aF0.0
aF0.0
aF0.0
asS'Bacteria.Acidobacteriota.Acidobacteriae.Bryobacterales'
p35
(lp36
F0.0
aF0.0
aF0.0
aF0.0
aF0.0
aF0.0
aF0.0
aF0.0
aF0.0
aF0.0
aF0.0
aF0.0
aF685.9886811867601
aF0.0
aF0.0
asS'Bacteria.Proteobacteria.Alphaproteobacteria.Caulobacterales.Caulobacteraceae.Brevundimonas'
p37
(lp38
F0.0
aF0.0
aF0.0
aF0.0
aF0.0
aF0.0
aF0.0
aF961.5384615384618
aF0.0
aF632.9889329031731
aF0.0
aF0.0
aF0.0
aF0.0
aF0.0
asS'Bacteria.Actinobacteriota.Actinobacteria.Streptomycetales'
p39
(lp40
F0.0
aF0.0
aF0.0
aF0.0
aF0.0
aF0.0
aF0.0
aF0.0
aF0.0
aF0.0
aF0.0
aF0.0
aF0.0
aF0.0
aF3489.1835310537335
asS'Bacteria.Firmicutes.Clostridia.Lachnospirales.Lachnospiraceae.Lachnospiraceae_UCG_006'
p41
(lp42
F2324.2241494056348
aF3874.1177094942427
aF5485.232067510548
aF1149.0020821695193
aF4549.036463930081
aF3401.966523292018
aF3219.4412711600376
aF0.0
aF0.0
aF0.0
aF0.0
aF4430.563625798953
aF0.0
aF0.0
aF0.0
asS'Bacteria.Proteobacteria.Alphaproteobacteria.Sphingomonadales.Sphingomonadaceae'
p43
(lp44
F0.0
aF0.0
aF94.9367088607595
aF0.0
aF0.0
aF0.0
aF0.0
aF0.0
aF0.0
aF0.0
aF0.0
aF0.0
aF0.0
aF0.0
aF0.0
asS'Bacteria.Proteobacteria.Gammaproteobacteria.Pseudomonadales.Moraxellaceae.Psychrobacter'
p45
(lp46
F0.0
aF0.0
aF0.0
aF82.52501142654006
aF0.0
aF0.0
aF0.0
aF0.0
aF0.0
aF0.0
aF0.0
aF0.0
aF0.0
aF0.0
aF0.0
asS'Bacteria.Bacteroidota.Bacteroidia.Bacteroidales.Prevotellaceae.Prevotellaceae_UCG_003'
p47
(lp48
F0.0
aF0.0
aF0.0
aF0.0
aF0.0
aF0.0
aF0.0
aF0.0
aF0.0
aF0.0
aF0.0
aF0.0
aF0.0
aF0.0
aF3140.2651779483604
asS'Bacteria.Proteobacteria.Gammaproteobacteria.Xanthomonadales.Xanthomonadaceae.Stenotrophomonas'
p49
(lp50
F0.0
aF0.0
aF0.0
aF0.0
aF89.5479618883874
aF0.0
aF0.0
aF0.0
aF0.0
aF0.0
aF0.0
aF0.0
aF0.0
aF0.0
aF0.0
asS'Bacteria.Bacteroidota.Bacteroidia.Bacteroidales.Prevotellaceae.Prevotellaceae_UCG_001'
p51
(lp52
F2313.9852765007645
aF439.7237321930843
aF0.0
aF5027.677619216903
aF304.46307042051717
aF0.0
aF0.0
aF8653.846153846156
aF0.0
aF592.1509372320006
aF0.0
aF2560.2847181870998
aF5087.749385468471
aF761.955985836583
aF0.0
asS'Bacteria.Firmicutes.Clostridia.Lachnospirales.Lachnospiraceae.Lachnospiraceae_UCG_001'
p53
(lp54
F0.0
aF1539.033062675795
aF527.4261603375527
aF1656.8483063328429
aF2811.806003295364
aF5709.534838342963
aF1557.7941634645342
aF0.0
aF0.0
aF0.0
aF0.0
aF0.0
aF0.0
aF0.0
aF0.0
asS'Bacteria.Proteobacteria.Gammaproteobacteria'
p55
(lp56
F6634.789642356173
aF11470.724255312698
aF13755.274261603376
aF3719.973591996344
aF12088.974854932298
aF9662.942319275831
aF21912.971232734446
aF122041.42011834323
aF35341.69025475132
aF23420.590517417404
aF31832.298136645968
aF12692.475305055199
aF30526.49631281082
aF29268.074044193454
aF63503.14026517795
asS'Bacteria.Chloroflexi.Anaerolineae'
p57
(lp58
F0.0
aF0.0
aF0.0
aF0.0
aF0.0
aF0.0
aF0.0
aF0.0
aF0.0
aF0.0
aF0.0
aF0.0
aF457.3257874578401
aF0.0
aF0.0
asS'Bacteria.Firmicutes.Clostridia.Lachnospirales.Lachnospiraceae.Sellimonas'
p59
(lp60
F0.0
aF0.0
aF0.0
aF0.0
aF0.0
aF0.0
aF0.0
aF0.0
aF0.0
aF0.0
aF0.0
aF0.0
aF0.0
aF672.314105149926
aF0.0
asS'Bacteria.Firmicutes.Clostridia.Lachnospirales.Lachnospiraceae.Tyzzerella'
p61
(lp62
F0.0
aF0.0
aF0.0
aF120.61347823878933
aF0.0
aF0.0
aF0.0
aF0.0
aF0.0
aF0.0
aF0.0
aF0.0
aF0.0
aF0.0
aF0.0
asS'Bacteria.Bacteroidota'
p63
(lp64
F391780.23283197003
aF34624.45318837614
aF45580.168776371305
aF256900.3605708193
aF16835.016835016828
aF12937.653236958424
aF1973.20594038841
aF210576.9230769231
aF32915.48726243429
aF22093.355658104298
aF569616.9772256728
aF89392.0685647879
aF511576.05899502634
aF115638.02608578729
aF90369.85345429169
asS'Bacteria.Firmicutes.Bacilli.Erysipelotrichales.Erysipelatoclostridiaceae.Erysipelotrichaceae_UCG_003'
p65
(lp66
F0.0
aF0.0
aF0.0
aF0.0
aF0.0
aF0.0
aF1557.7941634645342
aF0.0
aF0.0
aF0.0
aF0.0
aF5483.73038930854
aF0.0
aF0.0
aF0.0
asS'Bacteria.Firmicutes.Clostridia.Eubacteriales'
p67
(lp68
F327.6439329558604
aF75.81443658501453
aF189.873417721519
aF0.0
aF358.1918475535496
aF0.0
aF0.0
aF0.0
aF404.3671653861706
aF0.0
aF0.0
aF0.0
aF0.0
aF1703.1957330464795
aF0.0
asS'Bacteria.Bacteroidota.Bacteroidia.Chitinophagales.Chitinophagaceae'
p69
(lp70
F0.0
aF0.0
aF0.0
aF0.0
aF0.0
aF0.0
aF0.0
aF0.0
aF0.0
aF0.0
aF0.0
aF0.0
aF857.4858514834501
aF0.0
aF0.0
asS'Bacteria.Bacteroidota.Bacteroidia.Bacteroidales.Rikenellaceae'
p71
(lp72
F3286.678202463475
aF98.5587675605189
aF0.0
aF3923.1120816616735
aF608.9261408410343
aF322.380867543882
aF0.0
aF0.0
aF0.0
aF204.1899783558623
aF0.0
aF1143.9570017431722
aF0.0
aF4302.810272959527
aF0.0
asS'Bacteria.Acidobacteriota'
p73
(lp74
F0.0
aF0.0
aF0.0
aF0.0
aF0.0
aF0.0
aF0.0
aF0.0
aF0.0
aF0.0
aF0.0
aF0.0
aF685.9886811867601
aF0.0
aF0.0
asS'Bacteria.Verrucomicrobiota.Verrucomicrobiae.Verrucomicrobiales.Akkermansiaceae.Akkermansia'
p75
(lp76
F91381.94067597044
aF3495.0455265691703
aF10991.5611814346
aF87171.80437763447
aF5354.968120925567
aF6159.171311496272
aF0.0
aF887.5739644970416
aF21188.839466235342
aF24400.702413525545
aF10093.167701863355
aF1071.3248111563041
aF914.6515749156802
aF55533.1450853839
aF142009.76971388696
asS'Bacteria.Bacteroidota.Bacteroidia.Bacteroidales.Muribaculaceae.Muribaculum'
p77
(lp78
F327.6439329558604
aF0.0
aF0.0
aF876.034736681733
aF0.0
aF0.0
aF0.0
aF0.0
aF0.0
aF0.0
aF0.0
aF0.0
aF0.0
aF0.0
aF0.0
asS'Bacteria.Bacteroidota.Bacteroidia.Bacteroidales.Rikenellaceae.Alistipes'
p79
(lp80
F3286.678202463475
aF98.5587675605189
aF0.0
aF3923.1120816616735
aF608.9261408410343
aF322.380867543882
aF0.0
aF0.0
aF0.0
aF204.1899783558623
aF0.0
aF1143.9570017431722
aF0.0
aF4302.810272959527
aF0.0
asS'Bacteria.Firmicutes.Clostridia.Lachnospirales.Lachnospiraceae.Lachnospiraceae_NK4A136_group'
p81
(lp82
F5375.408275057085
aF22729.168088187358
aF34820.675105485236
aF157083.185211518
aF54731.71430618238
aF53260.712801065565
aF0.0
aF4215.976331360948
aF12292.761827739589
aF3144.5256666802793
aF14751.552795031055
aF4557.669959325972
aF8346.19562110558
aF5333.69190085608
aF0.0
asS'Bacteria.Firmicutes.Bacilli.Exiguobacterales.Exiguobacteraceae.Exiguobacterium'
p83
(lp84
F0.0
aF0.0
aF0.0
aF0.0
aF0.0
aF0.0
aF0.0
aF0.0
aF0.0
aF0.0
aF0.0
aF0.0
aF0.0
aF717.1350454932546
aF0.0
asS'Bacteria.Firmicutes.Clostridia.Lachnospirales.Lachnospiraceae.Roseburia'
p85
(lp86
F1013.6484175821931
aF553.4453870706061
aF253.16455696202533
aF24059.21486973745
aF770.1124722401316
aF1790.062185572608
aF2077.058884619379
aF0.0
aF0.0
aF0.0
aF0.0
aF6101.104009296919
aF0.0
aF358.5675227466273
aF0.0
asS'Bacteria.Firmicutes.Clostridia.Lachnospirales.Lachnospiraceae.Anaerostipes'
p87
(lp88
F0.0
aF0.0
aF0.0
aF0.0
aF0.0
aF0.0
aF0.0
aF0.0
aF0.0
aF0.0
aF0.0
aF3050.5520046484594
aF0.0
aF0.0
aF0.0
asS'Bacteria.Firmicutes.Clostridia.Peptococcales.Peptococcaceae.Peptococcus'
p89
(lp90
F0.0
aF0.0
aF0.0
aF0.0
aF0.0
aF203.6089689750834
aF0.0
aF0.0
aF0.0
aF81.67599134234491
aF0.0
aF0.0
aF0.0
aF0.0
aF0.0
asS'Bacteria.Firmicutes.Bacilli.Erysipelotrichales.Erysipelotrichaceae.uncultured'
p91
(lp92
F6962.433575312033
aF2395.736196086459
aF2848.1012658227846
aF691.9404804225283
aF805.9316569954865
aF330.8645745845105
aF2596.3236057742233
aF26035.502958579887
aF0.0
aF530.893943725242
aF0.0
aF2669.233004067402
aF14462.928028354192
aF0.0
aF0.0
asS'Bacteria.Firmicutes.Clostridia.Lachnospirales.Lachnospiraceae.GCA_900066575'
p93
(lp94
F215.01633100228338
aF242.6061970720465
aF0.0
aF8284.241531664215
aF0.0
aF229.0600900969688
aF0.0
aF0.0
aF0.0
aF0.0
aF0.0
aF853.4282393957
aF0.0
aF0.0
aF0.0
asS'Bacteria.Firmicutes.Clostridia.Lachnospirales.Lachnospiraceae.Lachnospiraceae_NC2004_group'
p95
(lp96
F0.0
aF0.0
aF0.0
aF380.8846681224926
aF0.0
aF0.0
aF0.0
aF0.0
aF0.0
aF0.0
aF0.0
aF0.0
aF0.0
aF0.0
aF0.0
asS'Bacteria.Cyanobacteria.Cyanobacteriia.Chloroplast.Chloroplast'
p97
(lp98
F0.0
aF0.0
aF0.0
aF0.0
aF0.0
aF0.0
aF0.0
aF0.0
aF0.0
aF0.0
aF0.0
aF0.0
aF457.3257874578401
aF0.0
aF0.0
asS'Bacteria.Actinobacteriota.Actinobacteria.Bifidobacteriales.Bifidobacteriaceae.Bifidobacterium'
p99
(lp100
F19156.931205012963
aF10477.55513604901
aF5991.561181434599
aF1491.7982834797626
aF5945.984669388924
aF6736.063390259009
aF7685.117873091703
aF10355.02958579882
aF4609.785685402345
aF163.35198268468983
aF0.0
aF0.0
aF13891.270794031892
aF49168.571556631265
aF5582.6936496859735
asS'Bacteria.Bacteroidota.Bacteroidia'
p101
(lp102
F391780.23283197003
aF34624.45318837614
aF45580.168776371305
aF256900.3605708193
aF16835.016835016828
aF12937.653236958424
aF1973.20594038841
aF210576.9230769231
aF32915.48726243429
aF22093.355658104298
aF569616.9772256728
aF89392.0685647879
aF511576.05899502634
aF115638.02608578729
aF90369.85345429169
asS'Bacteria.Firmicutes.Bacilli.Lactobacillales.Lactobacillaceae.Lactobacillus'
p103
(lp104
F348.12167876560164
aF18301.60499162251
aF48797.46835443038
aF1149.0020821695193
aF25861.451393366282
aF59776.199808268226
aF27417.1772769758
aF1923.0769230769235
aF1779.215527699151
aF1776.452811696002
aF0.0
aF3486.345148169668
aF13776.939347167432
aF4706.198736049483
aF0.0
asS'Bacteria.Firmicutes.Bacilli.Staphylococcales.Staphylococcaceae.Staphylococcus'
p105
(lp106
F0.0
aF113.7216548775218
aF0.0
aF0.0
aF0.0
aF0.0
aF1765.5000519264722
aF0.0
aF1617.4686615446824
aF0.0
aF0.0
aF562.8994770482277
aF1943.6345966958202
aF0.0
aF0.0
asS'Bacteria.Firmicutes.Bacilli.RF39.RF39.RF39'
p107
(lp108
F3317.3948211780867
aF1569.358837309801
aF1793.2489451476795
aF2336.092631151288
aF5713.159968479115
aF7016.0257225997475
aF4257.970713469726
aF26775.147928994087
aF12211.888394662354
aF2082.7377792297957
aF2846.790890269151
aF3450.0290528762343
aF14062.767964328581
aF1120.5235085832103
aF0.0
asS'Bacteria.Campylobacterota.Campylobacteria.Campylobacterales'
p109
(lp110
F0.0
aF0.0
aF0.0
aF0.0
aF0.0
aF0.0
aF0.0
aF0.0
aF0.0
aF0.0
aF0.0
aF2306.072051133062
aF0.0
aF0.0
aF0.0
asS'Bacteria.Firmicutes.Bacilli.Erysipelotrichales.Erysipelotrichaceae.Allobaculum'
p111
(lp112
F337.8828058607311
aF0.0
aF0.0
aF1352.1405718348487
aF0.0
aF0.0
aF0.0
aF7914.201183431955
aF17064.2943792964
aF1041.3688896148979
aF0.0
aF1307.3794305636254
aF1714.9717029669002
aF20214.244094841113
aF55826.93649685974
asS'Bacteria.Proteobacteria.Alphaproteobacteria.Rhizobiales.Rhizobiaceae'
p113
(lp114
F0.0
aF0.0
aF221.51898734177215
aF0.0
aF0.0
aF135.73931265005558
aF934.6764980787206
aF6065.088757396451
aF646.987464617873
aF1286.3968636419324
aF0.0
aF0.0
aF0.0
aF224.10470171664204
aF0.0
asS'Bacteria.Proteobacteria.Alphaproteobacteria.Rhodobacterales'
p115
(lp116
F0.0
aF0.0
aF0.0
aF0.0
aF0.0
aF0.0
aF0.0
aF0.0
aF0.0
aF0.0
aF0.0
aF0.0
aF1257.6459155090604
aF0.0
aF0.0
asS'Bacteria.Desulfobacterota'
p117
(lp118
F0.0
aF0.0
aF0.0
aF0.0
aF0.0
aF0.0
aF1869.352996157441
aF4585.798816568048
aF0.0
aF0.0
aF0.0
aF12038.785589773384
aF14462.928028354192
aF0.0
aF0.0
asS'Bacteria.Firmicutes.Bacilli.Lactobacillales.Aerococcaceae.Aerococcus'
p119
(lp120
F0.0
aF0.0
aF0.0
aF0.0
aF0.0
aF0.0
aF1246.2353307716273
aF813.6094674556215
aF0.0
aF0.0
aF0.0
aF272.3707147007553
aF0.0
aF0.0
aF0.0
asS'Bacteria.Actinobacteriota.Coriobacteriia.Coriobacteriales.uncultured.uncultured'
p121
(lp122
F0.0
aF0.0
aF780.590717299578
aF596.719313391905
aF268.6438856651622
aF220.57638305634032
aF5296.500155779417
aF5917.159763313611
aF7925.596441568945
aF3900.0285865969695
aF3364.3892339544514
aF7245.061011040091
aF2400.96038415366
aF3182.286764376317
aF0.0
asS'Bacteria.Firmicutes.Bacilli.Erysipelotrichales.Erysipelotrichaceae.Faecalibaculum'
p123
(lp124
F5682.574462203203
aF712.6557038991366
aF717.2995780590718
aF774.4654918490683
aF3492.3705136471085
aF2426.3402136197437
aF0.0
aF0.0
aF0.0
aF1735.6148160248295
aF0.0
aF635.5316676350958
aF0.0
aF0.0
aF0.0
asS'Bacteria.Firmicutes.Clostridia.Monoglobales'
p125
(lp126
F8109.187340657545
aF4018.1651390057705
aF9272.151898734177
aF0.0
aF197.0055161544523
aF67.86965632502779
aF2284.764773081317
aF0.0
aF79094.21754953498
aF1960.2237922162778
aF26397.515527950312
aF11566.676350958742
aF14405.762304921962
aF30343.776612433332
aF7327.28541521284
asS'Bacteria.Cyanobacteria.Vampirivibrionia'
p127
(lp128
F286.6884413363779
aF0.0
aF0.0
aF50.78462241633235
aF0.0
aF0.0
aF519.2647211548448
aF0.0
aF0.0
aF0.0
aF0.0
aF1325.5374782103424
aF0.0
aF0.0
aF0.0
asS'Bacteria.Actinobacteriota.Coriobacteriia.Coriobacteriales.Eggerthellaceae.Gordonibacter'
p129
(lp130
F0.0
aF341.1649646325654
aF0.0
aF215.83464526941248
aF0.0
aF127.25560560942709
aF0.0
aF0.0
aF0.0
aF0.0
aF0.0
aF0.0
aF1200.48019207683
aF0.0
aF0.0
asS'Bacteria.Cyanobacteria.Vampirivibrionia.Gastranaerophilales'
p131
(lp132
F286.6884413363779
aF0.0
aF0.0
aF50.78462241633235
aF0.0
aF0.0
aF519.2647211548448
aF0.0
aF0.0
aF0.0
aF0.0
aF1325.5374782103424
aF0.0
aF0.0
aF0.0
asS'Bacteria.Bacteroidota.Bacteroidia.Bacteroidales.Muribaculaceae.Muribaculaceae'
p133
(lp134
F375674.48575260857
aF32274.20565424069
aF45316.45569620253
aF236237.367325174
aF15670.893330467794
aF11631.162352701636
aF1973.20594038841
aF165532.54437869825
aF30408.41083704003
aF19561.39992649161
aF569616.9772256728
aF78951.1911679256
aF465729.14880237787
aF82111.96270897765
aF70481.50732728542
asS'Bacteria.Firmicutes.Clostridia.Oscillospirales.uncultured'
p135
(lp136
F0.0
aF0.0
aF0.0
aF0.0
aF0.0
aF0.0
aF0.0
aF0.0
aF0.0
aF0.0
aF0.0
aF326.84485764090635
aF0.0
aF0.0
aF0.0
asS'Bacteria.Deferribacterota'
p137
(lp138
F0.0
aF0.0
aF0.0
aF0.0
aF411.920624686582
aF0.0
aF0.0
aF0.0
aF0.0
aF0.0
aF0.0
aF0.0
aF0.0
aF0.0
aF0.0
asS'Bacteria.Actinobacteriota.Coriobacteriia.Coriobacteriales'
p139
(lp140
F8201.33719680138
aF3350.998097057642
aF6708.860759493672
aF10728.251485450208
aF13450.103875635788
aF10579.182679663709
aF14020.147471180806
aF14940.82840236687
aF18924.383340072785
aF19193.857965451054
aF3364.3892339544514
aF21807.815223707144
aF7831.704110215512
aF22634.574873380847
aF23377.529658060015
asS'Bacteria.Proteobacteria.Alphaproteobacteria.Rhizobiales.Rhizobiaceae.Allorhizobium_Neorhizobium_Pararhizobium_Rhizobium'
p141
(lp142
F0.0
aF0.0
aF221.51898734177215
aF0.0
aF0.0
aF135.73931265005558
aF934.6764980787206
aF6065.088757396451
aF646.987464617873
aF1286.3968636419324
aF0.0
aF0.0
aF0.0
aF224.10470171664204
aF0.0
asS'Bacteria.Bacteroidota.Bacteroidia.Bacteroidales.Prevotellaceae.Prevotellaceae_NK3B31_group'
p143
(lp144
F6911.239210787681
aF1084.146443165708
aF263.71308016877634
aF450.7135239449496
aF0.0
aF110.28819152817016
aF0.0
aF1405.3254437869825
aF2507.076425394258
aF306.28496753379346
aF0.0
aF3577.135386403253
aF8460.52706797004
aF18869.61588454126
aF13956.734124214934
asS'Bacteria.Bacteroidota.Bacteroidia.Chitinophagales.Chitinophagaceae.Sediminibacterium'
p145
(lp146
F0.0
aF0.0
aF0.0
aF0.0
aF0.0
aF0.0
aF0.0
aF0.0
aF0.0
aF0.0
aF0.0
aF0.0
aF857.4858514834501
aF0.0
aF0.0
asS'Bacteria.Chloroflexi.Anaerolineae.Anaerolineales.Anaerolineaceae.uncultured'
p147
(lp148
F0.0
aF0.0
aF0.0
aF0.0
aF0.0
aF0.0
aF0.0
aF0.0
aF0.0
aF0.0
aF0.0
aF0.0
aF457.3257874578401
aF0.0
aF0.0
asS'Bacteria.Firmicutes.Clostridia.Lachnospirales.Lachnospiraceae.Frisingicoccus'
p149
(lp150
F1279.8591131088297
aF0.0
aF0.0
aF564.9789243816973
aF0.0
aF0.0
aF0.0
aF7174.556213017753
aF1213.101496158512
aF0.0
aF0.0
aF0.0
aF0.0
aF0.0
aF0.0
asS'Bacteria.Desulfobacterota.Desulfovibrionia'
p151
(lp152
F0.0
aF0.0
aF0.0
aF0.0
aF0.0
aF0.0
aF1869.352996157441
aF4585.798816568048
aF0.0
aF0.0
aF0.0
aF12038.785589773384
aF14462.928028354192
aF0.0
aF0.0
asS'Bacteria.Firmicutes.Clostridia.Clostridia_UCG_014.Clostridia_UCG_014'
p153
(lp154
F238002.60067371797
aF57126.17796680845
aF100316.45569620252
aF92523.23396475549
aF220789.45483200796
aF52386.89097588082
aF69996.88441167306
aF278476.3313609468
aF267852.8103517994
aF36488.74913219259
aF62111.801242236026
aF336214.41022661235
aF129366.03212713651
aF97530.36618708262
aF74319.60921144452
asS'Bacteria.Firmicutes.Clostridia.Oscillospirales.Oscillospiraceae.Flavonifractor'
p155
(lp156
F0.0
aF0.0
aF0.0
aF311.0558123000356
aF0.0
aF0.0
aF0.0
aF0.0
aF0.0
aF0.0
aF0.0
aF0.0
aF0.0
aF0.0
aF0.0
asS'Bacteria.Actinobacteriota.Coriobacteriia.Coriobacteriales.Coriobacteriales_Incertae_Sedis'
p157
(lp158
F0.0
aF0.0
aF0.0
aF0.0
aF0.0
aF0.0
aF0.0
aF443.7869822485208
aF0.0
aF387.96095887613836
aF0.0
aF508.4253341080765
aF0.0
aF0.0
aF1744.5917655268668
asS'Bacteria.Firmicutes.Clostridia.Oscillospirales.Oscillospiraceae.NK4A214_group'
p159
(lp160
F4617.731680096658
aF0.0
aF0.0
aF8919.049311868368
aF322.37266279819465
aF797.4684618190765
aF0.0
aF0.0
aF7197.735543873838
aF0.0
aF0.0
aF5302.14991284137
aF3201.280512204881
aF2375.509838196406
aF0.0
asS'Bacteria.Bacteroidota.Bacteroidia.Bacteroidales.Prevotellaceae.Prevotella_9'
p161
(lp162
F0.0
aF0.0
aF0.0
aF0.0
aF0.0
aF0.0
aF0.0
aF0.0
aF0.0
aF0.0
aF0.0
aF599.2155723416618
aF0.0
aF0.0
aF0.0
asS'Bacteria.Desulfobacterota.Desulfovibrionia.Desulfovibrionales'
p163
(lp164
F0.0
aF0.0
aF0.0
aF0.0
aF0.0
aF0.0
aF1869.352996157441
aF4585.798816568048
aF0.0
aF0.0
aF0.0
aF12038.785589773384
aF14462.928028354192
aF0.0
aF0.0
asS'Bacteria.Actinobacteriota.Coriobacteriia.Coriobacteriales.Coriobacteriales_Incertae_Sedis.uncultured'
p165
(lp166
F0.0
aF0.0
aF0.0
aF0.0
aF0.0
aF0.0
aF0.0
aF443.7869822485208
aF0.0
aF387.96095887613836
aF0.0
aF508.4253341080765
aF0.0
aF0.0
aF1744.5917655268668
asS'Bacteria.Deferribacterota.Deferribacteres.Deferribacterales.Deferribacteraceae.Mucispirillum'
p167
(lp168
F0.0
aF0.0
aF0.0
aF0.0
aF411.920624686582
aF0.0
aF0.0
aF0.0
aF0.0
aF0.0
aF0.0
aF0.0
aF0.0
aF0.0
aF0.0
asS'Bacteria.Firmicutes.Bacilli.RF39.RF39'
p169
(lp170
F3317.3948211780867
aF1569.358837309801
aF1793.2489451476795
aF2336.092631151288
aF5713.159968479115
aF7016.0257225997475
aF4257.970713469726
aF26775.147928994087
aF12211.888394662354
aF2082.7377792297957
aF2846.790890269151
aF3450.0290528762343
aF14062.767964328581
aF1120.5235085832103
aF0.0
asS'Bacteria.Proteobacteria.Gammaproteobacteria.Pseudomonadales.Moraxellaceae.Acinetobacter'
p171
(lp172
F0.0
aF0.0
aF0.0
aF0.0
aF53.72877713303244
aF0.0
aF0.0
aF0.0
aF0.0
aF2736.1457099685545
aF0.0
aF0.0
aF0.0
aF672.314105149926
aF0.0
asS'Bacteria.Firmicutes.Bacilli'
p173
(lp174
F49320.65078276187
aF111341.08156875236
aF124715.18987341772
aF18517.342948555182
aF126047.7111540941
aF178352.9731151324
aF176030.74047149238
aF115754.43786982252
aF54589.56732713304
aF97786.58063462246
aF8281.573498964804
aF29997.094712376518
aF80432.17286914763
aF37649.58988839587
aF71179.34403349615
asS'Bacteria.Firmicutes.Clostridia.Clostridia_vadinBB60_group'
p175
(lp176
F307.1661871461191
aF0.0
aF158.22784810126583
aF387.23274592453413
aF340.28225517587214
aF398.73423090953827
aF0.0
aF0.0
aF566.1140315406388
aF0.0
aF0.0
aF562.8994770482277
aF0.0
aF0.0
aF0.0
asS'Bacteria.Bacteroidota.Bacteroidia.Chitinophagales'
p177
(lp178
F0.0
aF0.0
aF0.0
aF0.0
aF0.0
aF0.0
aF0.0
aF0.0
aF0.0
aF0.0
aF0.0
aF0.0
aF857.4858514834501
aF0.0
aF0.0
asS'Bacteria.Proteobacteria.Gammaproteobacteria.Burkholderiales.Alcaligenaceae.Achromobacter'
p179
(lp180
F102.38872904870638
aF75.81443658501453
aF179.32489451476795
aF158.70194505103856
aF0.0
aF178.15784785319795
aF0.0
aF3476.3313609467464
aF0.0
aF714.664924245518
aF0.0
aF0.0
aF0.0
aF896.4188068665682
aF0.0
asS'Bacteria.Firmicutes.Clostridia.Oscillospirales.Oscillospiraceae.Colidextribacter'
p181
(lp182
F4218.415636806702
aF197.1175351210378
aF1002.1097046413502
aF5795.795033263928
aF0.0
aF670.2128562096494
aF0.0
aF0.0
aF0.0
aF0.0
aF0.0
aF9296.920395119114
aF5659.4066197907705
aF0.0
aF0.0
asS'Bacteria.Bacteroidota.Bacteroidia.Bacteroidales.Tannerellaceae'
p183
(lp184
F645.0489930068502
aF280.5134153645538
aF0.0
aF7090.802904880405
aF0.0
aF152.70672673131253
aF0.0
aF1109.467455621302
aF0.0
aF0.0
aF0.0
aF217.89657176060425
aF0.0
aF5423.333781542738
aF0.0
asS'Bacteria.Proteobacteria.Gammaproteobacteria.Burkholderiales.Sutterellaceae'
p185
(lp186
F1064.8427821065463
aF0.0
aF0.0
aF107.91732263470624
aF0.0
aF0.0
aF0.0
aF2810.650887573965
aF0.0
aF0.0
aF0.0
aF472.10923881464254
aF0.0
aF8022.948321455785
aF0.0
asS'Bacteria.Patescibacteria.Saccharimonadia.Saccharimonadales'
p187
(lp188
F0.0
aF0.0
aF0.0
aF0.0
aF0.0
aF0.0
aF0.0
aF0.0
aF0.0
aF0.0
aF0.0
aF108.94828588030212
aF0.0
aF0.0
aF0.0
asS'Bacteria.Actinobacteriota.Actinobacteria.Pseudonocardiales.Pseudonocardiaceae.Prauserella'
p189
(lp190
F0.0
aF0.0
aF0.0
aF0.0
aF0.0
aF101.8044844875417
aF0.0
aF0.0
aF0.0
aF0.0
aF0.0
aF0.0
aF0.0
aF0.0
aF0.0
asS'Bacteria.Patescibacteria.Saccharimonadia.Saccharimonadales.Saccharimonadaceae'
p191
(lp192
F3798.6218477070065
aF5625.431194608079
aF15348.101265822785
aF2805.850388502362
aF1182.0330969267136
aF3834.63558236407
aF3738.705992314882
aF15088.757396449708
aF32511.12009704812
aF551.3129415608282
aF12681.159420289856
aF2306.072051133062
aF28468.530269250547
aF851.5978665232398
aF0.0
asS'Bacteria.Proteobacteria.Gammaproteobacteria.Xanthomonadales.Xanthomonadaceae'
p193
(lp194
F0.0
aF0.0
aF0.0
aF0.0
aF89.5479618883874
aF0.0
aF0.0
aF0.0
aF0.0
aF0.0
aF0.0
aF0.0
aF0.0
aF0.0
aF0.0
asS'Bacteria.Firmicutes.Clostridia.Peptostreptococcales_Tissierellales.Anaerovoracaceae.Anaerovorax'
p195
(lp196
F0.0
aF0.0
aF0.0
aF0.0
aF0.0
aF0.0
aF0.0
aF0.0
aF0.0
aF204.1899783558623
aF0.0
aF0.0
aF0.0
aF0.0
aF0.0
asS'Bacteria.Proteobacteria.Alphaproteobacteria.Rhizobiales'
p197
(lp198
F61.43323742922382
aF310.83918999855956
aF221.51898734177215
aF0.0
aF0.0
aF135.73931265005558
aF934.6764980787206
aF6065.088757396451
aF646.987464617873
aF1286.3968636419324
aF0.0
aF0.0
aF0.0
aF224.10470171664204
aF0.0
asS'Bacteria.Firmicutes.Clostridia.Lachnospirales.Defluviitaleaceae.Defluviitaleaceae_UCG_011'
p199
(lp200
F0.0
aF0.0
aF0.0
aF82.52501142654006
aF555.1973637080018
aF0.0
aF0.0
aF0.0
aF0.0
aF0.0
aF0.0
aF1289.2213829169084
aF0.0
aF0.0
aF0.0
asS'Bacteria.Firmicutes.Bacilli.RF39'
p201
(lp202
F3317.3948211780867
aF1569.358837309801
aF1793.2489451476795
aF2336.092631151288
aF5713.159968479115
aF7016.0257225997475
aF4257.970713469726
aF26775.147928994087
aF12211.888394662354
aF2082.7377792297957
aF2846.790890269151
aF3450.0290528762343
aF14062.767964328581
aF1120.5235085832103
aF0.0
asS'Bacteria.Firmicutes.Clostridia.Peptostreptococcales_Tissierellales'
p203
(lp204
F0.0
aF197.1175351210378
aF253.16455696202533
aF0.0
aF805.9316569954865
aF347.8319886657675
aF0.0
aF0.0
aF0.0
aF0.0
aF0.0
aF217.89657176060425
aF0.0
aF0.0
aF0.0
asS'Bacteria.Actinobacteriota.Actinobacteria.Corynebacteriales'
p205
(lp206
F0.0
aF0.0
aF0.0
aF0.0
aF0.0
aF0.0
aF5919.6178211652295
aF0.0
aF0.0
aF0.0
aF0.0
aF0.0
aF0.0
aF0.0
aF0.0
asS'Bacteria.Verrucomicrobiota'
p207
(lp208
F91381.94067597044
aF3495.0455265691703
aF10991.5611814346
aF87171.80437763447
aF5354.968120925567
aF6159.171311496272
aF0.0
aF887.5739644970416
aF21188.839466235342
aF24400.702413525545
aF10093.167701863355
aF1071.3248111563041
aF914.6515749156802
aF55533.1450853839
aF142009.76971388696
asS'Bacteria.Firmicutes.Bacilli.Staphylococcales'
p209
(lp210
F0.0
aF113.7216548775218
aF0.0
aF0.0
aF0.0
aF0.0
aF5711.911932703292
aF0.0
aF1617.4686615446824
aF0.0
aF0.0
aF907.902382335851
aF1943.6345966958202
aF0.0
aF0.0
asS'Bacteria.Firmicutes.Clostridia.Christensenellales.Christensenellaceae.Christensenellaceae_R_7_group'
p211
(lp212
F4761.075900764847
aF576.1897180461106
aF2035.8649789029535
aF4786.450662739324
aF788.0220646178092
aF525.9898365189654
aF41541.17769238757
aF29807.692307692316
aF3720.17792155277
aF3859.190590925797
aF0.0
aF13872.748402091804
aF21437.146287086252
aF1568.7329120164943
aF0.0
asS'Bacteria.Firmicutes.Clostridia.Oscillospirales.Ruminococcaceae.Anaerotruncus'
p213
(lp214
F0.0
aF0.0
aF0.0
aF311.0558123000356
aF0.0
aF0.0
aF0.0
aF0.0
aF0.0
aF0.0
aF0.0
aF0.0
aF0.0
aF0.0
aF0.0
asS'Bacteria.Actinobacteriota.Actinobacteria.Micrococcales.Dermabacteraceae'
p215
(lp216
F0.0
aF0.0
aF0.0
aF0.0
aF0.0
aF0.0
aF0.0
aF0.0
aF0.0
aF0.0
aF0.0
aF217.89657176060425
aF0.0
aF0.0
aF0.0
asS'Bacteria.Bacteroidota.Bacteroidia.Bacteroidales'
p217
(lp218
F391780.23283197003
aF34624.45318837614
aF45580.168776371305
aF256900.3605708193
aF16835.016835016828
aF12937.653236958424
aF1973.20594038841
aF210576.9230769231
aF32915.48726243429
aF20847.79679013354
aF569616.9772256728
aF89137.85589773385
aF510718.573143543
aF115638.02608578729
aF90369.85345429169
asS'Bacteria.Proteobacteria.Gammaproteobacteria.Pseudomonadales'
p219
(lp220
F389.07717038508423
aF758.1443658501454
aF3259.493670886076
aF355.4923569143264
aF1934.2359767891678
aF458.1201801939376
aF0.0
aF27884.615384615394
aF970.4811969268095
aF5411.03442643035
aF0.0
aF1634.2242882045318
aF0.0
aF2778.8983012863614
aF15003.489183531054
asS'Bacteria.Actinobacteriota.Coriobacteriia'
p221
(lp222
F8201.33719680138
aF3350.998097057642
aF6708.860759493672
aF10728.251485450208
aF13450.103875635788
aF10579.182679663709
aF14020.147471180806
aF14940.82840236687
aF18924.383340072785
aF19193.857965451054
aF3364.3892339544514
aF21807.815223707144
aF7831.704110215512
aF22634.574873380847
aF23377.529658060015
asS'Bacteria.Firmicutes.Clostridia.Lachnospirales.Lachnospiraceae.Tuzzerella'
p223
(lp224
F163.8219664779302
aF0.0
aF0.0
aF0.0
aF197.0055161544523
aF0.0
aF0.0
aF0.0
aF0.0
aF0.0
aF0.0
aF0.0
aF0.0
aF0.0
aF0.0
asS'Bacteria.Deferribacterota.Deferribacteres.Deferribacterales'
p225
(lp226
F0.0
aF0.0
aF0.0
aF0.0
aF411.920624686582
aF0.0
aF0.0
aF0.0
aF0.0
aF0.0
aF0.0
aF0.0
aF0.0
aF0.0
aF0.0
asS'Bacteria.Proteobacteria.Gammaproteobacteria.Pseudomonadales.Moraxellaceae'
p227
(lp228
F0.0
aF0.0
aF0.0
aF82.52501142654006
aF53.72877713303244
aF0.0
aF0.0
aF0.0
aF0.0
aF2736.1457099685545
aF0.0
aF0.0
aF0.0
aF672.314105149926
aF0.0
asS'Bacteria.Actinobacteriota.Actinobacteria.Corynebacteriales.Corynebacteriaceae'
p229
(lp230
F0.0
aF0.0
aF0.0
aF0.0
aF0.0
aF0.0
aF5919.6178211652295
aF0.0
aF0.0
aF0.0
aF0.0
aF0.0
aF0.0
aF0.0
aF0.0
asS'Bacteria.Firmicutes.Clostridia.Oscillospirales.Oscillospiraceae.uncultured'
p231
(lp232
F1658.6974105890433
aF106.14021121902034
aF2014.7679324894514
aF9160.276268345946
aF8381.68923275306
aF2884.4603938136815
aF0.0
aF6582.840236686392
aF12211.888394662354
aF1490.5868419977946
aF33126.29399585922
aF14944.073213248108
aF10461.327388098092
aF0.0
aF0.0
asS'Bacteria.Firmicutes.Clostridia.Oscillospirales.Ruminococcaceae.Paludicola'
p233
(lp234
F0.0
aF0.0
aF0.0
aF0.0
aF286.5534780428397
aF203.6089689750834
aF0.0
aF0.0
aF0.0
aF0.0
aF0.0
aF0.0
aF0.0
aF0.0
aF0.0
asS'Bacteria.Proteobacteria.Gammaproteobacteria.Xanthomonadales'
p235
(lp236
F0.0
aF0.0
aF0.0
aF0.0
aF89.5479618883874
aF0.0
aF0.0
aF0.0
aF0.0
aF0.0
aF0.0
aF0.0
aF0.0
aF0.0
aF0.0
asS'Bacteria.Cyanobacteria.Cyanobacteriia.Chloroplast.Chloroplast.Chloroplast'
p237
(lp238
F0.0
aF0.0
aF0.0
aF0.0
aF0.0
aF0.0
aF0.0
aF0.0
aF0.0
aF0.0
aF0.0
aF0.0
aF457.3257874578401
aF0.0
aF0.0
asS'Bacteria.Firmicutes.Clostridia.Lachnospirales.Lachnospiraceae._Eubacterium__ventriosum_group'
p239
(lp240
F409.5549161948255
aF0.0
aF0.0
aF1212.4828601899346
aF0.0
aF0.0
aF0.0
aF0.0
aF1374.84836231298
aF0.0
aF4917.184265010352
aF980.5345729227191
aF0.0
aF0.0
aF0.0
asS'Bacteria.Firmicutes.Clostridia.Lachnospirales.Lachnospiraceae.Lachnoclostridium'
p241
(lp242
F501.70477233866126
aF2661.08672413401
aF4103.37552742616
aF16543.09075212026
aF6769.825918762088
aF6286.4269171056985
aF0.0
aF0.0
aF0.0
aF714.664924245518
aF21997.92960662526
aF490.26728646135956
aF9203.68147258903
aF0.0
aF0.0
asS'Bacteria.Proteobacteria.Alphaproteobacteria.Rhodobacterales.Rhodobacteraceae'
p243
(lp244
F0.0
aF0.0
aF0.0
aF0.0
aF0.0
aF0.0
aF0.0
aF0.0
aF0.0
aF0.0
aF0.0
aF0.0
aF1257.6459155090604
aF0.0
aF0.0
asS'Bacteria.Patescibacteria'
p245
(lp246
F3798.6218477070065
aF5625.431194608079
aF15348.101265822785
aF2805.850388502362
aF1182.0330969267136
aF3834.63558236407
aF3738.705992314882
aF15088.757396449708
aF32511.12009704812
aF551.3129415608282
aF12681.159420289856
aF2415.020337013364
aF28468.530269250547
aF851.5978665232398
aF0.0
asS'Bacteria.Firmicutes.Clostridia.Lachnospirales.Defluviitaleaceae'
p247
(lp248
F0.0
aF0.0
aF0.0
aF82.52501142654006
aF555.1973637080018
aF0.0
aF0.0
aF0.0
aF0.0
aF0.0
aF0.0
aF1289.2213829169084
aF0.0
aF0.0
aF0.0
asS'Bacteria.Firmicutes.Clostridia.Lachnospirales.Lachnospiraceae.Acetatifactor'
p249
(lp250
F0.0
aF0.0
aF443.0379746835443
aF349.1442791122849
aF0.0
aF0.0
aF0.0
aF0.0
aF0.0
aF0.0
aF0.0
aF0.0
aF0.0
aF0.0
aF0.0
asS'Bacteria.Actinobacteriota.Actinobacteria.Streptomycetales.Streptomycetaceae.Streptomyces'
p251
(lp252
F0.0
aF0.0
aF0.0
aF0.0
aF0.0
aF0.0
aF0.0
aF0.0
aF0.0
aF0.0
aF0.0
aF0.0
aF0.0
aF0.0
aF3489.1835310537335
asS'Bacteria.Actinobacteriota'
p253
(lp254
F27358.26840181434
aF14169.718197739216
aF12700.42194092827
aF12220.04976892997
aF19396.08854502471
aF17417.05055441026
aF27624.88316543774
aF25295.857988165684
aF23534.169025475127
aF19357.209948135744
aF3364.3892339544514
aF22443.346891342237
aF21722.974904247407
aF103939.7606561786
aF37683.18213538032
asS'Bacteria.Firmicutes.Clostridia.Oscillospirales.UCG_010.UCG_010'
p255
(lp256
F1535.8309357305957
aF45.48866195100872
aF0.0
aF615.7635467980297
aF0.0
aF322.380867543882
aF0.0
aF0.0
aF0.0
aF0.0
aF0.0
aF653.6897152818127
aF0.0
aF0.0
aF0.0
asS'Bacteria.Bacteroidota.Bacteroidia.Bacteroidales.Bacteroidaceae'
p257
(lp258
F2621.1514636468833
aF447.3051758515858
aF0.0
aF3294.6523792595613
aF250.7342932874847
aF721.1150984534204
aF0.0
aF33875.73964497042
aF0.0
aF183.77098052027605
aF0.0
aF2088.175479372457
aF31441.147887726504
aF4168.347451929542
aF2791.3468248429867
asS'Bacteria.Firmicutes.Bacilli.Staphylococcales.Staphylococcaceae.Jeotgalicoccus'
p259
(lp260
F0.0
aF0.0
aF0.0
aF0.0
aF0.0
aF0.0
aF3946.41188077682
aF0.0
aF0.0
aF0.0
aF0.0
aF345.0029052876234
aF0.0
aF0.0
aF0.0
asS'Bacteria.Gemmatimonadota.Gemmatimonadetes.Gemmatimonadales.Gemmatimonadaceae'
p261
(lp262
F0.0
aF0.0
aF0.0
aF0.0
aF0.0
aF0.0
aF0.0
aF0.0
aF0.0
aF0.0
aF2846.790890269151
aF0.0
aF0.0
aF0.0
aF0.0
asS'Bacteria.Firmicutes.Clostridia.Oscillospirales.Ruminococcaceae.UBA1819'
p263
(lp264
F952.2151801529693
aF0.0
aF168.77637130801688
aF6233.812401604795
aF250.7342932874847
aF220.57638305634032
aF0.0
aF0.0
aF0.0
aF0.0
aF0.0
aF708.1638582219639
aF0.0
aF672.314105149926
aF0.0
asS'Bacteria.Cyanobacteria.Vampirivibrionia.Gastranaerophilales.Gastranaerophilales.Gastranaerophilales'
p265
(lp266
F286.6884413363779
aF0.0
aF0.0
aF50.78462241633235
aF0.0
aF0.0
aF519.2647211548448
aF0.0
aF0.0
aF0.0
aF0.0
aF1325.5374782103424
aF0.0
aF0.0
aF0.0
asS'Bacteria.Proteobacteria.Gammaproteobacteria.Enterobacterales.Enterobacteriaceae'
p267
(lp268
F3542.6500250852405
aF5534.453870706061
aF7774.261603375528
aF2018.6887410492106
aF7665.3055376459615
aF6990.574601477862
aF15577.941634645344
aF8949.704142011837
aF27820.46097856854
aF6656.593294401111
aF18633.540372670806
aF5774.259151656012
aF21551.477733950713
aF12325.758594415312
aF30006.978367062107
asS'Bacteria.Firmicutes.Bacilli.Erysipelotrichales'
p269
(lp270
F45194.38500209899
aF89286.66196617162
aF73470.46413502109
aF14886.24244578742
aF93380.61465721038
aF110296.67523521079
aF132412.50389448542
aF72411.24260355032
aF38980.994743226845
aF89373.95352636093
aF5434.782608695652
aF18085.41545613015
aF49905.676556336795
aF29626.641566940078
aF71179.34403349615
asS'Bacteria.Proteobacteria.Alphaproteobacteria.Rhodobacterales.Rhodobacteraceae.Rubellimicrobium'
p271
(lp272
F0.0
aF0.0
aF0.0
aF0.0
aF0.0
aF0.0
aF0.0
aF0.0
aF0.0
aF0.0
aF0.0
aF0.0
aF1257.6459155090604
aF0.0
aF0.0
asS'Bacteria.Firmicutes.Clostridia.Oscillospirales.Oscillospiraceae.Oscillospira'
p273
(lp274
F0.0
aF0.0
aF0.0
aF0.0
aF0.0
aF0.0
aF0.0
aF5103.55029585799
aF0.0
aF0.0
aF0.0
aF0.0
aF0.0
aF0.0
aF0.0
asS'Bacteria.Proteobacteria.Gammaproteobacteria.Burkholderiales.Oxalobacteraceae'
p275
(lp276
F0.0
aF0.0
aF0.0
aF0.0
aF0.0
aF0.0
aF0.0
aF0.0
aF0.0
aF428.7989545473108
aF13198.757763975156
aF0.0
aF0.0
aF0.0
aF0.0
asS'Bacteria.Firmicutes.Bacilli.Staphylococcales.Staphylococcaceae'
p277
(lp278
F0.0
aF113.7216548775218
aF0.0
aF0.0
aF0.0
aF0.0
aF5711.911932703292
aF0.0
aF1617.4686615446824
aF0.0
aF0.0
aF907.902382335851
aF1943.6345966958202
aF0.0
aF0.0
asS'Bacteria.Chloroflexi.Anaerolineae.Anaerolineales'
p279
(lp280
F0.0
aF0.0
aF0.0
aF0.0
aF0.0
aF0.0
aF0.0
aF0.0
aF0.0
aF0.0
aF0.0
aF0.0
aF457.3257874578401
aF0.0
aF0.0
asS'Bacteria.Firmicutes.Clostridia.Monoglobales.Monoglobaceae'
p281
(lp282
F8109.187340657545
aF4018.1651390057705
aF9272.151898734177
aF0.0
aF197.0055161544523
aF67.86965632502779
aF2284.764773081317
aF0.0
aF79094.21754953498
aF1960.2237922162778
aF26397.515527950312
aF11566.676350958742
aF14405.762304921962
aF30343.776612433332
aF7327.28541521284
asS'Bacteria.Actinobacteriota.Actinobacteria.Streptomycetales.Streptomycetaceae'
p283
(lp284
F0.0
aF0.0
aF0.0
aF0.0
aF0.0
aF0.0
aF0.0
aF0.0
aF0.0
aF0.0
aF0.0
aF0.0
aF0.0
aF0.0
aF3489.1835310537335
asS'Bacteria.Proteobacteria.Gammaproteobacteria.Burkholderiales.Oxalobacteraceae.Massilia'
p285
(lp286
F0.0
aF0.0
aF0.0
aF0.0
aF0.0
aF0.0
aF0.0
aF0.0
aF0.0
aF0.0
aF13198.757763975156
aF0.0
aF0.0
aF0.0
aF0.0
asS'Bacteria.Chloroflexi.Anaerolineae.Anaerolineales.Anaerolineaceae'
p287
(lp288
F0.0
aF0.0
aF0.0
aF0.0
aF0.0
aF0.0
aF0.0
aF0.0
aF0.0
aF0.0
aF0.0
aF0.0
aF457.3257874578401
aF0.0
aF0.0
asS'Bacteria.Firmicutes.Clostridia.Peptococcales.Peptococcaceae'
p289
(lp290
F0.0
aF242.6061970720465
aF210.9704641350211
aF1072.8251485450207
aF0.0
aF483.571301315823
aF0.0
aF0.0
aF0.0
aF81.67599134234491
aF0.0
aF780.7960488088319
aF0.0
aF851.5978665232398
aF0.0
asS'Bacteria.Firmicutes.Clostridia.Oscillospirales.uncultured.uncultured'
p291
(lp292
F0.0
aF0.0
aF0.0
aF0.0
aF0.0
aF0.0
aF0.0
aF0.0
aF0.0
aF0.0
aF0.0
aF326.84485764090635
aF0.0
aF0.0
aF0.0
asS'Bacteria.Chloroflexi'
p293
(lp294
F0.0
aF0.0
aF0.0
aF0.0
aF0.0
aF0.0
aF0.0
aF0.0
aF0.0
aF0.0
aF0.0
aF0.0
aF457.3257874578401
aF0.0
aF0.0
asS'Bacteria.Firmicutes.Clostridia.Clostridia_UCG_014.Clostridia_UCG_014.Clostridia_UCG_014'
p295
(lp296
F238002.60067371797
aF57126.17796680845
aF100316.45569620252
aF92523.23396475549
aF220789.45483200796
aF52386.89097588082
aF69996.88441167306
aF278476.3313609468
aF267852.8103517994
aF36488.74913219259
aF62111.801242236026
aF336214.41022661235
aF129366.03212713651
aF97530.36618708262
aF74319.60921144452
asS'Bacteria.Proteobacteria.Gammaproteobacteria.Burkholderiales.Oxalobacteraceae.Herminiimonas'
p297
(lp298
F0.0
aF0.0
aF0.0
aF0.0
aF0.0
aF0.0
aF0.0
aF0.0
aF0.0
aF428.7989545473108
aF0.0
aF0.0
aF0.0
aF0.0
aF0.0
asS'Bacteria.Firmicutes.Bacilli.Lactobacillales.Lactobacillaceae.Limosilactobacillus'
p299
(lp300
F143.34422066818894
aF1425.3114077982732
aF654.0084388185654
aF0.0
aF1092.4851350383262
aF1264.0723490536427
aF934.6764980787206
aF0.0
aF0.0
aF1429.329848491036
aF0.0
aF562.8994770482277
aF743.15440461899
aF851.5978665232398
aF0.0
asS'Bacteria.Gemmatimonadota.Gemmatimonadetes.Gemmatimonadales.Gemmatimonadaceae.uncultured'
p301
(lp302
F0.0
aF0.0
aF0.0
aF0.0
aF0.0
aF0.0
aF0.0
aF0.0
aF0.0
aF0.0
aF2846.790890269151
aF0.0
aF0.0
aF0.0
aF0.0
asS'Bacteria.Actinobacteriota.Actinobacteria.Bifidobacteriales.Bifidobacteriaceae'
p303
(lp304
F19156.931205012963
aF10477.55513604901
aF5991.561181434599
aF1491.7982834797626
aF5945.984669388924
aF6736.063390259009
aF7685.117873091703
aF10355.02958579882
aF4609.785685402345
aF163.35198268468983
aF0.0
aF0.0
aF13891.270794031892
aF49168.571556631265
aF5582.6936496859735
asS'Bacteria.Firmicutes.Clostridia.Lachnospirales.Lachnospiraceae._Eubacterium__xylanophilum_group'
p305
(lp306
F4965.8533588622595
aF6868.787954602317
aF10232.067510548522
aF22218.272307145402
aF967.1179883945839
aF4699.973700508174
aF0.0
aF2218.934911242604
aF14233.724221593207
aF2205.251766243313
aF16304.347826086956
aF3613.451481696687
aF1486.30880923798
aF0.0
aF10467.5505931612
asS'Bacteria.Proteobacteria.Alphaproteobacteria.Sphingomonadales.Sphingomonadaceae.Sphingomonas'
p307
(lp308
F0.0
aF0.0
aF94.9367088607595
aF0.0
aF0.0
aF0.0
aF0.0
aF0.0
aF0.0
aF0.0
aF0.0
aF0.0
aF0.0
aF0.0
aF0.0
asS'Bacteria.Firmicutes.Clostridia.Eubacteriales.Anaerofustaceae'
p309
(lp310
F327.6439329558604
aF75.81443658501453
aF189.873417721519
aF0.0
aF358.1918475535496
aF0.0
aF0.0
aF0.0
aF404.3671653861706
aF0.0
aF0.0
aF0.0
aF0.0
aF1703.1957330464795
aF0.0
asS'Bacteria.Actinobacteriota.Actinobacteria.Micrococcales.Micrococcaceae.Rothia'
p311
(lp312
F0.0
aF341.1649646325654
aF0.0
aF0.0
aF0.0
aF0.0
aF0.0
aF0.0
aF0.0
aF0.0
aF0.0
aF417.63509587449147
aF0.0
aF0.0
aF0.0
asS'Bacteria.Actinobacteriota.Coriobacteriia.Coriobacteriales.Atopobiaceae.Coriobacteriaceae_UCG_002'
p313
(lp314
F6133.084870017512
aF742.9814785331424
aF1540.084388185654
aF8309.63384287238
aF3725.1952145569157
aF3851.6029964453273
aF3219.4412711600376
aF0.0
aF3801.051354630004
aF0.0
aF0.0
aF3577.135386403253
aF685.9886811867601
aF13042.893639908567
aF5582.6936496859735
asS'Bacteria.Proteobacteria.Gammaproteobacteria.Pseudomonadales.Pseudomonadaceae'
p315
(lp316
F389.07717038508423
aF758.1443658501454
aF3259.493670886076
aF272.96734548778636
aF1880.5071996561353
aF458.1201801939376
aF0.0
aF27884.615384615394
aF970.4811969268095
aF2674.888716461796
aF0.0
aF1634.2242882045318
aF0.0
aF2106.5841961364354
aF15003.489183531054
asS'Bacteria.Proteobacteria.Alphaproteobacteria.Caulobacterales.Caulobacteraceae'
p317
(lp318
F0.0
aF0.0
aF0.0
aF0.0
aF0.0
aF0.0
aF0.0
aF961.5384615384618
aF0.0
aF632.9889329031731
aF0.0
aF0.0
aF0.0
aF0.0
aF0.0
asS'Bacteria.Firmicutes.Clostridia.Peptococcales'
p319
(lp320
F0.0
aF242.6061970720465
aF210.9704641350211
aF1072.8251485450207
aF0.0
aF483.571301315823
aF0.0
aF0.0
aF0.0
aF81.67599134234491
aF0.0
aF780.7960488088319
aF0.0
aF851.5978665232398
aF0.0
asS'Bacteria.Proteobacteria.Gammaproteobacteria.Pseudomonadales.Pseudomonadaceae.Pseudomonas'
p321
(lp322
F389.07717038508423
aF758.1443658501454
aF3259.493670886076
aF272.96734548778636
aF1880.5071996561353
aF458.1201801939376
aF0.0
aF27884.615384615394
aF970.4811969268095
aF2674.888716461796
aF0.0
aF1634.2242882045318
aF0.0
aF2106.5841961364354
aF15003.489183531054
asS'Bacteria.Firmicutes.Clostridia'
p323
(lp324
F429377.37413865497
aF818962.7068786438
aF776592.8270042193
aF618613.8337311463
aF818683.2867683931
aF771499.8345677129
aF765396.1989822411
aF498742.603550296
aF799272.1391023048
aF810470.8620900885
aF361283.64389233955
aF826318.2742591517
aF309037.9008746353
aF656895.7016718211
aF595254.7103977669
asS'Bacteria.Firmicutes.Clostridia.Lachnospirales'
p325
(lp326
F23262.719239866095
aF52016.28494097847
aF70379.74683544305
aF356177.9493169469
aF100186.25976072781
aF106368.7188753998
aF51926.47211548448
aF99778.10650887576
aF136352.60816821677
aF10413.688896148977
aF86956.52173913045
aF292108.51249273674
aF37958.040359000726
aF289408.81179687154
aF250523.37752965803
asS'Bacteria.Firmicutes.Clostridia.Lachnospirales.Lachnospiraceae.Marvinbryantia'
p327
(lp328
F1249.142494394218
aF0.0
aF0.0
aF0.0
aF0.0
aF0.0
aF0.0
aF961.5384615384618
aF18843.509906995554
aF530.893943725242
aF0.0
aF2905.287623474723
aF0.0
aF3720.138048496258
aF0.0
asS'Bacteria.Actinobacteriota.Actinobacteria.Micrococcales'
p329
(lp330
F0.0
aF341.1649646325654
aF0.0
aF0.0
aF0.0
aF0.0
aF0.0
aF0.0
aF0.0
aF0.0
aF0.0
aF635.5316676350958
aF0.0
aF0.0
aF0.0
asS'Bacteria.Firmicutes.Bacilli.Erysipelotrichales.Erysipelotrichaceae'
p331
(lp332
F45194.38500209899
aF89286.66196617162
aF73470.46413502109
aF14886.24244578742
aF93380.61465721038
aF110296.67523521079
aF130854.70973102086
aF71671.5976331361
aF37767.893247068336
aF89373.95352636093
aF5434.782608695652
aF11167.199302730967
aF49905.676556336795
aF29626.641566940078
aF71179.34403349615
asS'Bacteria.Cyanobacteria.Cyanobacteriia.Chloroplast'
p333
(lp334
F0.0
aF0.0
aF0.0
aF0.0
aF0.0
aF0.0
aF0.0
aF0.0
aF0.0
aF0.0
aF0.0
aF0.0
aF457.3257874578401
aF0.0
aF0.0
asS'Bacteria.Gemmatimonadota.Gemmatimonadetes.Gemmatimonadales'
p335
(lp336
F0.0
aF0.0
aF0.0
aF0.0
aF0.0
aF0.0
aF0.0
aF0.0
aF0.0
aF0.0
aF2846.790890269151
aF0.0
aF0.0
aF0.0
aF0.0
asS'Bacteria.Proteobacteria.Gammaproteobacteria.Enterobacterales.Pasteurellaceae'
p337
(lp338
F0.0
aF0.0
aF0.0
aF285.6635010918695
aF0.0
aF0.0
aF0.0
aF665.6804733727812
aF1374.84836231298
aF0.0
aF0.0
aF0.0
aF0.0
aF672.314105149926
aF0.0
asS'Bacteria.Actinobacteriota.Coriobacteriia.Coriobacteriales.Eggerthellaceae.Enterorhabdus'
p339
(lp340
F604.0935013873676
aF1645.1732738948153
aF2405.0632911392404
aF539.5866131735312
aF3993.839100222078
aF2154.8615883196326
aF0.0
aF4437.869822485208
aF2749.69672462596
aF9862.37595458815
aF0.0
aF1924.7530505520042
aF3544.2748527982603
aF941.2397472098966
aF0.0
asS'Bacteria.Firmicutes.Clostridia.Lachnospirales.Lachnospiraceae._Bacteroides__pectinophilus_group'
p341
(lp342
F0.0
aF409.3979575590785
aF0.0
aF2869.3311665227775
aF0.0
aF0.0
aF0.0
aF1035.502958579882
aF1132.2280630812777
aF0.0
aF0.0
aF0.0
aF0.0
aF0.0
aF0.0
asS'Bacteria.Proteobacteria.Gammaproteobacteria.Burkholderiales'
p343
(lp344
F2703.0624468858487
aF5178.126018756493
aF2721.518987341772
aF1060.1289929409377
aF2399.885378608782
aF2214.247537604032
aF6335.029598089106
aF84541.42011834322
aF5175.899716942984
aF11352.962796585944
aF13198.757763975156
aF5283.991865194653
aF8975.018578860112
aF13491.10304334185
aF18492.672714584787
asS'Bacteria.Deferribacterota.Deferribacteres.Deferribacterales.Deferribacteraceae'
p345
(lp346
F0.0
aF0.0
aF0.0
aF0.0
aF411.920624686582
aF0.0
aF0.0
aF0.0
aF0.0
aF0.0
aF0.0
aF0.0
aF0.0
aF0.0
aF0.0
asS'Bacteria.Firmicutes'
p347
(lp348
F478698.0249214168
aF930303.7884473962
aF901308.0168776371
aF637131.1766797014
aF944730.9979224872
aF949852.8076828452
aF941426.9394537337
aF614497.0414201184
aF853861.7064294381
aF908257.442724711
aF369565.2173913044
aF856315.3689715283
aF389470.073743783
aF694545.2915602169
aF666434.054431263
asS'Bacteria.Firmicutes.Clostridia.Oscillospirales.Ruminococcaceae.Ruminococcus'
p349
(lp350
F2877.123286268649
aF197.1175351210378
aF727.8481012658228
aF11775.684322787063
aF26846.478974138543
aF30711.01948707508
aF2284.764773081317
aF5695.26627218935
aF8896.077638495753
aF32384.530567239755
aF7505.175983436853
aF11185.357350377684
aF11547.476133310462
aF10084.711577248892
aF4535.938590369853
asS'Bacteria.Firmicutes.Clostridia.Monoglobales.Monoglobaceae.Monoglobus'
p351
(lp352
F8109.187340657545
aF4018.1651390057705
aF9272.151898734177
aF0.0
aF197.0055161544523
aF67.86965632502779
aF2284.764773081317
aF0.0
aF79094.21754953498
aF1960.2237922162778
aF26397.515527950312
aF11566.676350958742
aF14405.762304921962
aF30343.776612433332
aF7327.28541521284
asS'Bacteria.Proteobacteria'
p353
(lp354
F6696.222879785397
aF11781.563445311258
aF14071.729957805906
aF3719.973591996344
aF12088.974854932298
aF9798.681631925887
aF22847.647730813173
aF129068.04733727814
aF35988.677719369196
aF25339.97631396251
aF31832.298136645968
aF12692.475305055199
aF31784.142228319884
aF29492.178745910096
aF63503.14026517795
asS'Bacteria.Proteobacteria.Gammaproteobacteria.Burkholderiales.Alcaligenaceae.Alcaligenes'
p355
(lp356
F0.0
aF0.0
aF0.0
aF0.0
aF250.7342932874847
aF0.0
aF0.0
aF0.0
aF0.0
aF408.3799567117246
aF0.0
aF0.0
aF0.0
aF0.0
aF0.0
asS'Bacteria.Firmicutes.Clostridia.Oscillospirales'
p357
(lp358
F163.8219664779302
aF0.0
aF0.0
aF0.0
aF0.0
aF0.0
aF0.0
aF0.0
aF0.0
aF0.0
aF0.0
aF0.0
aF0.0
aF0.0
aF0.0
asS'Bacteria.Actinobacteriota.Coriobacteriia.Coriobacteriales.Atopobiaceae'
p359
(lp360
F6255.95134487596
aF742.9814785331424
aF1540.084388185654
aF8309.63384287238
aF3725.1952145569157
aF3851.6029964453273
aF3219.4412711600376
aF0.0
aF3801.051354630004
aF530.893943725242
aF0.0
aF3577.135386403253
aF685.9886811867601
aF13042.893639908567
aF5582.6936496859735
asS'Bacteria.Firmicutes.Clostridia.Oscillospirales.Hungateiclostridiaceae'
p361
(lp362
F0.0
aF0.0
aF0.0
aF57.13270021837389
aF0.0
aF0.0
aF0.0
aF0.0
aF0.0
aF0.0
aF0.0
aF0.0
aF0.0
aF0.0
aF0.0
asS'Bacteria.Campylobacterota.Campylobacteria'
p363
(lp364
F0.0
aF0.0
aF0.0
aF0.0
aF0.0
aF0.0
aF0.0
aF0.0
aF0.0
aF0.0
aF0.0
aF2306.072051133062
aF0.0
aF0.0
aF0.0
asS'Bacteria.Proteobacteria.Gammaproteobacteria.Burkholderiales.Comamonadaceae'
p365
(lp366
F0.0
aF576.1897180461106
aF263.71308016877634
aF0.0
aF0.0
aF161.190433771941
aF1557.7941634645342
aF65384.615384615405
aF3558.431055398302
aF5635.643402621799
aF0.0
aF2251.597908192911
aF2858.2861716115003
aF761.955985836583
aF8374.04047452896
asS'Bacteria.Firmicutes.Bacilli.Erysipelotrichales.Erysipelatoclostridiaceae'
p367
(lp368
F0.0
aF0.0
aF0.0
aF0.0
aF0.0
aF0.0
aF1557.7941634645342
aF739.6449704142013
aF1213.101496158512
aF0.0
aF0.0
aF6918.216153399185
aF0.0
aF0.0
aF0.0
asS'Bacteria.Firmicutes.Clostridia.Oscillospirales._Eubacterium__coprostanoligenes_group'
p369
(lp370
F37566.42468797037
aF116284.18283409529
aF136265.82278481012
aF26382.611345284655
aF48839.45841392649
aF39169.27540658166
aF10073.735590403989
aF4511.834319526629
aF13263.243024666397
aF2164.4137705721405
aF70134.57556935817
aF25548.373038930848
aF6745.555365003142
aF13625.565864371836
aF0.0
asS'Bacteria.Firmicutes.Bacilli.Acholeplasmatales.Acholeplasmataceae.Anaeroplasma'
p371
(lp372
F0.0
aF0.0
aF0.0
aF0.0
aF0.0
aF0.0
aF0.0
aF295.8579881656805
aF0.0
aF61.25699350675868
aF0.0
aF254.21266705403826
aF0.0
aF0.0
aF0.0
asS'Bacteria.Actinobacteriota.Coriobacteriia.Coriobacteriales.Eggerthellaceae'
p373
(lp374
F0.0
aF0.0
aF0.0
aF0.0
aF0.0
aF0.0
aF0.0
aF887.5739644970416
aF0.0
aF0.0
aF0.0
aF0.0
aF0.0
aF358.5675227466273
aF0.0
asS'Bacteria.Proteobacteria.Gammaproteobacteria.Enterobacterales.Pasteurellaceae.Rodentibacter'
p375
(lp376
F0.0
aF0.0
aF0.0
aF285.6635010918695
aF0.0
aF0.0
aF0.0
aF665.6804733727812
aF1374.84836231298
aF0.0
aF0.0
aF0.0
aF0.0
aF672.314105149926
aF0.0
asS'Bacteria.Firmicutes.Clostridia.Lachnospirales.Lachnospiraceae._Eubacterium__ruminantium_group'
p377
(lp378
F399.3160432899549
aF4056.072357298278
aF1856.5400843881857
aF50175.20694733636
aF14399.312271652694
aF18562.351004895103
aF0.0
aF0.0
aF0.0
aF0.0
aF0.0
aF0.0
aF0.0
aF0.0
aF0.0
asS'Bacteria.Firmicutes.Clostridia.Christensenellales'
p379
(lp380
F4924.8978672427775
aF576.1897180461106
aF2035.8649789029535
aF4786.450662739324
aF788.0220646178092
aF525.9898365189654
aF41541.17769238757
aF29807.692307692316
aF3720.17792155277
aF3859.190590925797
aF0.0
aF13872.748402091804
aF21437.146287086252
aF1568.7329120164943
aF0.0
asS'Bacteria.Proteobacteria.Gammaproteobacteria.Burkholderiales.Sutterellaceae.Parasutterella'
p381
(lp382
F1064.8427821065463
aF0.0
aF0.0
aF107.91732263470624
aF0.0
aF0.0
aF0.0
aF2810.650887573965
aF0.0
aF0.0
aF0.0
aF472.10923881464254
aF0.0
aF8022.948321455785
aF0.0
asS'Bacteria.Firmicutes.Clostridia.uncultured.uncultured.uncultured'
p383
(lp384
F0.0
aF0.0
aF0.0
aF0.0
aF0.0
aF186.64155489382642
aF0.0
aF0.0
aF0.0
aF0.0
aF0.0
aF599.2155723416618
aF0.0
aF717.1350454932546
aF0.0
asS'Bacteria.Firmicutes.Bacilli.Erysipelotrichales.Erysipelotrichaceae.Dubosiella'
p385
(lp386
F15542.60906959363
aF4139.468237541794
aF4989.451476793249
aF7566.908740033519
aF447.739809441937
aF161.190433771941
aF18485.82407311247
aF17085.79881656805
aF14152.850788515972
aF2327.76575325683
aF0.0
aF2487.652527600232
aF24066.769564968832
aF7081.7085742458885
aF11514.305652477322
asS'Bacteria.Proteobacteria.Gammaproteobacteria.Burkholderiales.Comamonadaceae.Comamonas'
p387
(lp388
F0.0
aF189.53609146253635
aF263.71308016877634
aF0.0
aF0.0
aF0.0
aF0.0
aF19896.449704142018
aF0.0
aF0.0
aF0.0
aF326.84485764090635
aF0.0
aF0.0
aF0.0
asS'Bacteria.Firmicutes.Clostridia.Clostridia_UCG_014'
p389
(lp390
F238002.60067371797
aF57126.17796680845
aF100316.45569620252
aF92523.23396475549
aF220789.45483200796
aF52386.89097588082
aF69996.88441167306
aF278476.3313609468
aF267852.8103517994
aF36488.74913219259
aF62111.801242236026
aF336214.41022661235
aF129366.03212713651
aF97530.36618708262
aF74319.60921144452
asS'Bacteria.Bacteroidota.Bacteroidia.Bacteroidales.Prevotellaceae'
p391
(lp392
F9225.224487288444
aF1523.8701753587923
aF263.71308016877634
aF5478.391143161852
aF304.46307042051717
aF110.28819152817016
aF0.0
aF10059.171597633138
aF2507.076425394258
aF898.4359047657941
aF0.0
aF6736.6356769320155
aF13548.276453438511
aF19631.571870377844
aF17096.99930216329
asS'Bacteria.Firmicutes.Clostridia.Oscillospirales.Ruminococcaceae._Eubacterium__siraeum_group'
p393
(lp394
F15296.876119876733
aF37.90721829250727
aF0.0
aF0.0
aF0.0
aF0.0
aF0.0
aF0.0
aF0.0
aF1551.8438355045535
aF14751.552795031055
aF236.05461940732127
aF23552.278054078764
aF1568.7329120164943
aF0.0
asS'Bacteria.Firmicutes.Clostridia.Lachnospirales.Lachnospiraceae.Fusicatenibacter'
p395
(lp396
F0.0
aF0.0
aF0.0
aF0.0
aF0.0
aF0.0
aF33648.35393083394
aF0.0
aF16740.800646987464
aF0.0
aF0.0
aF189824.23009877972
aF0.0
aF188427.23320335263
aF158757.85066294487
asS'Bacteria.Firmicutes.Bacilli.Exiguobacterales.Exiguobacteraceae'
p397
(lp398
F0.0
aF0.0
aF0.0
aF0.0
aF0.0
aF0.0
aF0.0
aF0.0
aF0.0
aF0.0
aF0.0
aF0.0
aF0.0
aF717.1350454932546
aF0.0
asS'Bacteria.Firmicutes.Bacilli.Erysipelotrichales.Erysipelotrichaceae.Turicibacter'
p399
(lp400
F16668.8850891294
aF82038.80182864424
aF64915.61181434599
aF4500.787161647454
aF88634.57267712585
aF107378.2800132346
aF109772.56205213418
aF20636.094674556218
aF5337.646583097453
aF83738.31012373912
aF5434.782608695652
aF4067.402672864612
aF9661.007260046872
aF1075.7025682398817
aF3838.1018841591067
asS'Bacteria.Firmicutes.Clostridia.Clostridia_vadinBB60_group.Clostridia_vadinBB60_group'
p401
(lp402
F307.1661871461191
aF0.0
aF158.22784810126583
aF387.23274592453413
aF340.28225517587214
aF398.73423090953827
aF0.0
aF0.0
aF566.1140315406388
aF0.0
aF0.0
aF562.8994770482277
aF0.0
aF0.0
aF0.0
asS'Bacteria.Actinobacteriota.Actinobacteria.Pseudonocardiales.Pseudonocardiaceae'
p403
(lp404
F0.0
aF0.0
aF0.0
aF0.0
aF0.0
aF101.8044844875417
aF0.0
aF0.0
aF0.0
aF0.0
aF0.0
aF0.0
aF0.0
aF32136.61422616647
aF5233.7752965806
asS'Bacteria.Firmicutes.Bacilli.Lactobacillales.Streptococcaceae.Streptococcus'
p405
(lp406
F0.0
aF159.21031682853052
aF0.0
aF0.0
aF0.0
aF0.0
aF4050.264825007789
aF4215.976331360948
aF0.0
aF2225.670764078899
aF0.0
aF998.6926205694361
aF0.0
aF627.4931648065977
aF0.0
asS'Bacteria.Actinobacteriota.Actinobacteria.Pseudonocardiales.Pseudonocardiaceae.Pseudonocardia'
p407
(lp408
F0.0
aF0.0
aF0.0
aF0.0
aF0.0
aF0.0
aF0.0
aF0.0
aF0.0
aF0.0
aF0.0
aF0.0
aF0.0
aF0.0
aF5233.7752965806
asS'Bacteria.Firmicutes.Bacilli.Lactobacillales.Streptococcaceae'
p409
(lp410
F0.0
aF159.21031682853052
aF0.0
aF0.0
aF0.0
aF0.0
aF4050.264825007789
aF4215.976331360948
aF0.0
aF2225.670764078899
aF0.0
aF998.6926205694361
aF0.0
aF627.4931648065977
aF0.0
asS'Bacteria.Firmicutes.Clostridia.Lachnospirales.Lachnospiraceae.A2'
p411
(lp412
F0.0
aF409.3979575590785
aF1940.928270042194
aF18098.36981362044
aF4943.047496238984
aF2825.0744445292817
aF0.0
aF0.0
aF0.0
aF0.0
aF0.0
aF0.0
aF0.0
aF0.0
aF0.0
asS'Bacteria.Proteobacteria.Gammaproteobacteria.Burkholderiales.Alcaligenaceae'
p413
(lp414
F102.38872904870638
aF75.81443658501453
aF179.32489451476795
aF158.70194505103856
aF250.7342932874847
aF178.15784785319795
aF0.0
aF3476.3313609467464
aF0.0
aF1123.0448809572426
aF0.0
aF0.0
aF0.0
aF896.4188068665682
aF0.0
asS'Bacteria.Bacteroidota.Bacteroidia.Bacteroidales.Muribaculaceae'
p415
(lp416
F376002.12968556443
aF32274.20565424069
aF45316.45569620253
aF237113.40206185574
aF15670.893330467794
aF11631.162352701636
aF1973.20594038841
aF165532.54437869825
aF30408.41083704003
aF19561.39992649161
aF569616.9772256728
aF78951.1911679256
aF465729.14880237787
aF82111.96270897765
aF70481.50732728542
asS'Bacteria.Firmicutes.Bacilli.Exiguobacterales'
p417
(lp418
F0.0
aF0.0
aF0.0
aF0.0
aF0.0
aF0.0
aF0.0
aF0.0
aF0.0
aF0.0
aF0.0
aF0.0
aF0.0
aF717.1350454932546
aF0.0
asS'Bacteria.Firmicutes.Clostridia.Oscillospirales.Ruminococcaceae.CAG_352'
p419
(lp420
F1341.2923505380536
aF401.81651390057704
aF643.4599156118143
aF17958.71210197553
aF0.0
aF542.9572506002223
aF0.0
aF0.0
aF1617.4686615446824
aF1020.9498917793113
aF10610.766045548655
aF0.0
aF3772.9377465271805
aF8336.694903859085
aF4187.02023726448
asS'Bacteria.Firmicutes.Clostridia.Oscillospirales.Ruminococcaceae.Incertae_Sedis'
p421
(lp422
F614.3323742922382
aF0.0
aF369.1983122362869
aF18885.53146107359
aF161.18633139909733
aF161.190433771941
aF8827.500259632361
aF2736.6863905325454
aF4609.785685402345
aF3471.229632049659
aF28726.70807453416
aF19320.16269610691
aF8689.189961698961
aF1972.12137510645
aF0.0
asS'Bacteria.Firmicutes.Clostridia.Peptostreptococcales_Tissierellales.Peptostreptococcaceae.Romboutsia'
p423
(lp424
F14907.79894949165
aF150954.12468442245
aF211729.95780590718
aF9807.780204154184
aF201321.72791747257
aF236143.98547589357
aF168241.7696541697
aF23668.639053254443
aF17873.028710068742
aF56111.406052190956
aF8281.573498964804
aF25294.160371876813
aF0.0
aF5109.587199139439
aF5233.7752965806
asS'Bacteria.Bacteroidota.Bacteroidia.Flavobacteriales'
p425
(lp426
F0.0
aF0.0
aF0.0
aF0.0
aF0.0
aF0.0
aF0.0
aF0.0
aF0.0
aF1245.55886797076
aF0.0
aF254.21266705403826
aF0.0
aF0.0
aF0.0
asS'Bacteria.Gemmatimonadota'
p427
(lp428
F0.0
aF0.0
aF0.0
aF0.0
aF0.0
aF0.0
aF0.0
aF0.0
aF0.0
aF0.0
aF2846.790890269151
aF0.0
aF0.0
aF0.0
aF0.0
asS'Bacteria.Proteobacteria.Gammaproteobacteria.Burkholderiales.Burkholderiaceae'
p429
(lp430
F1535.8309357305957
aF4526.121864125368
aF2278.481012658228
aF793.5097252551928
aF2149.1510853212976
aF1874.8992559788928
aF4777.235434624572
aF12869.822485207105
aF1617.4686615446824
aF4165.475558459591
aF0.0
aF2560.2847181870998
aF6116.732407248611
aF3809.7799291829147
aF10118.632240055827
asS'Bacteria.Firmicutes.Clostridia.Lachnospirales.Lachnospiraceae.Lachnospira'
p431
(lp432
F0.0
aF0.0
aF0.0
aF0.0
aF0.0
aF0.0
aF0.0
aF1701.183431952663
aF0.0
aF0.0
aF0.0
aF0.0
aF0.0
aF0.0
aF0.0
asS'Bacteria.Acidobacteriota.Acidobacteriae'
p433
(lp434
F0.0
aF0.0
aF0.0
aF0.0
aF0.0
aF0.0
aF0.0
aF0.0
aF0.0
aF0.0
aF0.0
aF0.0
aF685.9886811867601
aF0.0
aF0.0
asS'Bacteria.Firmicutes.Clostridia.Oscillospirales.Ruminococcaceae.Negativibacillus'
p435
(lp436
F0.0
aF0.0
aF0.0
aF0.0
aF0.0
aF0.0
aF0.0
aF0.0
aF0.0
aF0.0
aF0.0
aF671.8477629285298
aF0.0
aF0.0
aF0.0
asS'Bacteria.Verrucomicrobiota.Verrucomicrobiae'
p437
(lp438
F91381.94067597044
aF3495.0455265691703
aF10991.5611814346
aF87171.80437763447
aF5354.968120925567
aF6159.171311496272
aF0.0
aF887.5739644970416
aF21188.839466235342
aF24400.702413525545
aF10093.167701863355
aF1071.3248111563041
aF914.6515749156802
aF55533.1450853839
aF142009.76971388696
asS'Bacteria.Firmicutes.Clostridia.Peptostreptococcales_Tissierellales.Anaerovoracaceae._Eubacterium__nodatum_group'
p439
(lp440
F972.6929259627105
aF0.0
aF0.0
aF0.0
aF0.0
aF0.0
aF0.0
aF0.0
aF0.0
aF0.0
aF0.0
aF417.63509587449147
aF0.0
aF0.0
aF0.0
asS'Bacteria.Firmicutes.Clostridia.Oscillospirales.Oscillospiraceae.Papillibacter'
p441
(lp442
F726.9599762458153
aF128.88454219452473
aF0.0
aF3846.935148037175
aF1379.038613081166
aF390.2505238689098
aF0.0
aF0.0
aF2345.3295592397894
aF0.0
aF0.0
aF0.0
aF0.0
aF0.0
aF0.0
asS'Bacteria.Firmicutes.Clostridia.Lachnospirales.Lachnospiraceae.Eisenbergiella'
p443
(lp444
F0.0
aF0.0
aF0.0
aF0.0
aF0.0
aF0.0
aF0.0
aF0.0
aF0.0
aF0.0
aF0.0
aF508.4253341080765
aF0.0
aF0.0
aF0.0
asS'Bacteria.Proteobacteria.Gammaproteobacteria.Enterobacterales'
p445
(lp446
F3542.6500250852405
aF5534.453870706061
aF7774.261603375528
aF2304.3522421410803
aF7665.3055376459615
aF6990.574601477862
aF15577.941634645344
aF9615.384615384617
aF29195.30934088152
aF6656.593294401111
aF18633.540372670806
aF5774.259151656012
aF21551.477733950713
aF12998.072699565239
aF30006.978367062107
asS'Bacteria.Proteobacteria.Alphaproteobacteria.Sphingomonadales'
p447
(lp448
F0.0
aF0.0
aF94.9367088607595
aF0.0
aF0.0
aF0.0
aF0.0
aF0.0
aF0.0
aF0.0
aF0.0
aF0.0
aF0.0
aF0.0
aF0.0
asS'Bacteria.Firmicutes.Clostridia.Oscillospirales.Butyricicoccaceae.UCG_009'
p449
(lp450
F511.94364524353193
aF174.37320414553344
aF706.7510548523206
aF0.0
aF1110.3947274160037
aF262.9949182594827
aF0.0
aF0.0
aF0.0
aF0.0
aF0.0
aF1107.6409064497382
aF0.0
aF0.0
aF0.0
asS'Bacteria.Verrucomicrobiota.Verrucomicrobiae.Verrucomicrobiales.Akkermansiaceae'
p451
(lp452
F91381.94067597044
aF3495.0455265691703
aF10991.5611814346
aF87171.80437763447
aF5354.968120925567
aF6159.171311496272
aF0.0
aF887.5739644970416
aF21188.839466235342
aF24400.702413525545
aF10093.167701863355
aF1071.3248111563041
aF914.6515749156802
aF55533.1450853839
aF142009.76971388696
asS'Bacteria.Firmicutes.Clostridia.Oscillospirales._Eubacterium__coprostanoligenes_group._Eubacterium__coprostanoligenes_group'
p453
(lp454
F37566.42468797037
aF116284.18283409529
aF136265.82278481012
aF26382.611345284655
aF48839.45841392649
aF39169.27540658166
aF10073.735590403989
aF4511.834319526629
aF13263.243024666397
aF2164.4137705721405
aF70134.57556935817
aF25548.373038930848
aF6745.555365003142
aF13625.565864371836
aF0.0
asS'Bacteria.Actinobacteriota.Coriobacteriia.Coriobacteriales.uncultured'
p455
(lp456
F0.0
aF0.0
aF780.590717299578
aF596.719313391905
aF268.6438856651622
aF220.57638305634032
aF5296.500155779417
aF5917.159763313611
aF7925.596441568945
aF3900.0285865969695
aF3364.3892339544514
aF7245.061011040091
aF2400.96038415366
aF3182.286764376317
aF0.0
asS'Bacteria.Campylobacterota.Campylobacteria.Campylobacterales.Helicobacteraceae'
p457
(lp458
F0.0
aF0.0
aF0.0
aF0.0
aF0.0
aF0.0
aF0.0
aF0.0
aF0.0
aF0.0
aF0.0
aF2306.072051133062
aF0.0
aF0.0
aF0.0
asS'Bacteria.Firmicutes.Clostridia.Lachnospirales.Lachnospiraceae.uncultured'
p459
(lp460
F92.14985614383575
aF1159.9608797507224
aF886.0759493670886
aF6811.487481590576
aF1056.6659502829712
aF831.4032899815904
aF0.0
aF0.0
aF889.6077638495755
aF102.09498917793115
aF5175.983436853002
aF236.05461940732127
aF0.0
aF0.0
aF0.0
asS'Bacteria.Desulfobacterota.Desulfovibrionia.Desulfovibrionales.Desulfovibrionaceae'
p461
(lp462
F0.0
aF0.0
aF0.0
aF0.0
aF0.0
aF0.0
aF1869.352996157441
aF4585.798816568048
aF0.0
aF0.0
aF0.0
aF12038.785589773384
aF14462.928028354192
aF0.0
aF0.0
asS'Bacteria.Campylobacterota.Campylobacteria.Campylobacterales.Helicobacteraceae.Helicobacter'
p463
(lp464
F0.0
aF0.0
aF0.0
aF0.0
aF0.0
aF0.0
aF0.0
aF0.0
aF0.0
aF0.0
aF0.0
aF2306.072051133062
aF0.0
aF0.0
aF0.0
asS'Bacteria.Firmicutes.Clostridia.Oscillospirales.Butyricicoccaceae.UCG_008'
p465
(lp466
F0.0
aF0.0
aF0.0
aF0.0
aF0.0
aF0.0
aF0.0
aF8505.917159763316
aF4205.418520016175
aF0.0
aF0.0
aF8497.966298663565
aF0.0
aF7216.171395275874
aF3489.1835310537335
asS'Bacteria.Proteobacteria.Gammaproteobacteria.Enterobacterales.Enterobacteriaceae.Escherichia_Shigella'
p467
(lp468
F3542.6500250852405
aF5534.453870706061
aF7774.261603375528
aF2018.6887410492106
aF7665.3055376459615
aF6990.574601477862
aF15577.941634645344
aF8949.704142011837
aF27820.46097856854
aF6656.593294401111
aF18633.540372670806
aF5774.259151656012
aF21551.477733950713
aF12325.758594415312
aF30006.978367062107
asS'Bacteria.Firmicutes.Clostridia.Oscillospirales.Butyricicoccaceae.Butyricicoccus'
p469
(lp470
F112.62760195357701
aF447.3051758515858
aF0.0
aF406.2769793306588
aF0.0
aF0.0
aF0.0
aF0.0
aF0.0
aF285.8659696982072
aF0.0
aF0.0
aF514.4915108900701
aF0.0
aF0.0
asS'Bacteria.Firmicutes.Clostridia.Peptostreptococcales_Tissierellales.Anaerovoracaceae.Family_XIII_AD3011_group'
p471
(lp472
F993.1706717724519
aF0.0
aF137.13080168776372
aF0.0
aF197.0055161544523
aF305.41345346262506
aF0.0
aF0.0
aF0.0
aF0.0
aF0.0
aF0.0
aF0.0
aF0.0
aF0.0
asS'Bacteria.Firmicutes.Clostridia.Oscillospirales.Hungateiclostridiaceae.Ruminiclostridium'
p473
(lp474
F0.0
aF0.0
aF0.0
aF57.13270021837389
aF0.0
aF0.0
aF0.0
aF0.0
aF0.0
aF0.0
aF0.0
aF0.0
aF0.0
aF0.0
aF0.0
asS'Bacteria.Bacteroidota.Bacteroidia.Bacteroidales.Bacteroidaceae.Bacteroides'
p475
(lp476
F2621.1514636468833
aF447.3051758515858
aF0.0
aF3294.6523792595613
aF250.7342932874847
aF721.1150984534204
aF0.0
aF33875.73964497042
aF0.0
aF183.77098052027605
aF0.0
aF2088.175479372457
aF31441.147887726504
aF4168.347451929542
aF2791.3468248429867
asS'Bacteria.Proteobacteria.Alphaproteobacteria'
p477
(lp478
F61.43323742922382
aF310.83918999855956
aF316.45569620253167
aF0.0
aF0.0
aF135.73931265005558
aF934.6764980787206
aF7026.627218934913
aF646.987464617873
aF1919.3857965451054
aF0.0
aF0.0
aF1257.6459155090604
aF224.10470171664204
aF0.0
asS'Bacteria.Firmicutes.Clostridia.Christensenellales.Christensenellaceae'
p479
(lp480
F4924.8978672427775
aF576.1897180461106
aF2035.8649789029535
aF4786.450662739324
aF788.0220646178092
aF525.9898365189654
aF41541.17769238757
aF29807.692307692316
aF3720.17792155277
aF3859.190590925797
aF0.0
aF13872.748402091804
aF21437.146287086252
aF1568.7329120164943
aF0.0
asS'Bacteria.Actinobacteriota.Actinobacteria.Corynebacteriales.Corynebacteriaceae.Corynebacterium'
p481
(lp482
F0.0
aF0.0
aF0.0
aF0.0
aF0.0
aF0.0
aF5919.6178211652295
aF0.0
aF0.0
aF0.0
aF0.0
aF0.0
aF0.0
aF0.0
aF0.0
asS'Bacteria.Deferribacterota.Deferribacteres'
p483
(lp484
F0.0
aF0.0
aF0.0
aF0.0
aF411.920624686582
aF0.0
aF0.0
aF0.0
aF0.0
aF0.0
aF0.0
aF0.0
aF0.0
aF0.0
aF0.0
asS'Bacteria.Firmicutes.Clostridia.Clostridiales'
p485
(lp486
F60429.8278845465
aF433787.46180847764
aF235221.51898734178
aF25614.49393123763
aF190952.07393079728
aF294181.025340833
aF402326.3059507737
aF18639.053254437873
aF16983.42094621917
aF658737.2891738473
aF12681.159420289856
aF10350.087158628703
aF15091.750986108722
aF1613.5538523598227
aF0.0
asS'Bacteria.Proteobacteria.Gammaproteobacteria.Burkholderiales.Comamonadaceae.Delftia'
p487
(lp488
F0.0
aF386.6536265835741
aF0.0
aF0.0
aF0.0
aF161.190433771941
aF1557.7941634645342
aF45488.16568047339
aF3558.431055398302
aF5635.643402621799
aF0.0
aF1924.7530505520042
aF2858.2861716115003
aF761.955985836583
aF8374.04047452896
asS'Bacteria.Firmicutes.Bacilli.Lactobacillales'
p489
(lp490
F808.8709594847804
aF20371.33911039341
aF49451.47679324894
aF1295.007871616475
aF26953.936528404607
aF61040.27215732187
aF33648.35393083394
aF16272.18934911243
aF1779.215527699151
aF6268.632335524973
aF0.0
aF7299.535153980242
aF14520.093751786422
aF6185.28976737932
aF0.0
asS'Bacteria'
p491
(lp492
F1000000.0
aF1000000.0
aF1000000.0
aF1000000.0
aF1000000.0
aF1000000.0
aF1000000.0
aF1000000.0
aF1000000.0
aF1000000.0
aF1000000.0
aF1000000.0
aF1000000.0
aF1000000.0
aF1000000.0
asS'Bacteria.Firmicutes.Bacilli.Acholeplasmatales.Acholeplasmataceae'
p493
(lp494
F0.0
aF0.0
aF0.0
aF0.0
aF0.0
aF0.0
aF0.0
aF295.8579881656805
aF0.0
aF61.25699350675868
aF0.0
aF254.21266705403826
aF0.0
aF0.0
aF0.0
asS'Bacteria.Actinobacteriota.Actinobacteria'
p495
(lp496
F19156.931205012963
aF10818.720100681574
aF5991.561181434599
aF1491.7982834797626
aF5945.984669388924
aF6837.86787474655
aF13604.735694256933
aF10355.02958579882
aF4609.785685402345
aF163.35198268468983
aF0.0
aF635.5316676350958
aF13891.270794031892
aF81305.18578279772
aF14305.652477320307
asS'Bacteria.Firmicutes.Clostridia.Clostridiales.Clostridiaceae'
p497
(lp498
F60429.8278845465
aF433787.46180847764
aF235221.51898734178
aF25614.49393123763
aF190952.07393079728
aF294181.025340833
aF402326.3059507737
aF18639.053254437873
aF16983.42094621917
aF658737.2891738473
aF12681.159420289856
aF10350.087158628703
aF15091.750986108722
aF1613.5538523598227
aF0.0
asS'Bacteria.Firmicutes.Clostridia.Peptostreptococcales_Tissierellales.Anaerovoracaceae._Eubacterium__brachy_group'
p499
(lp500
F0.0
aF128.88454219452473
aF242.61603375527426
aF1231.5270935960593
aF358.1918475535496
aF0.0
aF0.0
aF0.0
aF1293.974929235746
aF0.0
aF0.0
aF0.0
aF0.0
aF0.0
aF0.0
asS'Bacteria.Gemmatimonadota.Gemmatimonadetes'
p501
(lp502
F0.0
aF0.0
aF0.0
aF0.0
aF0.0
aF0.0
aF0.0
aF0.0
aF0.0
aF0.0
aF2846.790890269151
aF0.0
aF0.0
aF0.0
aF0.0
asS'Bacteria.Firmicutes.Clostridia.Oscillospirales.Ruminococcaceae.Harryflintia'
p503
(lp504
F0.0
aF0.0
aF0.0
aF177.7461784571632
aF0.0
aF0.0
aF0.0
aF0.0
aF0.0
aF0.0
aF0.0
aF0.0
aF0.0
aF0.0
aF0.0
asS'Bacteria.Bacteroidota.Bacteroidia.Flavobacteriales.Weeksellaceae.Chryseobacterium'
p505
(lp506
F0.0
aF0.0
aF0.0
aF0.0
aF0.0
aF0.0
aF0.0
aF0.0
aF0.0
aF1245.55886797076
aF0.0
aF254.21266705403826
aF0.0
aF0.0
aF0.0
asS'Bacteria.Firmicutes.Clostridia.uncultured.uncultured'
p507
(lp508
F0.0
aF0.0
aF0.0
aF0.0
aF0.0
aF186.64155489382642
aF0.0
aF0.0
aF0.0
aF0.0
aF0.0
aF599.2155723416618
aF0.0
aF717.1350454932546
aF0.0
asS'Bacteria.Firmicutes.Clostridia.Oscillospirales.Ruminococcaceae'
p509
(lp510
F778.1543407701685
aF30.325774634005814
aF0.0
aF488.8019907571988
aF0.0
aF0.0
aF0.0
aF0.0
aF0.0
aF0.0
aF0.0
aF0.0
aF0.0
aF448.2094034332841
aF0.0
asS'Bacteria.Bacteroidota.Bacteroidia.Flavobacteriales.Weeksellaceae'
p511
(lp512
F0.0
aF0.0
aF0.0
aF0.0
aF0.0
aF0.0
aF0.0
aF0.0
aF0.0
aF1245.55886797076
aF0.0
aF254.21266705403826
aF0.0
aF0.0
aF0.0
asS'Bacteria.Acidobacteriota.Acidobacteriae.Bryobacterales.Bryobacteraceae.Bryobacter'
p513
(lp514
F0.0
aF0.0
aF0.0
aF0.0
aF0.0
aF0.0
aF0.0
aF0.0
aF0.0
aF0.0
aF0.0
aF0.0
aF685.9886811867601
aF0.0
aF0.0
asS'Bacteria.Actinobacteriota.Actinobacteria.Pseudonocardiales.Pseudonocardiaceae.Saccharopolyspora'
p515
(lp516
F0.0
aF0.0
aF0.0
aF0.0
aF0.0
aF0.0
aF0.0
aF0.0
aF0.0
aF0.0
aF0.0
aF0.0
aF0.0
aF32136.61422616647
aF0.0
asS'Bacteria.Firmicutes.Clostridia.Oscillospirales.Ruminococcaceae.uncultured'
p517
(lp518
F81.9109832389651
aF128.88454219452473
aF263.71308016877634
aF1612.4117617185518
aF322.37266279819465
aF933.2077744691322
aF0.0
aF0.0
aF0.0
aF245.02797402703473
aF0.0
aF2324.2300987797785
aF1143.3144686446
aF0.0
aF0.0
asS'Bacteria.Firmicutes.Clostridia.Oscillospirales.Oscillospiraceae.Oscillibacter'
p519
(lp520
F409.5549161948255
aF121.30309853602326
aF822.7848101265822
aF1745.7213955614245
aF286.5534780428397
aF144.22301969068405
aF0.0
aF0.0
aF0.0
aF0.0
aF0.0
aF835.2701917489829
aF0.0
aF493.0303437766125
aF0.0
asS'Bacteria.Firmicutes.Clostridia.Lachnospirales.Lachnospiraceae.Coprococcus'
p521
(lp522
F0.0
aF0.0
aF0.0
aF0.0
aF0.0
aF0.0
aF0.0
aF0.0
aF0.0
aF0.0
aF0.0
aF0.0
aF0.0
aF4257.989332616199
aF4884.856943475227
asS'Bacteria.Patescibacteria.Saccharimonadia.Saccharimonadales.Saccharimonadaceae.Candidatus_Saccharimonas'
p523
(lp524
F3798.6218477070065
aF5625.431194608079
aF15348.101265822785
aF2805.850388502362
aF1182.0330969267136
aF3834.63558236407
aF3738.705992314882
aF15088.757396449708
aF32511.12009704812
aF551.3129415608282
aF12681.159420289856
aF2306.072051133062
aF28468.530269250547
aF851.5978665232398
aF0.0
asS'Bacteria.Actinobacteriota.Coriobacteriia.Coriobacteriales.Eggerthellaceae.Adlercreutzia'
p525
(lp526
F1341.2923505380536
aF621.6783799971191
aF1983.1223628691982
aF806.2058808592759
aF5462.425675191631
aF4224.88610623298
aF5504.206044241354
aF3254.437869822486
aF4448.038819247877
aF4512.598521664557
aF0.0
aF8552.440441603716
aF0.0
aF5109.587199139439
aF16050.244242847175
asS'Bacteria.Firmicutes.Clostridia.Lachnospirales.Lachnospiraceae.Lachnospiraceae_FCS020_group'
p527
(lp528
F0.0
aF0.0
aF0.0
aF241.22695647757865
aF0.0
aF0.0
aF0.0
aF0.0
aF0.0
aF0.0
aF0.0
aF0.0
aF0.0
aF0.0
aF0.0
asS'Bacteria.Firmicutes.Clostridia.Lachnospirales.Lachnospiraceae'
p529
(lp530
F5017.047723386612
aF7437.3962289899255
aF9198.31223628692
aF44277.84266923976
aF7074.288989182604
aF6091.301655171244
aF8100.529650015578
aF27514.79289940829
aF51273.756570966434
aF3716.2576060766937
aF23809.52380952381
aF29416.037187681573
aF17835.705710855764
aF12998.072699565239
aF25471.039776692254
asS'Bacteria.Firmicutes.Bacilli.Erysipelotrichales.Erysipelatoclostridiaceae.Erysipelatoclostridium'
p531
(lp532
F0.0
aF0.0
aF0.0
aF0.0
aF0.0
aF0.0
aF0.0
aF739.6449704142013
aF1213.101496158512
aF0.0
aF0.0
aF1434.4857640906446
aF0.0
aF0.0
aF0.0
asS'Bacteria.Proteobacteria.Gammaproteobacteria.Burkholderiales.Burkholderiaceae.Burkholderia_Caballeronia_Paraburkholderia'
p533
(lp534
F1535.8309357305957
aF4526.121864125368
aF2278.481012658228
aF793.5097252551928
aF2149.1510853212976
aF1874.8992559788928
aF4777.235434624572
aF12869.822485207105
aF1617.4686615446824
aF4165.475558459591
aF0.0
aF2560.2847181870998
aF6116.732407248611
aF3809.7799291829147
aF10118.632240055827
asS'Bacteria.Patescibacteria.Saccharimonadia'
p535
(lp536
F3798.6218477070065
aF5625.431194608079
aF15348.101265822785
aF2805.850388502362
aF1182.0330969267136
aF3834.63558236407
aF3738.705992314882
aF15088.757396449708
aF32511.12009704812
aF551.3129415608282
aF12681.159420289856
aF2415.020337013364
aF28468.530269250547
aF851.5978665232398
aF0.0
asS'Bacteria.Actinobacteriota.Actinobacteria.Pseudonocardiales'
p537
(lp538
F0.0
aF0.0
aF0.0
aF0.0
aF0.0
aF101.8044844875417
aF0.0
aF0.0
aF0.0
aF0.0
aF0.0
aF0.0
aF0.0
aF32136.61422616647
aF5233.7752965806
asS'Bacteria.Firmicutes.Clostridia.Peptostreptococcales_Tissierellales.Peptostreptococcaceae'
p539
(lp540
F14907.79894949165
aF150954.12468442245
aF211729.95780590718
aF9807.780204154184
aF201321.72791747257
aF236143.98547589357
aF168241.7696541697
aF23668.639053254443
aF17873.028710068742
aF56111.406052190956
aF8281.573498964804
aF25294.160371876813
aF0.0
aF5109.587199139439
aF5233.7752965806
asS'Bacteria.Firmicutes.Bacilli.Erysipelotrichales.Erysipelotrichaceae.Holdemania'
p541
(lp542
F0.0
aF0.0
aF0.0
aF0.0
aF0.0
aF0.0
aF0.0
aF0.0
aF1213.101496158512
aF0.0
aF0.0
aF0.0
aF0.0
aF1254.9863296131955
aF0.0
asS'Bacteria.Firmicutes.Clostridia.Peptococcales.Peptococcaceae.uncultured'
p543
(lp544
F0.0
aF242.6061970720465
aF210.9704641350211
aF1072.8251485450207
aF0.0
aF279.96233234073964
aF0.0
aF0.0
aF0.0
aF0.0
aF0.0
aF780.7960488088319
aF0.0
aF851.5978665232398
aF0.0
asS'Bacteria.Verrucomicrobiota.Verrucomicrobiae.Verrucomicrobiales'
p545
(lp546
F91381.94067597044
aF3495.0455265691703
aF10991.5611814346
aF87171.80437763447
aF5354.968120925567
aF6159.171311496272
aF0.0
aF887.5739644970416
aF21188.839466235342
aF24400.702413525545
aF10093.167701863355
aF1071.3248111563041
aF914.6515749156802
aF55533.1450853839
aF142009.76971388696
asS'Bacteria.Actinobacteriota.Coriobacteriia.Coriobacteriales.Eggerthellaceae.uncultured'
p547
(lp548
F0.0
aF0.0
aF0.0
aF260.2711898837033
aF0.0
aF0.0
aF0.0
aF0.0
aF0.0
aF0.0
aF0.0
aF0.0
aF0.0
aF0.0
aF0.0
asS'Bacteria.Actinobacteriota.Actinobacteria.Micrococcales.Dermabacteraceae.Brachybacterium'
p549
(lp550
F0.0
aF0.0
aF0.0
aF0.0
aF0.0
aF0.0
aF0.0
aF0.0
aF0.0
aF0.0
aF0.0
aF217.89657176060425
aF0.0
aF0.0
aF0.0
asS'Bacteria.Proteobacteria.Alphaproteobacteria.Caulobacterales'
p551
(lp552
F0.0
aF0.0
aF0.0
aF0.0
aF0.0
aF0.0
aF0.0
aF961.5384615384618
aF0.0
aF632.9889329031731
aF0.0
aF0.0
aF0.0
aF0.0
aF0.0
asS'Bacteria.Campylobacterota'
p553
(lp554
F0.0
aF0.0
aF0.0
aF0.0
aF0.0
aF0.0
aF0.0
aF0.0
aF0.0
aF0.0
aF0.0
aF2306.072051133062
aF0.0
aF0.0
aF0.0
asS'Bacteria.Cyanobacteria.Cyanobacteriia'
p555
(lp556
F0.0
aF0.0
aF0.0
aF0.0
aF0.0
aF0.0
aF0.0
aF0.0
aF0.0
aF0.0
aF0.0
aF0.0
aF457.3257874578401
aF0.0
aF0.0
asS'Bacteria.Firmicutes.Clostridia.Clostridiales.Clostridiaceae.Clostridium_sensu_stricto_1'
p557
(lp558
F60429.8278845465
aF433787.46180847764
aF235221.51898734178
aF24878.11690620081
aF190952.07393079728
aF294181.025340833
aF402326.3059507737
aF18639.053254437873
aF16983.42094621917
aF658737.2891738473
aF12681.159420289856
aF9750.871586287041
aF15091.750986108722
aF1613.5538523598227
aF0.0
asS'Bacteria.Firmicutes.Clostridia.Lachnospirales.Lachnospiraceae.Blautia'
p559
(lp560
F255.97182262176597
aF75.81443658501453
aF632.9113924050633
aF0.0
aF1074.5755426606488
aF1399.8116617036983
aF3323.294215391006
aF54955.621301775165
aF18358.269308532148
aF0.0
aF0.0
aF43851.6850668216
aF1086.1487452123702
aF73640.80498408858
aF50942.07955338451
asS'Bacteria.Firmicutes.Clostridia.uncultured'
p561
(lp562
F0.0
aF0.0
aF0.0
aF0.0
aF0.0
aF186.64155489382642
aF0.0
aF0.0
aF0.0
aF0.0
aF0.0
aF599.2155723416618
aF0.0
aF717.1350454932546
aF0.0
asS'Bacteria.Cyanobacteria'
p563
(lp564
F286.6884413363779
aF0.0
aF0.0
aF50.78462241633235
aF0.0
aF0.0
aF519.2647211548448
aF0.0
aF0.0
aF0.0
aF0.0
aF1325.5374782103424
aF457.3257874578401
aF0.0
aF0.0
asS'Bacteria.Firmicutes.Clostridia.Oscillospirales.Ruminococcaceae.Subdoligranulum'
p565
(lp566
F0.0
aF0.0
aF179.32489451476795
aF0.0
aF0.0
aF0.0
aF0.0
aF8210.059171597633
aF38414.88071168621
aF0.0
aF0.0
aF926.060429982568
aF457.3257874578401
aF177401.28187889385
aF245638.52058618283
asS'Bacteria.Firmicutes.Clostridia.Clostridia_vadinBB60_group.Clostridia_vadinBB60_group.Clostridia_vadinBB60_group'
p567
(lp568
F307.1661871461191
aF0.0
aF158.22784810126583
aF387.23274592453413
aF340.28225517587214
aF398.73423090953827
aF0.0
aF0.0
aF566.1140315406388
aF0.0
aF0.0
aF562.8994770482277
aF0.0
aF0.0
aF0.0
asS'Bacteria.Firmicutes.Clostridia.Eubacteriales.Anaerofustaceae.Anaerofustis'
p569
(lp570
F327.6439329558604
aF75.81443658501453
aF189.873417721519
aF0.0
aF358.1918475535496
aF0.0
aF0.0
aF0.0
aF404.3671653861706
aF0.0
aF0.0
aF0.0
aF0.0
aF1703.1957330464795
aF0.0
asS'Bacteria.Actinobacteriota.Coriobacteriia.Coriobacteriales.Atopobiaceae.uncultured'
p571
(lp572
F122.86647485844765
aF0.0
aF0.0
aF0.0
aF0.0
aF0.0
aF0.0
aF0.0
aF0.0
aF530.893943725242
aF0.0
aF0.0
aF0.0
aF0.0
aF0.0
asS'Bacteria.Actinobacteriota.Actinobacteria.Micrococcales.Micrococcaceae'
p573
(lp574
F0.0
aF341.1649646325654
aF0.0
aF0.0
aF0.0
aF0.0
aF0.0
aF0.0
aF0.0
aF0.0
aF0.0
aF417.63509587449147
aF0.0
aF0.0
aF0.0
asS'Bacteria.Firmicutes.Bacilli.Lactobacillales.Lactobacillaceae'
p575
(lp576
F808.8709594847804
aF20212.128793564876
aF49451.47679324894
aF1295.007871616475
aF26953.936528404607
aF61040.27215732187
aF28351.853775054522
aF11242.60355029586
aF1779.215527699151
aF4042.961571446074
aF0.0
aF6028.471818710051
aF14520.093751786422
aF5557.796602572723
aF0.0
asS'Bacteria.Proteobacteria.Alphaproteobacteria.Rhizobiales.Beijerinckiaceae.Methylobacterium_Methylorubrum'
p577
(lp578
F61.43323742922382
aF310.83918999855956
aF0.0
aF0.0
aF0.0
aF0.0
aF0.0
aF0.0
aF0.0
aF0.0
aF0.0
aF0.0
aF0.0
aF0.0
aF0.0
asS'Bacteria.Firmicutes.Bacilli.Lactobacillales.Aerococcaceae'
p579
(lp580
F0.0
aF0.0
aF0.0
aF0.0
aF0.0
aF0.0
aF1246.2353307716273
aF813.6094674556215
aF0.0
aF0.0
aF0.0
aF272.3707147007553
aF0.0
aF0.0
aF0.0
asS'Bacteria.Proteobacteria.Alphaproteobacteria.Rhizobiales.Beijerinckiaceae'
p581
(lp582
F61.43323742922382
aF310.83918999855956
aF0.0
aF0.0
aF0.0
aF0.0
aF0.0
aF0.0
aF0.0
aF0.0
aF0.0
aF0.0
aF0.0
aF0.0
aF0.0
asS'Bacteria.Firmicutes.Clostridia.Oscillospirales.Oscillospiraceae'
p583
(lp584
F2938.5565236978728
aF545.8639434121047
aF791.1392405063291
aF7992.2299527703035
aF805.9316569954865
aF619.3106139658786
aF3738.705992314882
aF0.0
aF11322.280630812778
aF0.0
aF0.0
aF31032.10342823939
aF12347.796261361682
aF2823.71924162969
aF0.0
asS'Bacteria.Firmicutes.Clostridia.Oscillospirales.Oscillospiraceae.UCG_003'
p585
(lp586
F0.0
aF0.0
aF0.0
aF158.70194505103856
aF0.0
aF0.0
aF0.0
aF0.0
aF0.0
aF0.0
aF0.0
aF0.0
aF0.0
aF0.0
aF0.0
asS'Bacteria.Firmicutes.Clostridia.Christensenellales.Christensenellaceae.uncultured'
p587
(lp588
F163.8219664779302
aF0.0
aF0.0
aF0.0
aF0.0
aF0.0
aF0.0
aF0.0
aF0.0
aF0.0
aF0.0
aF0.0
aF0.0
aF0.0
aF0.0
asS'Bacteria.Firmicutes.Clostridia.Oscillospirales.Oscillospiraceae.UCG_005'
p589
(lp590
F737.198849150686
aF993.1691192636904
aF2394.5147679324896
aF1358.4886496368904
aF13396.375098502755
aF2070.0245179133476
aF4154.117769238758
aF7026.627218934913
aF171047.3109583502
aF0.0
aF0.0
aF1143.9570017431722
aF2686.7890013148103
aF1030.8816278965535
aF0.0
asS'Bacteria.Firmicutes.Bacilli.Lactobacillales.Lactobacillaceae.Ligilactobacillus'
p591
(lp592
F317.4050600509898
aF485.212394144093
aF0.0
aF146.0057894469555
aF0.0
aF0.0
aF0.0
aF9319.526627218936
aF0.0
aF837.1789112590354
aF0.0
aF1979.227193492155
aF0.0
aF0.0
aF0.0
asS'Bacteria.Acidobacteriota.Acidobacteriae.Bryobacterales.Bryobacteraceae'
p593
(lp594
F0.0
aF0.0
aF0.0
aF0.0
aF0.0
aF0.0
aF0.0
aF0.0
aF0.0
aF0.0
aF0.0
aF0.0
aF685.9886811867601
aF0.0
aF0.0
assS'subclass_sl'
p595
(dp596
g12
(I0
I8
tp597
sg10
(I8
I15
tp598
ssS'norm'
p599
F1000000.0
sS'cls'
p600
(dp601
S'class'
p602
(S'HSD-NC'
p603
S'HSD-NC'
p604
S'HSD-NC'
p605
S'HSD-NC'
p606
S'HSD-NC'
p607
S'HSD-NC'
p608
S'HSD-NC'
p609
g5
S'HSD-NR'
p610
S'HSD-NR'
p611
S'HSD-NR'
p612
S'HSD-NR'
p613
S'HSD-NR'
p614
S'HSD-NR'
p615
g3
tp616
sS'subclass'
p617
(lp618
S'HSD-NC_subcl'
p619
aS'HSD-NC_subcl'
p620
aS'HSD-NC_subcl'
p621
aS'HSD-NC_subcl'
p622
aS'HSD-NC_subcl'
p623
aS'HSD-NC_subcl'
p624
aS'HSD-NC_subcl'
p625
ag12
aS'HSD-NR_subcl'
p626
aS'HSD-NR_subcl'
p627
aS'HSD-NR_subcl'
p628
aS'HSD-NR_subcl'
p629
aS'HSD-NR_subcl'
p630
aS'HSD-NR_subcl'
p631
ag10
asS'subject'
p632
(S'S210421121688'
p633
S'S210421121689'
p634
S'S210421121690'
p635
S'S210421121698'
p636
S'S210421121699'
p637
S'S210421121700'
p638
S'S210421121701'
p639
S'S210421121702'
p640
S'S210421121691'
p641
S'S210421121692'
p642
S'S210421121693'
p643
S'S210421121707'
p644
S'S210421121708'
p645
S'S210421121709'
p646
S'S210421121710'
p647
tp648
ss.