(dp0
S'class_sl'
p1
(dp2
S'HSD-NR'
p3
(I8
I15
tp4
sS'HSD-NC'
p5
(I0
I8
tp6
ssS'class_hierarchy'
p7
(dp8
g3
(lp9
S'HSD-NR_subcl'
p10
asg5
(lp11
S'HSD-NC_subcl'
p12
assS'feats'
p13
(dp14
S'Bacteria.Chloroflexi'
p15
(lp16
F0.0
aF0.0
aF0.0
aF0.0
aF0.0
aF0.0
aF0.0
aF0.0
aF0.0
aF0.0
aF0.0
aF0.0
aF457.32578745784025
aF0.0
aF0.0
asS'Bacteria.Gemmatimonadota.Gemmatimonadetes.Gemmatimonadales'
p17
(lp18
F0.0
aF0.0
aF0.0
aF0.0
aF0.0
aF0.0
aF0.0
aF0.0
aF0.0
aF0.0
aF2846.790890269151
aF0.0
aF0.0
aF0.0
aF0.0
asS'Bacteria.Firmicutes.Bacilli.Acholeplasmatales'
p19
(lp20
F0.0
aF0.0
aF0.0
aF0.0
aF0.0
aF0.0
aF0.0
aF295.85798816568047
aF0.0
aF61.25699350675869
aF0.0
aF254.21266705403835
aF0.0
aF0.0
aF0.0
asS'Bacteria.Actinobacteriota.Actinobacteria.Micrococcales'
p21
(lp22
F0.0
aF341.16496463256533
aF0.0
aF0.0
aF0.0
aF0.0
aF0.0
aF0.0
aF0.0
aF0.0
aF0.0
aF635.531667635096
aF0.0
aF0.0
aF0.0
asS'Bacteria.Actinobacteriota.Actinobacteria.Streptomycetales'
p23
(lp24
F0.0
aF0.0
aF0.0
aF0.0
aF0.0
aF0.0
aF0.0
aF0.0
aF0.0
aF0.0
aF0.0
aF0.0
aF0.0
aF0.0
aF3489.1835310537326
asS'Bacteria.Campylobacterota.Campylobacteria'
p25
(lp26
F0.0
aF0.0
aF0.0
aF0.0
aF0.0
aF0.0
aF0.0
aF0.0
aF0.0
aF0.0
aF0.0
aF2306.072051133063
aF0.0
aF0.0
aF0.0
asS'Bacteria.Actinobacteriota.Actinobacteria.Bifidobacteriales'
p27
(lp28
F19156.931205012956
aF10477.555136049008
aF5991.5611814346
aF1491.798283479762
aF5945.984669388925
aF6736.063390259009
aF7685.117873091701
aF10355.029585798817
aF4609.785685402346
aF163.35198268468986
aF0.0
aF0.0
aF13891.270794031898
aF49168.571556631265
aF5582.693649685972
asS'Bacteria.Desulfobacterota.Desulfovibrionia.Desulfovibrionales'
p29
(lp30
F0.0
aF0.0
aF0.0
aF0.0
aF0.0
aF0.0
aF1869.3529961574407
aF4585.798816568047
aF0.0
aF0.0
aF0.0
aF12038.78558977339
aF14462.9280283542
aF0.0
aF0.0
asS'Bacteria.Proteobacteria.Gammaproteobacteria.Pseudomonadales'
p31
(lp32
F389.07717038508406
aF758.1443658501453
aF3259.4936708860764
aF355.49235691432625
aF1934.2359767891683
aF458.1201801939376
aF0.0
aF27884.615384615387
aF970.4811969268096
aF5411.034426430351
aF0.0
aF1634.2242882045323
aF0.0
aF2778.898301286362
aF15003.48918353105
asS'Bacteria.Firmicutes.Clostridia.Peptococcales'
p33
(lp34
F0.0
aF242.60619707204648
aF210.97046413502113
aF1072.8251485450203
aF0.0
aF483.571301315823
aF0.0
aF0.0
aF0.0
aF81.67599134234493
aF0.0
aF780.7960488088321
aF0.0
aF851.5978665232398
aF0.0
asS'Bacteria.Firmicutes.Clostridia'
p35
(lp36
F429377.37413865485
aF818962.7068786438
aF776592.8270042195
aF618613.8337311461
aF818683.2867683931
aF771499.8345677127
aF765396.198982241
aF498742.60355029587
aF799272.1391023049
aF810470.8620900887
aF361283.6438923396
aF826318.2742591517
aF309037.90087463555
aF656895.7016718213
aF595254.7103977669
asS'Bacteria.Firmicutes.Bacilli'
p37
(lp38
F49320.65078276184
aF111341.08156875234
aF124715.18987341774
aF18517.342948555175
aF126047.71115409413
aF178352.9731151324
aF176030.74047149232
aF115754.43786982248
aF54589.567327133045
aF97786.58063462247
aF8281.573498964804
aF29997.094712376533
aF80432.17286914766
aF37649.589888395865
aF71179.34403349613
asS'Bacteria.Firmicutes.Clostridia.Clostridia_vadinBB60_group'
p39
(lp40
F307.166187146119
aF0.0
aF158.22784810126583
aF387.23274592453396
aF340.2822551758722
aF398.73423090953827
aF0.0
aF0.0
aF566.114031540639
aF0.0
aF0.0
aF562.8994770482278
aF0.0
aF0.0
aF0.0
asS'Bacteria.Firmicutes.Bacilli.RF39'
p41
(lp42
F3317.3948211780853
aF1569.3588373098007
aF1793.2489451476797
aF2336.092631151287
aF5713.159968479117
aF7016.0257225997475
aF4257.9707134697255
aF26775.147928994083
aF12211.888394662355
aF2082.7377792297957
aF2846.790890269151
aF3450.0290528762353
aF14062.767964328588
aF1120.5235085832103
aF0.0
asS'Bacteria.Bacteroidota.Bacteroidia.Chitinophagales'
p43
(lp44
F0.0
aF0.0
aF0.0
aF0.0
aF0.0
aF0.0
aF0.0
aF0.0
aF0.0
aF0.0
aF0.0
aF0.0
aF857.4858514834506
aF0.0
aF0.0
asS'Bacteria.Actinobacteriota'
p45
(lp46
F27358.268401814334
aF14169.718197739216
aF12700.42194092827
aF12220.049768929966
aF19396.088545024715
aF17417.050554410256
aF27624.883165437735
aF25295.85798816568
aF23534.169025475134
aF19357.209948135747
aF3364.3892339544514
aF22443.346891342244
aF21722.97490424741
aF103939.76065617858
aF37683.18213538032
asS'Bacteria.Acidobacteriota.Acidobacteriae'
p47
(lp48
F0.0
aF0.0
aF0.0
aF0.0
aF0.0
aF0.0
aF0.0
aF0.0
aF0.0
aF0.0
aF0.0
aF0.0
aF685.9886811867605
aF0.0
aF0.0
asS'Bacteria.Proteobacteria.Gammaproteobacteria'
p49
(lp50
F6634.789642356171
aF11470.724255312698
aF13755.274261603377
aF3719.9735919963427
aF12088.974854932301
aF9662.942319275831
aF21912.971232734446
aF122041.42011834319
aF35341.69025475132
aF23420.590517417408
aF31832.298136645968
aF12692.475305055203
aF30526.49631281084
aF29268.074044193454
aF63503.140265177935
asS'Bacteria.Deferribacterota.Deferribacteres'
p51
(lp52
F0.0
aF0.0
aF0.0
aF0.0
aF411.92062468658213
aF0.0
aF0.0
aF0.0
aF0.0
aF0.0
aF0.0
aF0.0
aF0.0
aF0.0
aF0.0
asS'Bacteria.Patescibacteria.Saccharimonadia.Saccharimonadales'
p53
(lp54
F3798.6218477070047
aF5625.431194608078
aF15348.101265822786
aF2805.8503885023606
aF1182.0330969267138
aF3834.63558236407
aF3738.7059923148813
aF15088.757396449704
aF32511.120097048122
aF551.3129415608282
aF12681.159420289856
aF2415.0203370133645
aF28468.530269250557
aF851.5978665232398
aF0.0
asS'Bacteria.Proteobacteria.Gammaproteobacteria.Burkholderiales'
p55
(lp56
F2703.0624468858473
aF5178.126018756492
aF2721.5189873417726
aF1060.1289929409372
aF2399.885378608783
aF2214.247537604032
aF6335.029598089104
aF84541.42011834319
aF5175.899716942985
aF11352.962796585945
aF13198.757763975156
aF5283.9918651946555
aF8975.018578860116
aF13491.103043341853
aF18492.672714584784
asS'Bacteria.Firmicutes'
p57
(lp58
F478698.0249214167
aF930303.7884473961
aF901308.0168776371
aF637131.1766797013
aF944730.9979224873
aF949852.8076828452
aF941426.9394537334
aF614497.0414201183
aF853861.706429438
aF908257.4427247111
aF369565.2173913044
aF856315.3689715283
aF389470.07374378317
aF694545.291560217
aF666434.054431263
asS'Bacteria.Actinobacteriota.Actinobacteria'
p59
(lp60
F19156.931205012956
aF10818.720100681572
aF5991.5611814346
aF1491.798283479762
aF5945.984669388925
aF6837.86787474655
aF13604.73569425693
aF10355.029585798817
aF4609.785685402346
aF163.35198268468986
aF0.0
aF635.531667635096
aF13891.270794031898
aF81305.18578279774
aF14305.652477320304
asS'Bacteria.Bacteroidota'
p61
(lp62
F391780.23283196986
aF34624.45318837614
aF45580.16877637131
aF256900.36057081912
aF16835.016835016835
aF12937.653236958424
aF1973.2059403884095
aF210576.9230769231
aF32915.4872624343
aF22093.3556581043
aF569616.9772256728
aF89392.06856478793
aF511576.0589950267
aF115638.0260857873
aF90369.85345429168
asS'Bacteria.Proteobacteria.Alphaproteobacteria.Rhizobiales'
p63
(lp64
F61.433237429223794
aF310.83918999855956
aF221.51898734177217
aF0.0
aF0.0
aF135.73931265005558
aF934.6764980787203
aF6065.08875739645
aF646.9874646178731
aF1286.3968636419327
aF0.0
aF0.0
aF0.0
aF224.10470171664207
aF0.0
asS'Bacteria.Firmicutes.Clostridia.Oscillospirales'
p65
(lp66
F77139.66846529534
aF119839.87990993245
aF146445.1476793249
aF124193.79411914069
aF102389.13962318217
aF80103.16187761405
aF29078.824384671298
aF48372.781065088755
aF275131.4193287505
aF42614.448482868465
aF164855.07246376813
aF134060.8657757118
aF90779.16881038129
aF228048.94446685497
aF257850.66294487086
asS'Bacteria.Gemmatimonadota.Gemmatimonadetes'
p67
(lp68
F0.0
aF0.0
aF0.0
aF0.0
aF0.0
aF0.0
aF0.0
aF0.0
aF0.0
aF0.0
aF2846.790890269151
aF0.0
aF0.0
aF0.0
aF0.0
asS'Bacteria.Firmicutes.Clostridia.Clostridiales'
p69
(lp70
F60429.827884546474
aF433787.4618084776
aF235221.5189873418
aF25614.493931237615
aF190952.07393079734
aF294181.025340833
aF402326.3059507736
aF18639.05325443787
aF16983.42094621917
aF658737.2891738474
aF12681.159420289856
aF10350.087158628707
aF15091.75098610873
aF1613.553852359823
aF0.0
asS'Bacteria.Acidobacteriota'
p71
(lp72
F0.0
aF0.0
aF0.0
aF0.0
aF0.0
aF0.0
aF0.0
aF0.0
aF0.0
aF0.0
aF0.0
aF0.0
aF685.9886811867605
aF0.0
aF0.0
asS'Bacteria.Firmicutes.Clostridia.Peptostreptococcales_Tissierellales'
p73
(lp74
F16873.662547226802
aF151280.12676173798
aF212362.86919831226
aF13857.853841856684
aF202682.8569381761
aF236797.23091802196
aF168241.76965416968
aF23668.639053254436
aF19167.00363930449
aF56315.596030546825
aF8281.573498964804
aF26202.062754212668
aF0.0
aF5109.58719913944
aF5233.7752965805985
asS'Bacteria.Actinobacteriota.Actinobacteria.Corynebacteriales'
p75
(lp76
F0.0
aF0.0
aF0.0
aF0.0
aF0.0
aF0.0
aF5919.617821165229
aF0.0
aF0.0
aF0.0
aF0.0
aF0.0
aF0.0
aF0.0
aF0.0
asS'Bacteria.Verrucomicrobiota'
p77
(lp78
F91381.9406759704
aF3495.04552656917
aF10991.5611814346
aF87171.80437763444
aF5354.968120925568
aF6159.171311496272
aF0.0
aF887.5739644970414
aF21188.839466235346
aF24400.702413525545
aF10093.167701863355
aF1071.3248111563046
aF914.6515749156805
aF55533.145085383905
aF142009.76971388693
asS'Bacteria.Firmicutes.Bacilli.Staphylococcales'
p79
(lp80
F0.0
aF113.72165487752179
aF0.0
aF0.0
aF0.0
aF0.0
aF5711.911932703291
aF0.0
aF1617.4686615446826
aF0.0
aF0.0
aF907.9023823358514
aF1943.634596695821
aF0.0
aF0.0
asS'Bacteria.Cyanobacteria.Vampirivibrionia.Gastranaerophilales'
p81
(lp82
F286.68844133637776
aF0.0
aF0.0
aF50.784622416332326
aF0.0
aF0.0
aF519.2647211548447
aF0.0
aF0.0
aF0.0
aF0.0
aF1325.537478210343
aF0.0
aF0.0
aF0.0
asS'Bacteria.Patescibacteria'
p83
(lp84
F3798.6218477070047
aF5625.431194608078
aF15348.101265822786
aF2805.8503885023606
aF1182.0330969267138
aF3834.63558236407
aF3738.7059923148813
aF15088.757396449704
aF32511.120097048122
aF551.3129415608282
aF12681.159420289856
aF2415.0203370133645
aF28468.530269250557
aF851.5978665232398
aF0.0
asS'Bacteria.Verrucomicrobiota.Verrucomicrobiae.Verrucomicrobiales'
p85
(lp86
F91381.9406759704
aF3495.04552656917
aF10991.5611814346
aF87171.80437763444
aF5354.968120925568
aF6159.171311496272
aF0.0
aF887.5739644970414
aF21188.839466235346
aF24400.702413525545
aF10093.167701863355
aF1071.3248111563046
aF914.6515749156805
aF55533.145085383905
aF142009.76971388693
asS'Bacteria.Firmicutes.Clostridia.Christensenellales'
p87
(lp88
F4924.897867242775
aF576.1897180461104
aF2035.864978902954
aF4786.450662739322
aF788.0220646178094
aF525.9898365189654
aF41541.177692387566
aF29807.69230769231
aF3720.17792155277
aF3859.1905909257976
aF0.0
aF13872.74840209181
aF21437.146287086263
aF1568.7329120164945
aF0.0
asS'Bacteria.Bacteroidota.Bacteroidia.Bacteroidales'
p89
(lp90
F391780.23283196986
aF34624.45318837614
aF45580.16877637131
aF256900.36057081912
aF16835.016835016835
aF12937.653236958424
aF1973.2059403884095
aF210576.9230769231
aF32915.4872624343
aF20847.796790133543
aF569616.9772256728
aF89137.85589773388
aF510718.5731435432
aF115638.0260857873
aF90369.85345429168
asS'Bacteria.Cyanobacteria.Cyanobacteriia'
p91
(lp92
F0.0
aF0.0
aF0.0
aF0.0
aF0.0
aF0.0
aF0.0
aF0.0
aF0.0
aF0.0
aF0.0
aF0.0
aF457.32578745784025
aF0.0
aF0.0
asS'Bacteria.Proteobacteria.Alphaproteobacteria.Sphingomonadales'
p93
(lp94
F0.0
aF0.0
aF94.93670886075951
aF0.0
aF0.0
aF0.0
aF0.0
aF0.0
aF0.0
aF0.0
aF0.0
aF0.0
aF0.0
aF0.0
aF0.0
asS'Bacteria.Actinobacteriota.Coriobacteriia'
p95
(lp96
F8201.337196801378
aF3350.998097057642
aF6708.860759493671
aF10728.251485450202
aF13450.10387563579
aF10579.182679663707
aF14020.147471180804
aF14940.828402366864
aF18924.38334007279
aF19193.857965451058
aF3364.3892339544514
aF21807.81522370715
aF7831.704110215515
aF22634.57487338085
aF23377.529658060008
asS'Bacteria.Firmicutes.Bacilli.Lactobacillales'
p97
(lp98
F808.87095948478
aF20371.339110393405
aF49451.476793248956
aF1295.0078716164742
aF26953.936528404614
aF61040.27215732187
aF33648.35393083393
aF16272.189349112426
aF1779.2155276991512
aF6268.632335524972
aF0.0
aF7299.535153980245
aF14520.09375178643
aF6185.289767379321
aF0.0
asS'Bacteria.Firmicutes.Clostridia.Clostridia_UCG_014'
p99
(lp100
F238002.60067371785
aF57126.17796680845
aF100316.45569620254
aF92523.23396475545
aF220789.45483200802
aF52386.89097588082
aF69996.88441167305
aF278476.33136094676
aF267852.8103517995
aF36488.74913219259
aF62111.801242236026
aF336214.41022661247
aF129366.03212713657
aF97530.36618708263
aF74319.6092114445
asS'Bacteria.Cyanobacteria'
p101
(lp102
F286.68844133637776
aF0.0
aF0.0
aF50.784622416332326
aF0.0
aF0.0
aF519.2647211548447
aF0.0
aF0.0
aF0.0
aF0.0
aF1325.537478210343
aF457.32578745784025
aF0.0
aF0.0
asS'Bacteria.Proteobacteria.Alphaproteobacteria.Caulobacterales'
p103
(lp104
F0.0
aF0.0
aF0.0
aF0.0
aF0.0
aF0.0
aF0.0
aF961.5384615384615
aF0.0
aF632.9889329031732
aF0.0
aF0.0
aF0.0
aF0.0
aF0.0
asS'Bacteria.Proteobacteria.Alphaproteobacteria'
p105
(lp106
F61.433237429223794
aF310.83918999855956
aF316.45569620253167
aF0.0
aF0.0
aF135.73931265005558
aF934.6764980787203
aF7026.627218934912
aF646.9874646178731
aF1919.3857965451057
aF0.0
aF0.0
aF1257.6459155090608
aF224.10470171664207
aF0.0
asS'Bacteria.Proteobacteria.Gammaproteobacteria.Xanthomonadales'
p107
(lp108
F0.0
aF0.0
aF0.0
aF0.0
aF89.54796188838742
aF0.0
aF0.0
aF0.0
aF0.0
aF0.0
aF0.0
aF0.0
aF0.0
aF0.0
aF0.0
asS'Bacteria.Proteobacteria'
p109
(lp110
F6696.222879785395
aF11781.563445311258
aF14071.729957805908
aF3719.9735919963427
aF12088.974854932301
aF9798.681631925889
aF22847.647730813165
aF129068.04733727808
aF35988.67771936919
aF25339.97631396251
aF31832.298136645968
aF12692.475305055203
aF31784.1422283199
aF29492.1787459101
aF63503.140265177935
asS'Bacteria.Bacteroidota.Bacteroidia'
p111
(lp112
F391780.23283196986
aF34624.45318837614
aF45580.16877637131
aF256900.36057081912
aF16835.016835016835
aF12937.653236958424
aF1973.2059403884095
aF210576.9230769231
aF32915.4872624343
aF22093.3556581043
aF569616.9772256728
aF89392.06856478793
aF511576.0589950267
aF115638.0260857873
aF90369.85345429168
asS'Bacteria.Firmicutes.Clostridia.Lachnospirales'
p113
(lp114
F23262.719239866077
aF52016.28494097846
aF70379.74683544305
aF356177.9493169468
aF100186.25976072784
aF106368.7188753998
aF51926.47211548447
aF99778.10650887573
aF136352.60816821674
aF10413.688896148979
aF86956.52173913043
aF292108.5124927368
aF37958.04035900074
aF289408.8117968716
aF250523.37752965803
asS'Bacteria.Desulfobacterota.Desulfovibrionia'
p115
(lp116
F0.0
aF0.0
aF0.0
aF0.0
aF0.0
aF0.0
aF1869.3529961574407
aF4585.798816568047
aF0.0
aF0.0
aF0.0
aF12038.78558977339
aF14462.9280283542
aF0.0
aF0.0
asS'Bacteria.Campylobacterota.Campylobacteria.Campylobacterales'
p117
(lp118
F0.0
aF0.0
aF0.0
aF0.0
aF0.0
aF0.0
aF0.0
aF0.0
aF0.0
aF0.0
aF0.0
aF2306.072051133063
aF0.0
aF0.0
aF0.0
asS'Bacteria'
p119
(lp120
F1000000.0
aF1000000.0
aF1000000.0
aF1000000.0
aF1000000.0
aF1000000.0
aF1000000.0
aF1000000.0
aF1000000.0
aF1000000.0
aF1000000.0
aF1000000.0
aF1000000.0
aF1000000.0
aF1000000.0
asS'Bacteria.Desulfobacterota'
p121
(lp122
F0.0
aF0.0
aF0.0
aF0.0
aF0.0
aF0.0
aF1869.3529961574407
aF4585.798816568047
aF0.0
aF0.0
aF0.0
aF12038.78558977339
aF14462.9280283542
aF0.0
aF0.0
asS'Bacteria.Patescibacteria.Saccharimonadia'
p123
(lp124
F3798.6218477070047
aF5625.431194608078
aF15348.101265822786
aF2805.8503885023606
aF1182.0330969267138
aF3834.63558236407
aF3738.7059923148813
aF15088.757396449704
aF32511.120097048122
aF551.3129415608282
aF12681.159420289856
aF2415.0203370133645
aF28468.530269250557
aF851.5978665232398
aF0.0
asS'Bacteria.Campylobacterota'
p125
(lp126
F0.0
aF0.0
aF0.0
aF0.0
aF0.0
aF0.0
aF0.0
aF0.0
aF0.0
aF0.0
aF0.0
aF2306.072051133063
aF0.0
aF0.0
aF0.0
asS'Bacteria.Actinobacteriota.Coriobacteriia.Coriobacteriales'
p127
(lp128
F8201.337196801378
aF3350.998097057642
aF6708.860759493671
aF10728.251485450202
aF13450.10387563579
aF10579.182679663707
aF14020.147471180804
aF14940.828402366864
aF18924.38334007279
aF19193.857965451058
aF3364.3892339544514
aF21807.81522370715
aF7831.704110215515
aF22634.57487338085
aF23377.529658060008
asS'Bacteria.Proteobacteria.Alphaproteobacteria.Rhodobacterales'
p129
(lp130
F0.0
aF0.0
aF0.0
aF0.0
aF0.0
aF0.0
aF0.0
aF0.0
aF0.0
aF0.0
aF0.0
aF0.0
aF1257.6459155090608
aF0.0
aF0.0
asS'Bacteria.Firmicutes.Bacilli.Exiguobacterales'
p131
(lp132
F0.0
aF0.0
aF0.0
aF0.0
aF0.0
aF0.0
aF0.0
aF0.0
aF0.0
aF0.0
aF0.0
aF0.0
aF0.0
aF717.1350454932547
aF0.0
asS'Bacteria.Firmicutes.Clostridia.Eubacteriales'
p133
(lp134
F327.64393295586024
aF75.81443658501453
aF189.87341772151902
aF0.0
aF358.1918475535497
aF0.0
aF0.0
aF0.0
aF404.36716538617065
aF0.0
aF0.0
aF0.0
aF0.0
aF1703.1957330464795
aF0.0
asS'Bacteria.Cyanobacteria.Cyanobacteriia.Chloroplast'
p135
(lp136
F0.0
aF0.0
aF0.0
aF0.0
aF0.0
aF0.0
aF0.0
aF0.0
aF0.0
aF0.0
aF0.0
aF0.0
aF457.32578745784025
aF0.0
aF0.0
asS'Bacteria.Bacteroidota.Bacteroidia.Flavobacteriales'
p137
(lp138
F0.0
aF0.0
aF0.0
aF0.0
aF0.0
aF0.0
aF0.0
aF0.0
aF0.0
aF1245.5588679707603
aF0.0
aF254.21266705403835
aF0.0
aF0.0
aF0.0
asS'Bacteria.Proteobacteria.Gammaproteobacteria.Enterobacterales'
p139
(lp140
F3542.650025085239
aF5534.453870706061
aF7774.2616033755285
aF2304.3522421410794
aF7665.305537645963
aF6990.574601477862
aF15577.94163464534
aF9615.384615384615
aF29195.309340881522
aF6656.593294401112
aF18633.540372670806
aF5774.259151656014
aF21551.477733950724
aF12998.07269956524
aF30006.9783670621
asS'Bacteria.Gemmatimonadota'
p141
(lp142
F0.0
aF0.0
aF0.0
aF0.0
aF0.0
aF0.0
aF0.0
aF0.0
aF0.0
aF0.0
aF2846.790890269151
aF0.0
aF0.0
aF0.0
aF0.0
asS'Bacteria.Firmicutes.Clostridia.Monoglobales'
p143
(lp144
F8109.187340657541
aF4018.16513900577
aF9272.151898734177
aF0.0
aF197.00551615445235
aF67.86965632502779
aF2284.764773081316
aF0.0
aF79094.217549535
aF1960.223792216278
aF26397.515527950312
aF11566.676350958745
aF14405.76230492197
aF30343.776612433336
aF7327.285415212838
asS'Bacteria.Chloroflexi.Anaerolineae'
p145
(lp146
F0.0
aF0.0
aF0.0
aF0.0
aF0.0
aF0.0
aF0.0
aF0.0
aF0.0
aF0.0
aF0.0
aF0.0
aF457.32578745784025
aF0.0
aF0.0
asS'Bacteria.Cyanobacteria.Vampirivibrionia'
p147
(lp148
F286.68844133637776
aF0.0
aF0.0
aF50.784622416332326
aF0.0
aF0.0
aF519.2647211548447
aF0.0
aF0.0
aF0.0
aF0.0
aF1325.537478210343
aF0.0
aF0.0
aF0.0
asS'Bacteria.Chloroflexi.Anaerolineae.Anaerolineales'
p149
(lp150
F0.0
aF0.0
aF0.0
aF0.0
aF0.0
aF0.0
aF0.0
aF0.0
aF0.0
aF0.0
aF0.0
aF0.0
aF457.32578745784025
aF0.0
aF0.0
asS'Bacteria.Deferribacterota.Deferribacteres.Deferribacterales'
p151
(lp152
F0.0
aF0.0
aF0.0
aF0.0
aF411.92062468658213
aF0.0
aF0.0
aF0.0
aF0.0
aF0.0
aF0.0
aF0.0
aF0.0
aF0.0
aF0.0
asS'Bacteria.Verrucomicrobiota.Verrucomicrobiae'
p153
(lp154
F91381.9406759704
aF3495.04552656917
aF10991.5611814346
aF87171.80437763444
aF5354.968120925568
aF6159.171311496272
aF0.0
aF887.5739644970414
aF21188.839466235346
aF24400.702413525545
aF10093.167701863355
aF1071.3248111563046
aF914.6515749156805
aF55533.145085383905
aF142009.76971388693
asS'Bacteria.Deferribacterota'
p155
(lp156
F0.0
aF0.0
aF0.0
aF0.0
aF411.92062468658213
aF0.0
aF0.0
aF0.0
aF0.0
aF0.0
aF0.0
aF0.0
aF0.0
aF0.0
aF0.0
asS'Bacteria.Actinobacteriota.Actinobacteria.Pseudonocardiales'
p157
(lp158
F0.0
aF0.0
aF0.0
aF0.0
aF0.0
aF101.8044844875417
aF0.0
aF0.0
aF0.0
aF0.0
aF0.0
aF0.0
aF0.0
aF32136.614226166475
aF5233.7752965805985
asS'Bacteria.Firmicutes.Clostridia.uncultured'
p159
(lp160
F0.0
aF0.0
aF0.0
aF0.0
aF0.0
aF186.64155489382642
aF0.0
aF0.0
aF0.0
aF0.0
aF0.0
aF599.215572341662
aF0.0
aF717.1350454932547
aF0.0
asS'Bacteria.Firmicutes.Bacilli.Erysipelotrichales'
p161
(lp162
F45194.38500209898
aF89286.66196617161
aF73470.4641350211
aF14886.242445787411
aF93380.6146572104
aF110296.67523521079
aF132412.5038944854
aF72411.24260355029
aF38980.99474322686
aF89373.95352636094
aF5434.782608695652
aF18085.415456130162
aF49905.67655633682
aF29626.64156694008
aF71179.34403349613
asS'Bacteria.Acidobacteriota.Acidobacteriae.Bryobacterales'
p163
(lp164
F0.0
aF0.0
aF0.0
aF0.0
aF0.0
aF0.0
aF0.0
aF0.0
aF0.0
aF0.0
aF0.0
aF0.0
aF685.9886811867605
aF0.0
aF0.0
assS'subclass_sl'
p165
(dp166
g12
(I0
I8
tp167
sg10
(I8
I15
tp168
ssS'norm'
p169
F1000000.0
sS'cls'
p170
(dp171
S'class'
p172
(S'HSD-NC'
p173
S'HSD-NC'
p174
S'HSD-NC'
p175
S'HSD-NC'
p176
S'HSD-NC'
p177
S'HSD-NC'
p178
S'HSD-NC'
p179
g5
S'HSD-NR'
p180
S'HSD-NR'
p181
S'HSD-NR'
p182
S'HSD-NR'
p183
S'HSD-NR'
p184
S'HSD-NR'
p185
g3
tp186
sS'subclass'
p187
(lp188
S'HSD-NC_subcl'
p189
aS'HSD-NC_subcl'
p190
aS'HSD-NC_subcl'
p191
aS'HSD-NC_subcl'
p192
aS'HSD-NC_subcl'
p193
aS'HSD-NC_subcl'
p194
aS'HSD-NC_subcl'
p195
ag12
aS'HSD-NR_subcl'
p196
aS'HSD-NR_subcl'
p197
aS'HSD-NR_subcl'
p198
aS'HSD-NR_subcl'
p199
aS'HSD-NR_subcl'
p200
aS'HSD-NR_subcl'
p201
ag10
asS'subject'
p202
(S'S210421121688'
p203
S'S210421121689'
p204
S'S210421121690'
p205
S'S210421121698'
p206
S'S210421121699'
p207
S'S210421121700'
p208
S'S210421121701'
p209
S'S210421121702'
p210
S'S210421121691'
p211
S'S210421121692'
p212
S'S210421121693'
p213
S'S210421121707'
p214
S'S210421121708'
p215
S'S210421121709'
p216
S'S210421121710'
p217
tp218
ss.