(dp0
S'class_sl'
p1
(dp2
S'HSD-NR'
p3
(I8
I15
tp4
sS'HSD-NC'
p5
(I0
I8
tp6
ssS'class_hierarchy'
p7
(dp8
g3
(lp9
S'HSD-NR_subcl'
p10
asg5
(lp11
S'HSD-NC_subcl'
p12
assS'feats'
p13
(dp14
S'Bacteria'
p15
(lp16
F1000000.0
aF1000000.0
aF1000000.0
aF1000000.0
aF1000000.0
aF1000000.0
aF1000000.0
aF1000000.0
aF1000000.0
aF1000000.0
aF1000000.0
aF1000000.0
aF1000000.0
aF1000000.0
aF1000000.0
assS'subclass_sl'
p17
(dp18
g12
(I0
I8
tp19
sg10
(I8
I15
tp20
ssS'norm'
p21
F1000000.0
sS'cls'
p22
(dp23
S'class'
p24
(S'HSD-NC'
p25
S'HSD-NC'
p26
S'HSD-NC'
p27
S'HSD-NC'
p28
S'HSD-NC'
p29
S'HSD-NC'
p30
S'HSD-NC'
p31
g5
S'HSD-NR'
p32
S'HSD-NR'
p33
S'HSD-NR'
p34
S'HSD-NR'
p35
S'HSD-NR'
p36
S'HSD-NR'
p37
g3
tp38
sS'subclass'
p39
(lp40
S'HSD-NC_subcl'
p41
aS'HSD-NC_subcl'
p42
aS'HSD-NC_subcl'
p43
aS'HSD-NC_subcl'
p44
aS'HSD-NC_subcl'
p45
aS'HSD-NC_subcl'
p46
aS'HSD-NC_subcl'
p47
ag12
aS'HSD-NR_subcl'
p48
aS'HSD-NR_subcl'
p49
aS'HSD-NR_subcl'
p50
aS'HSD-NR_subcl'
p51
aS'HSD-NR_subcl'
p52
aS'HSD-NR_subcl'
p53
ag10
asS'subject'
p54
(S'S210421121688'
p55
S'S210421121689'
p56
S'S210421121690'
p57
S'S210421121698'
p58
S'S210421121699'
p59
S'S210421121700'
p60
S'S210421121701'
p61
S'S210421121702'
p62
S'S210421121691'
p63
S'S210421121692'
p64
S'S210421121693'
p65
S'S210421121707'
p66
S'S210421121708'
p67
S'S210421121709'
p68
S'S210421121710'
p69
tp70
ss.