(dp0
S'class_sl'
p1
(dp2
S'HSD-NR'
p3
(I8
I15
tp4
sS'HSD-NC'
p5
(I0
I8
tp6
ssS'class_hierarchy'
p7
(dp8
g3
(lp9
S'HSD-NR_subcl'
p10
asg5
(lp11
S'HSD-NC_subcl'
p12
assS'feats'
p13
(dp14
S'Bacteria.Chloroflexi'
p15
(lp16
F0.0
aF0.0
aF0.0
aF0.0
aF0.0
aF0.0
aF0.0
aF0.0
aF0.0
aF0.0
aF0.0
aF0.0
aF457.32578745784025
aF0.0
aF0.0
asS'Bacteria.Campylobacterota.Campylobacteria'
p17
(lp18
F0.0
aF0.0
aF0.0
aF0.0
aF0.0
aF0.0
aF0.0
aF0.0
aF0.0
aF0.0
aF0.0
aF2306.0720511330624
aF0.0
aF0.0
aF0.0
asS'Bacteria.Firmicutes'
p19
(lp20
F478698.02492141665
aF930303.7884473961
aF901308.016877637
aF637131.1766797014
aF944730.9979224873
aF949852.8076828452
aF941426.9394537335
aF614497.0414201183
aF853861.706429438
aF908257.4427247111
aF369565.2173913043
aF856315.3689715281
aF389470.0737437832
aF694545.2915602169
aF666434.054431263
asS'Bacteria.Firmicutes.Clostridia'
p21
(lp22
F429377.37413865485
aF818962.7068786438
aF776592.8270042194
aF618613.8337311462
aF818683.2867683932
aF771499.8345677127
aF765396.1989822411
aF498742.60355029587
aF799272.1391023049
aF810470.8620900887
aF361283.64389233955
aF826318.2742591517
aF309037.90087463555
aF656895.7016718211
aF595254.7103977669
asS'Bacteria.Proteobacteria.Alphaproteobacteria'
p23
(lp24
F61.43323742922379
aF310.8391899985595
aF316.45569620253167
aF0.0
aF0.0
aF135.73931265005558
aF934.6764980787206
aF7026.627218934912
aF646.987464617873
aF1919.3857965451054
aF0.0
aF0.0
aF1257.6459155090608
aF224.104701716642
aF0.0
asS'Bacteria.Proteobacteria.Gammaproteobacteria'
p25
(lp26
F6634.78964235617
aF11470.724255312696
aF13755.274261603376
aF3719.9735919963437
aF12088.974854932301
aF9662.942319275831
aF21912.97123273445
aF122041.42011834319
aF35341.69025475131
aF23420.590517417404
aF31832.29813664596
aF12692.475305055199
aF30526.49631281084
aF29268.074044193447
aF63503.14026517795
asS'Bacteria.Deferribacterota.Deferribacteres'
p27
(lp28
F0.0
aF0.0
aF0.0
aF0.0
aF411.92062468658213
aF0.0
aF0.0
aF0.0
aF0.0
aF0.0
aF0.0
aF0.0
aF0.0
aF0.0
aF0.0
asS'Bacteria.Actinobacteriota'
p29
(lp30
F27358.26840181433
aF14169.718197739214
aF12700.421940928269
aF12220.049768929968
aF19396.088545024715
aF17417.050554410253
aF27624.883165437743
aF25295.85798816568
aF23534.16902547513
aF19357.209948135744
aF3364.3892339544514
aF22443.346891342244
aF21722.97490424741
aF103939.76065617857
aF37683.18213538032
asS'Bacteria'
p31
(lp32
F1000000.0
aF1000000.0
aF1000000.0
aF1000000.0
aF1000000.0
aF1000000.0
aF1000000.0
aF1000000.0
aF1000000.0
aF1000000.0
aF1000000.0
aF1000000.0
aF1000000.0
aF1000000.0
aF1000000.0
asS'Bacteria.Acidobacteriota.Acidobacteriae'
p33
(lp34
F0.0
aF0.0
aF0.0
aF0.0
aF0.0
aF0.0
aF0.0
aF0.0
aF0.0
aF0.0
aF0.0
aF0.0
aF685.9886811867605
aF0.0
aF0.0
asS'Bacteria.Actinobacteriota.Actinobacteria'
p35
(lp36
F19156.931205012952
aF10818.72010068157
aF5991.561181434599
aF1491.7982834797624
aF5945.984669388925
aF6837.867874746549
aF13604.735694256933
aF10355.029585798817
aF4609.785685402345
aF163.35198268468983
aF0.0
aF635.5316676350959
aF13891.270794031898
aF81305.18578279772
aF14305.652477320307
asS'Bacteria.Patescibacteria'
p37
(lp38
F3798.6218477070042
aF5625.431194608077
aF15348.101265822785
aF2805.850388502361
aF1182.0330969267138
aF3834.6355823640697
aF3738.705992314882
aF15088.757396449704
aF32511.12009704812
aF551.3129415608282
aF12681.159420289856
aF2415.020337013364
aF28468.530269250557
aF851.5978665232396
aF0.0
asS'Bacteria.Acidobacteriota'
p39
(lp40
F0.0
aF0.0
aF0.0
aF0.0
aF0.0
aF0.0
aF0.0
aF0.0
aF0.0
aF0.0
aF0.0
aF0.0
aF685.9886811867605
aF0.0
aF0.0
asS'Bacteria.Verrucomicrobiota'
p41
(lp42
F91381.94067597039
aF3495.0455265691694
aF10991.5611814346
aF87171.80437763446
aF5354.968120925568
aF6159.171311496271
aF0.0
aF887.5739644970414
aF21188.839466235342
aF24400.702413525545
aF10093.167701863355
aF1071.3248111563046
aF914.6515749156805
aF55533.14508538389
aF142009.76971388696
asS'Bacteria.Gemmatimonadota.Gemmatimonadetes'
p43
(lp44
F0.0
aF0.0
aF0.0
aF0.0
aF0.0
aF0.0
aF0.0
aF0.0
aF0.0
aF0.0
aF2846.790890269151
aF0.0
aF0.0
aF0.0
aF0.0
asS'Bacteria.Actinobacteriota.Coriobacteriia'
p45
(lp46
F8201.337196801376
aF3350.9980970576416
aF6708.860759493671
aF10728.251485450206
aF13450.10387563579
aF10579.182679663705
aF14020.147471180808
aF14940.828402366864
aF18924.383340072785
aF19193.857965451054
aF3364.3892339544514
aF21807.815223707148
aF7831.704110215515
aF22634.574873380843
aF23377.529658060015
asS'Bacteria.Cyanobacteria'
p47
(lp48
F286.6884413363777
aF0.0
aF0.0
aF50.78462241633233
aF0.0
aF0.0
aF519.2647211548448
aF0.0
aF0.0
aF0.0
aF0.0
aF1325.5374782103427
aF457.32578745784025
aF0.0
aF0.0
asS'Bacteria.Patescibacteria.Saccharimonadia'
p49
(lp50
F3798.6218477070042
aF5625.431194608077
aF15348.101265822785
aF2805.850388502361
aF1182.0330969267138
aF3834.6355823640697
aF3738.705992314882
aF15088.757396449704
aF32511.12009704812
aF551.3129415608282
aF12681.159420289856
aF2415.020337013364
aF28468.530269250557
aF851.5978665232396
aF0.0
asS'Bacteria.Proteobacteria'
p51
(lp52
F6696.222879785393
aF11781.563445311254
aF14071.729957805906
aF3719.9735919963437
aF12088.974854932301
aF9798.681631925887
aF22847.64773081317
aF129068.04733727811
aF35988.67771936919
aF25339.976313962514
aF31832.29813664596
aF12692.475305055199
aF31784.1422283199
aF29492.17874591009
aF63503.14026517795
asS'Bacteria.Bacteroidota.Bacteroidia'
p53
(lp54
F391780.23283196986
aF34624.45318837613
aF45580.168776371305
aF256900.36057081918
aF16835.016835016835
aF12937.653236958422
aF1973.20594038841
aF210576.9230769231
aF32915.48726243429
aF22093.355658104298
aF569616.9772256728
aF89392.06856478791
aF511576.0589950266
aF115638.02608578728
aF90369.8534542917
asS'Bacteria.Bacteroidota'
p55
(lp56
F391780.23283196986
aF34624.45318837613
aF45580.168776371305
aF256900.36057081918
aF16835.016835016835
aF12937.653236958422
aF1973.20594038841
aF210576.9230769231
aF32915.48726243429
aF22093.355658104298
aF569616.9772256728
aF89392.06856478791
aF511576.0589950266
aF115638.02608578728
aF90369.8534542917
asS'Bacteria.Campylobacterota'
p57
(lp58
F0.0
aF0.0
aF0.0
aF0.0
aF0.0
aF0.0
aF0.0
aF0.0
aF0.0
aF0.0
aF0.0
aF2306.0720511330624
aF0.0
aF0.0
aF0.0
asS'Bacteria.Desulfobacterota'
p59
(lp60
F0.0
aF0.0
aF0.0
aF0.0
aF0.0
aF0.0
aF1869.352996157441
aF4585.798816568047
aF0.0
aF0.0
aF0.0
aF12038.785589773388
aF14462.9280283542
aF0.0
aF0.0
asS'Bacteria.Desulfobacterota.Desulfovibrionia'
p61
(lp62
F0.0
aF0.0
aF0.0
aF0.0
aF0.0
aF0.0
aF1869.352996157441
aF4585.798816568047
aF0.0
aF0.0
aF0.0
aF12038.785589773388
aF14462.9280283542
aF0.0
aF0.0
asS'Bacteria.Gemmatimonadota'
p63
(lp64
F0.0
aF0.0
aF0.0
aF0.0
aF0.0
aF0.0
aF0.0
aF0.0
aF0.0
aF0.0
aF2846.790890269151
aF0.0
aF0.0
aF0.0
aF0.0
asS'Bacteria.Firmicutes.Bacilli'
p65
(lp66
F49320.65078276183
aF111341.08156875231
aF124715.18987341772
aF18517.34294855518
aF126047.71115409413
aF178352.9731151324
aF176030.74047149238
aF115754.43786982248
aF54589.56732713304
aF97786.58063462246
aF8281.573498964804
aF29997.094712376525
aF80432.17286914766
aF37649.58988839586
aF71179.34403349615
asS'Bacteria.Cyanobacteria.Vampirivibrionia'
p67
(lp68
F286.6884413363777
aF0.0
aF0.0
aF50.78462241633233
aF0.0
aF0.0
aF519.2647211548448
aF0.0
aF0.0
aF0.0
aF0.0
aF1325.5374782103427
aF0.0
aF0.0
aF0.0
asS'Bacteria.Verrucomicrobiota.Verrucomicrobiae'
p69
(lp70
F91381.94067597039
aF3495.0455265691694
aF10991.5611814346
aF87171.80437763446
aF5354.968120925568
aF6159.171311496271
aF0.0
aF887.5739644970414
aF21188.839466235342
aF24400.702413525545
aF10093.167701863355
aF1071.3248111563046
aF914.6515749156805
aF55533.14508538389
aF142009.76971388696
asS'Bacteria.Deferribacterota'
p71
(lp72
F0.0
aF0.0
aF0.0
aF0.0
aF411.92062468658213
aF0.0
aF0.0
aF0.0
aF0.0
aF0.0
aF0.0
aF0.0
aF0.0
aF0.0
aF0.0
asS'Bacteria.Cyanobacteria.Cyanobacteriia'
p73
(lp74
F0.0
aF0.0
aF0.0
aF0.0
aF0.0
aF0.0
aF0.0
aF0.0
aF0.0
aF0.0
aF0.0
aF0.0
aF457.32578745784025
aF0.0
aF0.0
asS'Bacteria.Chloroflexi.Anaerolineae'
p75
(lp76
F0.0
aF0.0
aF0.0
aF0.0
aF0.0
aF0.0
aF0.0
aF0.0
aF0.0
aF0.0
aF0.0
aF0.0
aF457.32578745784025
aF0.0
aF0.0
assS'subclass_sl'
p77
(dp78
g12
(I0
I8
tp79
sg10
(I8
I15
tp80
ssS'norm'
p81
F1000000.0
sS'cls'
p82
(dp83
S'class'
p84
(S'HSD-NC'
p85
S'HSD-NC'
p86
S'HSD-NC'
p87
S'HSD-NC'
p88
S'HSD-NC'
p89
S'HSD-NC'
p90
S'HSD-NC'
p91
g5
S'HSD-NR'
p92
S'HSD-NR'
p93
S'HSD-NR'
p94
S'HSD-NR'
p95
S'HSD-NR'
p96
S'HSD-NR'
p97
g3
tp98
sS'subclass'
p99
(lp100
S'HSD-NC_subcl'
p101
aS'HSD-NC_subcl'
p102
aS'HSD-NC_subcl'
p103
aS'HSD-NC_subcl'
p104
aS'HSD-NC_subcl'
p105
aS'HSD-NC_subcl'
p106
aS'HSD-NC_subcl'
p107
ag12
aS'HSD-NR_subcl'
p108
aS'HSD-NR_subcl'
p109
aS'HSD-NR_subcl'
p110
aS'HSD-NR_subcl'
p111
aS'HSD-NR_subcl'
p112
aS'HSD-NR_subcl'
p113
ag10
asS'subject'
p114
(S'S210421121688'
p115
S'S210421121689'
p116
S'S210421121690'
p117
S'S210421121698'
p118
S'S210421121699'
p119
S'S210421121700'
p120
S'S210421121701'
p121
S'S210421121702'
p122
S'S210421121691'
p123
S'S210421121692'
p124
S'S210421121693'
p125
S'S210421121707'
p126
S'S210421121708'
p127
S'S210421121709'
p128
S'S210421121710'
p129
tp130
ss.