(dp0
S'class_sl'
p1
(dp2
S'HSD-NR'
p3
(I8
I15
tp4
sS'HSD-NC'
p5
(I0
I8
tp6
ssS'class_hierarchy'
p7
(dp8
g3
(lp9
S'HSD-NR_subcl'
p10
asg5
(lp11
S'HSD-NC_subcl'
p12
assS'feats'
p13
(dp14
S'Bacteria.Firmicutes.Bacilli.Acholeplasmatales'
p15
(lp16
F0.0
aF0.0
aF0.0
aF0.0
aF0.0
aF0.0
aF0.0
aF295.8579881656805
aF0.0
aF61.256993506758654
aF0.0
aF254.21266705403835
aF0.0
aF0.0
aF0.0
asS'Bacteria.Firmicutes.Bacilli.Lactobacillales.Streptococcaceae'
p17
(lp18
F0.0
aF159.2103168285305
aF0.0
aF0.0
aF0.0
aF0.0
aF4050.264825007789
aF4215.976331360947
aF0.0
aF2225.670764078898
aF0.0
aF998.6926205694365
aF0.0
aF627.4931648065976
aF0.0
asS'Bacteria.Cyanobacteria.Vampirivibrionia.Gastranaerophilales.Gastranaerophilales'
p19
(lp20
F286.6884413363778
aF0.0
aF0.0
aF50.78462241633233
aF0.0
aF0.0
aF519.2647211548448
aF0.0
aF0.0
aF0.0
aF0.0
aF1325.537478210343
aF0.0
aF0.0
aF0.0
asS'Bacteria.Firmicutes.Clostridia.Oscillospirales.Ruminococcaceae.uncultured.uncultured_bacterium'
p21
(lp22
F81.91098323896509
aF128.8845421945247
aF263.71308016877623
aF1409.2732720532224
aF322.37266279819465
aF534.4735435595936
aF0.0
aF0.0
aF0.0
aF245.02797402703462
aF0.0
aF1725.0145264381176
aF1143.3144686446003
aF0.0
aF0.0
asS'Bacteria.Firmicutes.Clostridia.Clostridiales.Clostridiaceae.Candidatus_Arthromitus'
p23
(lp24
F0.0
aF0.0
aF0.0
aF736.3770250368188
aF0.0
aF0.0
aF0.0
aF0.0
aF0.0
aF0.0
aF0.0
aF599.215572341662
aF0.0
aF0.0
aF0.0
asS'Bacteria.Acidobacteriota.Acidobacteriae.Bryobacterales'
p25
(lp26
F0.0
aF0.0
aF0.0
aF0.0
aF0.0
aF0.0
aF0.0
aF0.0
aF0.0
aF0.0
aF0.0
aF0.0
aF685.9886811867602
aF0.0
aF0.0
asS'Bacteria.Actinobacteriota.Actinobacteria.Bifidobacteriales.Bifidobacteriaceae.Bifidobacterium.Bifidobacterium_pseudolongum'
p27
(lp28
F18655.2264326743
aF7452.559116306927
aF4356.5400843881835
aF1491.7982834797624
aF5032.595458127372
aF6023.431998846215
aF0.0
aF0.0
aF0.0
aF0.0
aF0.0
aF0.0
aF0.0
aF0.0
aF0.0
asS'Bacteria.Bacteroidota.Bacteroidia.Bacteroidales.Prevotellaceae.Prevotella_9'
p29
(lp30
F0.0
aF0.0
aF0.0
aF0.0
aF0.0
aF0.0
aF0.0
aF0.0
aF0.0
aF0.0
aF0.0
aF599.215572341662
aF0.0
aF0.0
aF0.0
asS'Bacteria.Firmicutes.Clostridia.Lachnospirales.Lachnospiraceae.Lachnospiraceae_UCG_001'
p31
(lp32
F0.0
aF598.9340490216147
aF527.4261603375525
aF895.0789700878573
aF0.0
aF0.0
aF0.0
aF0.0
aF0.0
aF0.0
aF0.0
aF0.0
aF0.0
aF0.0
aF0.0
asS'Bacteria.Actinobacteriota.Actinobacteria.Bifidobacteriales.Bifidobacteriaceae.Bifidobacterium.Bifidobacterium_animalis'
p33
(lp34
F501.70477233866114
aF3024.996019742079
aF1635.0210970464127
aF0.0
aF913.3892112615515
aF712.6313914127916
aF7685.117873091703
aF10355.029585798819
aF4609.785685402344
aF163.35198268468974
aF0.0
aF0.0
aF0.0
aF49168.57155663126
aF5582.693649685972
asS'Bacteria.Verrucomicrobiota.Verrucomicrobiae.Verrucomicrobiales.Akkermansiaceae.Akkermansia'
p35
(lp36
F91381.94067597041
aF3495.0455265691694
aF10991.561181434594
aF87171.80437763446
aF5354.968120925567
aF6159.1713114962695
aF0.0
aF887.5739644970415
aF21188.83946623534
aF24400.70241352553
aF10093.16770186335
aF1071.3248111563046
aF914.6515749156804
aF55533.14508538389
aF142009.76971388693
asS'Bacteria.Firmicutes.Clostridia.Lachnospirales.Lachnospiraceae.Lachnospiraceae_UCG_001.unidentified'
p37
(lp38
F0.0
aF940.09901365418
aF0.0
aF0.0
aF2811.806003295364
aF5573.795525692905
aF0.0
aF0.0
aF0.0
aF0.0
aF0.0
aF0.0
aF0.0
aF0.0
aF0.0
asS'Bacteria.Firmicutes.Bacilli.Exiguobacterales.Exiguobacteraceae.Exiguobacterium'
p39
(lp40
F0.0
aF0.0
aF0.0
aF0.0
aF0.0
aF0.0
aF0.0
aF0.0
aF0.0
aF0.0
aF0.0
aF0.0
aF0.0
aF717.1350454932544
aF0.0
asS'Bacteria.Firmicutes.Clostridia.Oscillospirales.Ruminococcaceae.Negativibacillus.uncultured_bacterium'
p41
(lp42
F0.0
aF0.0
aF0.0
aF0.0
aF0.0
aF0.0
aF0.0
aF0.0
aF0.0
aF0.0
aF0.0
aF671.8477629285301
aF0.0
aF0.0
aF0.0
asS'Bacteria.Firmicutes.Bacilli.Lactobacillales.Lactobacillaceae.Lactobacillus'
p43
(lp44
F0.0
aF1228.1938726772353
aF1719.4092827004213
aF0.0
aF11694.963822623395
aF15652.439489959528
aF5815.764876934261
aF0.0
aF0.0
aF0.0
aF0.0
aF0.0
aF800.3201280512203
aF1254.9863296131953
aF0.0
asS'Bacteria.Firmicutes.Clostridia.Oscillospirales.Ruminococcaceae.Incertae_Sedis.uncultured_organism'
p45
(lp46
F0.0
aF0.0
aF0.0
aF16892.235031232543
aF0.0
aF0.0
aF0.0
aF0.0
aF0.0
aF0.0
aF0.0
aF0.0
aF0.0
aF0.0
aF0.0
asS'Bacteria.Firmicutes.Clostridia.Oscillospirales.Oscillospiraceae.UCG_003.uncultured_bacterium'
p47
(lp48
F0.0
aF0.0
aF0.0
aF158.70194505103854
aF0.0
aF0.0
aF0.0
aF0.0
aF0.0
aF0.0
aF0.0
aF0.0
aF0.0
aF0.0
aF0.0
asS'Bacteria.Desulfobacterota.Desulfovibrionia'
p49
(lp50
F0.0
aF0.0
aF0.0
aF0.0
aF0.0
aF0.0
aF1869.352996157441
aF4585.798816568047
aF0.0
aF0.0
aF0.0
aF12038.78558977339
aF14462.928028354196
aF0.0
aF0.0
asS'Bacteria.Firmicutes.Bacilli.Erysipelotrichales.Erysipelotrichaceae.Faecalibaculum'
p51
(lp52
F5682.5744622032025
aF712.6557038991365
aF717.2995780590715
aF774.4654918490681
aF3492.3705136471085
aF2426.340213619743
aF0.0
aF0.0
aF0.0
aF1735.6148160248285
aF0.0
aF635.531667635096
aF0.0
aF0.0
aF0.0
asS'Bacteria.Firmicutes.Clostridia.Clostridiales.Clostridiaceae.Candidatus_Arthromitus.uncultured_bacterium'
p53
(lp54
F0.0
aF0.0
aF0.0
aF736.3770250368188
aF0.0
aF0.0
aF0.0
aF0.0
aF0.0
aF0.0
aF0.0
aF599.215572341662
aF0.0
aF0.0
aF0.0
asS'Bacteria.Cyanobacteria.Vampirivibrionia'
p55
(lp56
F286.6884413363778
aF0.0
aF0.0
aF50.78462241633233
aF0.0
aF0.0
aF519.2647211548448
aF0.0
aF0.0
aF0.0
aF0.0
aF1325.537478210343
aF0.0
aF0.0
aF0.0
asS'Bacteria.Firmicutes.Clostridia.Oscillospirales.Ruminococcaceae.Incertae_Sedis'
p57
(lp58
F378.8382974802135
aF0.0
aF0.0
aF0.0
aF0.0
aF161.19043377194095
aF0.0
aF0.0
aF0.0
aF530.8939437252418
aF19151.138716356105
aF1016.8506682161534
aF0.0
aF0.0
aF0.0
asS'Bacteria.Bacteroidota.Bacteroidia.Bacteroidales.Muribaculaceae.Muribaculaceae'
p59
(lp60
F0.0
aF0.0
aF0.0
aF476.10583515311566
aF0.0
aF0.0
aF0.0
aF24408.284023668642
aF0.0
aF2736.145709968553
aF8540.372670807452
aF5084.253341080768
aF25267.24975704567
aF0.0
aF0.0
asS'Bacteria.Firmicutes.Clostridia.Lachnospirales.Lachnospiraceae.Frisingicoccus'
p61
(lp62
F1279.8591131088294
aF0.0
aF0.0
aF564.9789243816972
aF0.0
aF0.0
aF0.0
aF7174.556213017752
aF1213.1014961585117
aF0.0
aF0.0
aF0.0
aF0.0
aF0.0
aF0.0
asS'Bacteria.Firmicutes.Clostridia.Clostridia_UCG_014.Clostridia_UCG_014.Clostridia_UCG_014.uncultured_Acetivibrio'
p63
(lp64
F307.16618714611906
aF0.0
aF0.0
aF0.0
aF823.841249373164
aF0.0
aF0.0
aF0.0
aF0.0
aF0.0
aF0.0
aF0.0
aF0.0
aF0.0
aF24424.28471737613
asS'Bacteria.Firmicutes.Clostridia.Lachnospirales.Lachnospiraceae.Lachnospiraceae_UCG_006'
p65
(lp66
F0.0
aF530.7010560951016
aF400.8438818565399
aF266.6192676857448
aF0.0
aF0.0
aF0.0
aF0.0
aF0.0
aF0.0
aF0.0
aF0.0
aF0.0
aF0.0
aF0.0
asS'Bacteria.Proteobacteria.Gammaproteobacteria.Pseudomonadales.Moraxellaceae.Acinetobacter'
p67
(lp68
F0.0
aF0.0
aF0.0
aF0.0
aF53.72877713303244
aF0.0
aF0.0
aF0.0
aF0.0
aF2736.145709968553
aF0.0
aF0.0
aF0.0
aF0.0
aF0.0
asS'Bacteria.Firmicutes.Clostridia.Clostridia_vadinBB60_group'
p69
(lp70
F307.16618714611906
aF0.0
aF158.22784810126575
aF387.23274592453413
aF340.28225517587214
aF398.7342309095381
aF0.0
aF0.0
aF566.1140315406387
aF0.0
aF0.0
aF562.8994770482277
aF0.0
aF0.0
aF0.0
asS'Bacteria.Firmicutes.Clostridia.Oscillospirales.Butyricicoccaceae.Butyricicoccus.uncultured_bacterium'
p71
(lp72
F112.627601953577
aF447.30517585158566
aF0.0
aF406.27697933065866
aF0.0
aF0.0
aF0.0
aF0.0
aF0.0
aF285.8659696982071
aF0.0
aF0.0
aF514.4915108900702
aF0.0
aF0.0
asS'Bacteria.Firmicutes.Clostridia.Oscillospirales.Oscillospiraceae.Colidextribacter'
p73
(lp74
F839.5875781993922
aF0.0
aF0.0
aF3954.852470671881
aF0.0
aF0.0
aF0.0
aF0.0
aF0.0
aF0.0
aF0.0
aF2160.807669959326
aF857.4858514834503
aF0.0
aF0.0
asS'Bacteria.Bacteroidota.Bacteroidia.Bacteroidales.Tannerellaceae'
p75
(lp76
F645.04899300685
aF280.51341536455374
aF0.0
aF7090.802904880403
aF0.0
aF152.70672673131247
aF0.0
aF1109.467455621302
aF0.0
aF0.0
aF0.0
aF217.89657176060433
aF0.0
aF5423.333781542737
aF0.0
asS'Bacteria.Bacteroidota.Bacteroidia.Bacteroidales.Muribaculaceae'
p77
(lp78
F376002.1296855644
aF32274.205654240675
aF45316.45569620251
aF237113.40206185565
aF15670.893330467794
aF11631.162352701635
aF1973.20594038841
aF165532.54437869825
aF30408.410837040024
aF19561.399926491602
aF569616.9772256727
aF78951.19116792563
aF465729.14880237804
aF82111.96270897763
aF70481.5073272854
asS'Bacteria.Proteobacteria.Alphaproteobacteria.Rhizobiales'
p79
(lp80
F61.43323742922381
aF310.8391899985595
aF221.51898734177203
aF0.0
aF0.0
aF135.73931265005552
aF934.6764980787206
aF6065.088757396451
aF646.9874646178729
aF1286.396863641932
aF0.0
aF0.0
aF0.0
aF224.104701716642
aF0.0
asS'Bacteria.Bacteroidota.Bacteroidia.Bacteroidales.Muribaculaceae.Muribaculaceae.uncultured_Bacteroidales'
p81
(lp82
F4607.492807191786
aF712.6557038991365
aF0.0
aF9280.889746584733
aF340.28225517587214
aF262.99491825948263
aF0.0
aF0.0
aF0.0
aF0.0
aF0.0
aF1380.011621150494
aF4401.760704281712
aF1882.479494419793
aF0.0
asS'Bacteria.Firmicutes.Clostridia.Lachnospirales.Defluviitaleaceae.Defluviitaleaceae_UCG_011'
p83
(lp84
F0.0
aF0.0
aF0.0
aF82.52501142654003
aF555.1973637080018
aF0.0
aF0.0
aF0.0
aF0.0
aF0.0
aF0.0
aF1289.2213829169089
aF0.0
aF0.0
aF0.0
asS'Bacteria.Actinobacteriota.Actinobacteria.Corynebacteriales'
p85
(lp86
F0.0
aF0.0
aF0.0
aF0.0
aF0.0
aF0.0
aF5919.6178211652295
aF0.0
aF0.0
aF0.0
aF0.0
aF0.0
aF0.0
aF0.0
aF0.0
asS'Bacteria.Verrucomicrobiota'
p87
(lp88
F91381.94067597041
aF3495.0455265691694
aF10991.561181434594
aF87171.80437763446
aF5354.968120925567
aF6159.1713114962695
aF0.0
aF887.5739644970415
aF21188.83946623534
aF24400.70241352553
aF10093.16770186335
aF1071.3248111563046
aF914.6515749156804
aF55533.14508538389
aF142009.76971388693
asS'Bacteria.Firmicutes.Bacilli.Lactobacillales'
p89
(lp90
F808.8709594847803
aF20371.339110393405
aF49451.47679324893
aF1295.0078716164746
aF26953.936528404607
aF61040.27215732185
aF33648.353930833946
aF16272.189349112428
aF1779.2155276991505
aF6268.63233552497
aF0.0
aF7299.535153980245
aF14520.093751786426
aF6185.289767379319
aF0.0
asS'Bacteria.Bacteroidota.Bacteroidia.Bacteroidales.Muribaculaceae.Muribaculaceae.uncultured_Barnesiella'
p91
(lp92
F0.0
aF0.0
aF0.0
aF0.0
aF0.0
aF0.0
aF0.0
aF0.0
aF0.0
aF0.0
aF0.0
aF508.4253341080767
aF0.0
aF0.0
aF0.0
asS'Bacteria.Bacteroidota.Bacteroidia.Bacteroidales'
p93
(lp94
F391780.23283197003
aF34624.45318837613
aF45580.16877637128
aF256900.36057081918
aF16835.01683501683
aF12937.653236958418
aF1973.20594038841
aF210576.9230769231
aF32915.48726243428
aF20847.79679013353
aF569616.9772256727
aF89137.8558977339
aF510718.5731435431
aF115638.02608578729
aF90369.85345429168
asS'Bacteria.Cyanobacteria'
p95
(lp96
F286.6884413363778
aF0.0
aF0.0
aF50.78462241633233
aF0.0
aF0.0
aF519.2647211548448
aF0.0
aF0.0
aF0.0
aF0.0
aF1325.537478210343
aF457.3257874578402
aF0.0
aF0.0
asS'Bacteria.Cyanobacteria.Cyanobacteriia.Chloroplast.Chloroplast.Chloroplast'
p97
(lp98
F0.0
aF0.0
aF0.0
aF0.0
aF0.0
aF0.0
aF0.0
aF0.0
aF0.0
aF0.0
aF0.0
aF0.0
aF457.3257874578402
aF0.0
aF0.0
asS'Bacteria.Firmicutes.Bacilli.RF39.RF39.RF39.unidentified'
p99
(lp100
F327.64393295586035
aF90.97732390201742
aF0.0
aF469.75775735107413
aF0.0
aF110.28819152817013
aF0.0
aF0.0
aF0.0
aF0.0
aF0.0
aF254.21266705403835
aF0.0
aF0.0
aF0.0
asS'Bacteria.Firmicutes.Clostridia.Peptococcales'
p101
(lp102
F0.0
aF242.60619707204646
aF210.970464135021
aF1072.8251485450205
aF0.0
aF483.57130131582284
aF0.0
aF0.0
aF0.0
aF81.67599134234487
aF0.0
aF780.7960488088321
aF0.0
aF851.5978665232396
aF0.0
asS'Bacteria.Proteobacteria.Gammaproteobacteria.Burkholderiales.Burkholderiaceae.Burkholderia_Caballeronia_Paraburkholderia.Burkholderia_multivorans'
p103
(lp104
F1535.8309357305952
aF4526.121864125367
aF2278.481012658227
aF793.5097252551926
aF2149.1510853212976
aF1874.8992559788921
aF4777.235434624572
aF12869.822485207103
aF1617.4686615446822
aF4165.47555845959
aF0.0
aF2560.2847181871007
aF6116.732407248613
aF3809.779929182914
aF10118.632240055824
asS'Bacteria.Firmicutes.Bacilli.Staphylococcales.Staphylococcaceae.Jeotgalicoccus'
p105
(lp106
F0.0
aF0.0
aF0.0
aF0.0
aF0.0
aF0.0
aF3946.41188077682
aF0.0
aF0.0
aF0.0
aF0.0
aF345.0029052876235
aF0.0
aF0.0
aF0.0
asS'Bacteria.Firmicutes.Clostridia.Oscillospirales.Ruminococcaceae.UBA1819'
p107
(lp108
F0.0
aF0.0
aF0.0
aF50.78462241633233
aF250.7342932874847
aF220.57638305634026
aF0.0
aF0.0
aF0.0
aF0.0
aF0.0
aF0.0
aF0.0
aF0.0
aF0.0
asS'Bacteria.Proteobacteria.Alphaproteobacteria.Rhodobacterales.Rhodobacteraceae.Rubellimicrobium'
p109
(lp110
F0.0
aF0.0
aF0.0
aF0.0
aF0.0
aF0.0
aF0.0
aF0.0
aF0.0
aF0.0
aF0.0
aF0.0
aF1257.6459155090606
aF0.0
aF0.0
asS'Bacteria.Proteobacteria.Gammaproteobacteria.Burkholderiales.Oxalobacteraceae'
p111
(lp112
F0.0
aF0.0
aF0.0
aF0.0
aF0.0
aF0.0
aF0.0
aF0.0
aF0.0
aF428.7989545473106
aF13198.757763975153
aF0.0
aF0.0
aF0.0
aF0.0
asS'Bacteria.Firmicutes.Clostridia.Oscillospirales._Eubacterium__coprostanoligenes_group._Eubacterium__coprostanoligenes_group.gut_metagenome'
p113
(lp114
F35713.18869218878
aF6883.950841919318
aF5137.130801687762
aF26261.99786704586
aF48839.45841392649
aF36904.12562673385
aF10073.735590403989
aF2736.686390532545
aF0.0
aF1531.4248376689663
aF28726.708074534152
aF24858.36722835561
aF1829.3031498313608
aF0.0
aF0.0
asS'Bacteria.Firmicutes.Clostridia.Clostridia_UCG_014.Clostridia_UCG_014.Clostridia_UCG_014.uncultured_bacterium'
p115
(lp116
F16730.318326558616
aF2873.3671465720504
aF5632.911392405061
aF20148.798943679853
aF13682.928576545595
aF3597.0917852264715
aF6335.029598089106
aF13461.538461538465
aF94541.04326728667
aF0.0
aF0.0
aF44233.004067402675
aF10346.995941233634
aF33212.316794406346
aF26168.876482902993
asS'Bacteria.Firmicutes.Clostridia.Oscillospirales.UCG_010'
p117
(lp118
F1535.8309357305952
aF45.48866195100871
aF0.0
aF615.7635467980296
aF0.0
aF322.3808675438819
aF0.0
aF0.0
aF0.0
aF0.0
aF0.0
aF653.6897152818129
aF0.0
aF0.0
aF0.0
asS'Bacteria.Firmicutes.Clostridia.Oscillospirales.UCG_010.UCG_010.unidentified'
p119
(lp120
F1433.442206681889
aF0.0
aF0.0
aF380.8846681224925
aF0.0
aF0.0
aF0.0
aF0.0
aF0.0
aF0.0
aF0.0
aF0.0
aF0.0
aF0.0
aF0.0
asS'Bacteria.Proteobacteria.Alphaproteobacteria.Sphingomonadales.Sphingomonadaceae.Sphingomonas'
p121
(lp122
F0.0
aF0.0
aF94.93670886075945
aF0.0
aF0.0
aF0.0
aF0.0
aF0.0
aF0.0
aF0.0
aF0.0
aF0.0
aF0.0
aF0.0
aF0.0
asS'Bacteria.Bacteroidota.Bacteroidia.Bacteroidales.Muribaculaceae.Muribaculaceae.uncultured_bacterium'
p123
(lp124
F371066.9929454167
aF31561.54995034154
aF45316.45569620251
aF226480.3717434361
aF15330.611075291923
aF11368.167434442152
aF1973.20594038841
aF141124.2603550296
aF30408.410837040024
aF16825.254216523048
aF561076.6045548653
aF71978.5008715863
aF436060.13834105065
aF80229.48321455785
aF70481.5073272854
asS'Bacteria.Proteobacteria.Gammaproteobacteria.Pseudomonadales.Pseudomonadaceae'
p125
(lp126
F389.0771703850842
aF758.1443658501452
aF3259.493670886074
aF272.9673454877863
aF1880.5071996561353
aF458.1201801939374
aF0.0
aF27884.61538461539
aF970.4811969268093
aF2674.8887164617945
aF0.0
aF1634.2242882045323
aF0.0
aF2106.584196136435
aF15003.48918353105
asS'Bacteria.Firmicutes.Clostridia.Eubacteriales.Anaerofustaceae.Anaerofustis.Anaerofustis_stercorihominis'
p127
(lp128
F0.0
aF0.0
aF0.0
aF0.0
aF0.0
aF0.0
aF0.0
aF0.0
aF404.36716538617054
aF0.0
aF0.0
aF0.0
aF0.0
aF1703.1957330464793
aF0.0
asS'Bacteria.Proteobacteria.Gammaproteobacteria.Pseudomonadales.Pseudomonadaceae.Pseudomonas'
p129
(lp130
F389.0771703850842
aF758.1443658501452
aF3259.493670886074
aF272.9673454877863
aF1880.5071996561353
aF458.1201801939374
aF0.0
aF27884.61538461539
aF970.4811969268093
aF2674.8887164617945
aF0.0
aF1634.2242882045323
aF0.0
aF2106.584196136435
aF15003.48918353105
asS'Bacteria.Firmicutes.Clostridia.uncultured.uncultured.uncultured.uncultured_bacterium'
p131
(lp132
F0.0
aF0.0
aF0.0
aF0.0
aF0.0
aF186.64155489382634
aF0.0
aF0.0
aF0.0
aF0.0
aF0.0
aF599.215572341662
aF0.0
aF717.1350454932544
aF0.0
asS'Bacteria.Actinobacteriota.Actinobacteria.Micrococcales.Micrococcaceae'
p133
(lp134
F0.0
aF341.16496463256533
aF0.0
aF0.0
aF0.0
aF0.0
aF0.0
aF0.0
aF0.0
aF0.0
aF0.0
aF417.63509587449164
aF0.0
aF0.0
aF0.0
asS'Bacteria.Firmicutes.Clostridia.Lachnospirales.Defluviitaleaceae.Defluviitaleaceae_UCG_011.uncultured_organism'
p135
(lp136
F0.0
aF0.0
aF0.0
aF0.0
aF555.1973637080018
aF0.0
aF0.0
aF0.0
aF0.0
aF0.0
aF0.0
aF1143.9570017431727
aF0.0
aF0.0
aF0.0
asS'Bacteria.Gemmatimonadota.Gemmatimonadetes.Gemmatimonadales'
p137
(lp138
F0.0
aF0.0
aF0.0
aF0.0
aF0.0
aF0.0
aF0.0
aF0.0
aF0.0
aF0.0
aF2846.79089026915
aF0.0
aF0.0
aF0.0
aF0.0
asS'Bacteria.Firmicutes.Clostridia.Lachnospirales.Lachnospiraceae.Blautia.uncultured_bacterium'
p139
(lp140
F0.0
aF0.0
aF0.0
aF0.0
aF0.0
aF0.0
aF0.0
aF0.0
aF3396.6841892438324
aF0.0
aF0.0
aF0.0
aF0.0
aF1748.0166733898077
aF0.0
asS'Bacteria.Firmicutes.Clostridia.Lachnospirales.Lachnospiraceae.Lachnospiraceae_FCS020_group.mouse_gut'
p141
(lp142
F0.0
aF0.0
aF0.0
aF241.2269564775786
aF0.0
aF0.0
aF0.0
aF0.0
aF0.0
aF0.0
aF0.0
aF0.0
aF0.0
aF0.0
aF0.0
asS'Bacteria.Firmicutes.Clostridia.Oscillospirales.Ruminococcaceae.Ruminococcus'
p143
(lp144
F624.5712471971088
aF0.0
aF411.39240506329094
aF2190.086841704332
aF26667.38305036177
aF30439.540861774953
aF2284.764773081317
aF2736.686390532545
aF4933.279417711281
aF12945.644627761663
aF0.0
aF11185.357350377688
aF6116.732407248613
aF10084.71157724889
aF4535.938590369852
asS'Bacteria.Firmicutes.Clostridia.Oscillospirales.Ruminococcaceae.CAG_352.uncultured_bacterium'
p145
(lp146
F1341.2923505380534
aF401.8165139005769
aF643.459915611814
aF17958.712101975525
aF0.0
aF542.9572506002221
aF0.0
aF0.0
aF1617.4686615446822
aF1020.9498917793109
aF10610.766045548651
aF0.0
aF3772.9377465271814
aF8336.694903859083
aF4187.020237264479
asS'Bacteria.Bacteroidota.Bacteroidia.Bacteroidales.Bacteroidaceae.Bacteroides.uncultured_bacterium'
p147
(lp148
F0.0
aF0.0
aF0.0
aF0.0
aF0.0
aF0.0
aF0.0
aF6434.911242603552
aF0.0
aF0.0
aF0.0
aF0.0
aF7260.046875893213
aF0.0
aF0.0
asS'Bacteria.Firmicutes.Clostridia.Lachnospirales.Lachnospiraceae.A2.unidentified'
p149
(lp150
F0.0
aF409.3979575590784
aF0.0
aF6373.470113249708
aF1790.959237767748
aF1798.5458926132358
aF0.0
aF0.0
aF0.0
aF0.0
aF0.0
aF0.0
aF0.0
aF0.0
aF0.0
asS'Bacteria.Firmicutes.Clostridia.Christensenellales'
p151
(lp152
F4924.897867242776
aF576.1897180461103
aF2035.8649789029525
aF4786.450662739323
aF788.0220646178092
aF525.9898365189653
aF41541.17769238757
aF29807.692307692312
aF3720.177921552769
aF3859.1905909257953
aF0.0
aF13872.74840209181
aF21437.146287086256
aF1568.7329120164943
aF0.0
asS'Bacteria.Patescibacteria.Saccharimonadia.Saccharimonadales.Saccharimonadaceae.Candidatus_Saccharimonas.uncultured_bacterium'
p153
(lp154
F3798.6218477070056
aF5625.431194608077
aF15348.101265822777
aF2805.850388502361
aF1182.0330969267136
aF3834.635582364069
aF3738.705992314882
aF15088.757396449706
aF32511.120097048108
aF551.312941560828
aF12681.159420289852
aF2306.072051133063
aF28468.53026925055
aF851.5978665232396
aF0.0
asS'Bacteria.Firmicutes.Clostridia.Lachnospirales.Lachnospiraceae.Fusicatenibacter.uncultured_organism'
p155
(lp156
F0.0
aF0.0
aF0.0
aF0.0
aF0.0
aF0.0
aF0.0
aF0.0
aF0.0
aF0.0
aF0.0
aF15561.446833236492
aF0.0
aF16807.85262874815
aF0.0
asS'Bacteria.Firmicutes.Clostridia.Lachnospirales.Lachnospiraceae.Lachnospiraceae_NK4A136_group.Clostridiales_bacterium'
p157
(lp158
F1587.0253002549487
aF0.0
aF0.0
aF10658.422629627748
aF9277.168851636934
aF2528.1446981072845
aF0.0
aF0.0
aF0.0
aF1245.5588679707596
aF0.0
aF0.0
aF0.0
aF0.0
aF0.0
asS'Bacteria.Acidobacteriota.Acidobacteriae.Bryobacterales.Bryobacteraceae'
p159
(lp160
F0.0
aF0.0
aF0.0
aF0.0
aF0.0
aF0.0
aF0.0
aF0.0
aF0.0
aF0.0
aF0.0
aF0.0
aF685.9886811867602
aF0.0
aF0.0
asS'Bacteria.Firmicutes.Bacilli.Lactobacillales.Streptococcaceae.Streptococcus'
p161
(lp162
F0.0
aF0.0
aF0.0
aF0.0
aF0.0
aF0.0
aF4050.264825007789
aF4215.976331360947
aF0.0
aF2225.670764078898
aF0.0
aF998.6926205694365
aF0.0
aF627.4931648065976
aF0.0
asS'Bacteria.Actinobacteriota.Actinobacteria.Streptomycetales.Streptomycetaceae.Streptomyces'
p163
(lp164
F0.0
aF0.0
aF0.0
aF0.0
aF0.0
aF0.0
aF0.0
aF0.0
aF0.0
aF0.0
aF0.0
aF0.0
aF0.0
aF0.0
aF3489.1835310537326
asS'Bacteria.Bacteroidota.Bacteroidia.Bacteroidales.Prevotellaceae'
p165
(lp166
F9225.224487288442
aF1523.8701753587918
aF263.71308016877623
aF5478.391143161851
aF304.46307042051717
aF110.28819152817013
aF0.0
aF10059.171597633138
aF2507.0764253942575
aF898.4359047657937
aF0.0
aF6736.635676932016
aF13548.276453438515
aF19631.571870377844
aF17096.999302163287
asS'Bacteria.Firmicutes.Clostridia.Lachnospirales.Lachnospiraceae.Anaerostipes.Anaerostipes_sp_'
p167
(lp168
F0.0
aF0.0
aF0.0
aF0.0
aF0.0
aF0.0
aF0.0
aF0.0
aF0.0
aF0.0
aF0.0
aF3050.5520046484608
aF0.0
aF0.0
aF0.0
asS'Bacteria.Bacteroidota.Bacteroidia.Bacteroidales.Muribaculaceae.Muribaculum'
p169
(lp170
F327.64393295586035
aF0.0
aF0.0
aF876.0347366817329
aF0.0
aF0.0
aF0.0
aF0.0
aF0.0
aF0.0
aF0.0
aF0.0
aF0.0
aF0.0
aF0.0
asS'Bacteria.Proteobacteria.Gammaproteobacteria.Burkholderiales.Burkholderiaceae'
p171
(lp172
F1535.8309357305952
aF4526.121864125367
aF2278.481012658227
aF793.5097252551926
aF2149.1510853212976
aF1874.8992559788921
aF4777.235434624572
aF12869.822485207103
aF1617.4686615446822
aF4165.47555845959
aF0.0
aF2560.2847181871007
aF6116.732407248613
aF3809.779929182914
aF10118.632240055824
asS'Bacteria.Firmicutes.Clostridia.Lachnospirales.Lachnospiraceae.Lachnospira'
p173
(lp174
F0.0
aF0.0
aF0.0
aF0.0
aF0.0
aF0.0
aF0.0
aF1701.1834319526629
aF0.0
aF0.0
aF0.0
aF0.0
aF0.0
aF0.0
aF0.0
asS'Bacteria.Firmicutes.Clostridia.Oscillospirales.Ruminococcaceae.Anaerotruncus.uncultured_bacterium'
p175
(lp176
F0.0
aF0.0
aF0.0
aF311.05581230003554
aF0.0
aF0.0
aF0.0
aF0.0
aF0.0
aF0.0
aF0.0
aF0.0
aF0.0
aF0.0
aF0.0
asS'Bacteria.Proteobacteria.Gammaproteobacteria.Pseudomonadales'
p177
(lp178
F389.0771703850842
aF758.1443658501452
aF3259.493670886074
aF355.4923569143263
aF1934.2359767891678
aF458.1201801939374
aF0.0
aF27884.61538461539
aF970.4811969268093
aF5411.034426430348
aF0.0
aF1634.2242882045323
aF0.0
aF2778.898301286361
aF15003.48918353105
asS'Bacteria.Firmicutes.Clostridia.Lachnospirales.Lachnospiraceae.Eisenbergiella'
p179
(lp180
F0.0
aF0.0
aF0.0
aF0.0
aF0.0
aF0.0
aF0.0
aF0.0
aF0.0
aF0.0
aF0.0
aF508.4253341080767
aF0.0
aF0.0
aF0.0
asS'Bacteria.Campylobacterota.Campylobacteria'
p181
(lp182
F0.0
aF0.0
aF0.0
aF0.0
aF0.0
aF0.0
aF0.0
aF0.0
aF0.0
aF0.0
aF0.0
aF2306.072051133063
aF0.0
aF0.0
aF0.0
asS'Bacteria.Desulfobacterota.Desulfovibrionia.Desulfovibrionales.Desulfovibrionaceae'
p183
(lp184
F0.0
aF0.0
aF0.0
aF0.0
aF0.0
aF0.0
aF1869.352996157441
aF4585.798816568047
aF0.0
aF0.0
aF0.0
aF12038.78558977339
aF14462.928028354196
aF0.0
aF0.0
asS'Bacteria.Campylobacterota.Campylobacteria.Campylobacterales.Helicobacteraceae.Helicobacter'
p185
(lp186
F0.0
aF0.0
aF0.0
aF0.0
aF0.0
aF0.0
aF0.0
aF0.0
aF0.0
aF0.0
aF0.0
aF2306.072051133063
aF0.0
aF0.0
aF0.0
asS'Bacteria.Firmicutes.Clostridia.Oscillospirales.Butyricicoccaceae.UCG_008'
p187
(lp188
F0.0
aF0.0
aF0.0
aF0.0
aF0.0
aF0.0
aF0.0
aF8505.917159763314
aF4205.418520016174
aF0.0
aF0.0
aF8497.966298663569
aF0.0
aF7216.171395275873
aF3489.1835310537326
asS'Bacteria.Firmicutes.Clostridia.Oscillospirales.Butyricicoccaceae.UCG_009'
p189
(lp190
F511.9436452435318
aF174.3732041455334
aF706.7510548523203
aF0.0
aF1110.3947274160037
aF262.99491825948263
aF0.0
aF0.0
aF0.0
aF0.0
aF0.0
aF1107.6409064497386
aF0.0
aF0.0
aF0.0
asS'Bacteria.Proteobacteria.Alphaproteobacteria.Rhizobiales.Beijerinckiaceae'
p191
(lp192
F61.43323742922381
aF310.8391899985595
aF0.0
aF0.0
aF0.0
aF0.0
aF0.0
aF0.0
aF0.0
aF0.0
aF0.0
aF0.0
aF0.0
aF0.0
aF0.0
asS'Bacteria.Firmicutes.Clostridia.Monoglobales.Monoglobaceae.Monoglobus.uncultured_rumen'
p193
(lp194
F0.0
aF0.0
aF0.0
aF0.0
aF0.0
aF0.0
aF0.0
aF0.0
aF10917.913465426604
aF0.0
aF0.0
aF581.0575246949448
aF0.0
aF358.5675227466272
aF0.0
asS'Bacteria.Actinobacteriota.Actinobacteria.Corynebacteriales.Corynebacteriaceae.Corynebacterium'
p195
(lp196
F0.0
aF0.0
aF0.0
aF0.0
aF0.0
aF0.0
aF5919.6178211652295
aF0.0
aF0.0
aF0.0
aF0.0
aF0.0
aF0.0
aF0.0
aF0.0
asS'Bacteria.Deferribacterota.Deferribacteres'
p197
(lp198
F0.0
aF0.0
aF0.0
aF0.0
aF411.920624686582
aF0.0
aF0.0
aF0.0
aF0.0
aF0.0
aF0.0
aF0.0
aF0.0
aF0.0
aF0.0
asS'Bacteria.Firmicutes.Clostridia.Oscillospirales.Oscillospiraceae.Colidextribacter.uncultured_bacterium'
p199
(lp200
F3378.8280586073097
aF197.11753512103775
aF1002.1097046413497
aF1580.6713727083438
aF0.0
aF381.7668168282812
aF0.0
aF0.0
aF0.0
aF0.0
aF0.0
aF7136.112725159792
aF4801.920768307322
aF0.0
aF0.0
asS'Bacteria.Deferribacterota.Deferribacteres.Deferribacterales.Deferribacteraceae.Mucispirillum.Mucispirillum_schaedleri'
p201
(lp202
F0.0
aF0.0
aF0.0
aF0.0
aF411.920624686582
aF0.0
aF0.0
aF0.0
aF0.0
aF0.0
aF0.0
aF0.0
aF0.0
aF0.0
aF0.0
asS'Bacteria.Actinobacteriota.Actinobacteria.Micrococcales.Dermabacteraceae'
p203
(lp204
F0.0
aF0.0
aF0.0
aF0.0
aF0.0
aF0.0
aF0.0
aF0.0
aF0.0
aF0.0
aF0.0
aF217.89657176060433
aF0.0
aF0.0
aF0.0
asS'Bacteria.Firmicutes.Clostridia.Lachnospirales.Lachnospiraceae.Lachnospiraceae_NK4A136_group.uncultured_bacterium'
p205
(lp206
F2928.317650793002
aF8468.472566546123
aF12974.68354430379
aF135963.13036412574
aF38684.71953578336
aF46261.65449254705
aF0.0
aF2662.721893491125
aF12292.761827739585
aF1898.9667987095183
aF0.0
aF2887.129575828007
aF6231.063854113072
aF5333.69190085608
aF0.0
asS'Bacteria.Verrucomicrobiota.Verrucomicrobiae.Verrucomicrobiales'
p207
(lp208
F91381.94067597041
aF3495.0455265691694
aF10991.561181434594
aF87171.80437763446
aF5354.968120925567
aF6159.1713114962695
aF0.0
aF887.5739644970415
aF21188.83946623534
aF24400.70241352553
aF10093.16770186335
aF1071.3248111563046
aF914.6515749156804
aF55533.14508538389
aF142009.76971388693
asS'Bacteria.Proteobacteria.Alphaproteobacteria.Sphingomonadales.Sphingomonadaceae.Sphingomonas.Sphingomonas_glacialis'
p209
(lp210
F0.0
aF0.0
aF94.93670886075945
aF0.0
aF0.0
aF0.0
aF0.0
aF0.0
aF0.0
aF0.0
aF0.0
aF0.0
aF0.0
aF0.0
aF0.0
asS'Bacteria.Actinobacteriota.Actinobacteria.Micrococcales.Dermabacteraceae.Brachybacterium'
p211
(lp212
F0.0
aF0.0
aF0.0
aF0.0
aF0.0
aF0.0
aF0.0
aF0.0
aF0.0
aF0.0
aF0.0
aF217.89657176060433
aF0.0
aF0.0
aF0.0
asS'Bacteria.Firmicutes.Clostridia.Lachnospirales.Lachnospiraceae.Lachnospiraceae_UCG_001.uncultured_bacterium'
p213
(lp214
F0.0
aF0.0
aF0.0
aF761.769336244985
aF0.0
aF135.73931265005552
aF1557.7941634645342
aF0.0
aF0.0
aF0.0
aF0.0
aF0.0
aF0.0
aF0.0
aF0.0
asS'Bacteria.Firmicutes.Clostridia.Lachnospirales.Lachnospiraceae.Blautia'
p215
(lp216
F255.9718226217659
aF0.0
aF0.0
aF0.0
aF0.0
aF0.0
aF3323.294215391006
aF54955.62130177516
aF14961.58511928831
aF0.0
aF0.0
aF43851.685066821614
aF1086.1487452123704
aF71892.78831069876
aF50942.079553384494
asS'Bacteria.Firmicutes.Clostridia.Oscillospirales.Oscillospiraceae.NK4A214_group.unidentified'
p217
(lp218
F2129.685564213092
aF0.0
aF0.0
aF2177.390686100249
aF322.37266279819465
aF797.4684618190762
aF0.0
aF0.0
aF808.7343307723411
aF0.0
aF0.0
aF2868.9715281812905
aF2000.8003201280508
aF0.0
aF0.0
asS'Bacteria.Firmicutes.Clostridia.Monoglobales.Monoglobaceae.Monoglobus.uncultured_Clostridium'
p219
(lp220
F0.0
aF0.0
aF0.0
aF0.0
aF197.0055161544523
aF0.0
aF0.0
aF0.0
aF58228.87181560856
aF0.0
aF22515.527950310556
aF10204.822777454969
aF13891.270794031894
aF29985.2090896867
aF7327.285415212838
asS'Bacteria.Actinobacteriota.Coriobacteriia.Coriobacteriales.Atopobiaceae.uncultured'
p221
(lp222
F122.86647485844762
aF0.0
aF0.0
aF0.0
aF0.0
aF0.0
aF0.0
aF0.0
aF0.0
aF530.8939437252418
aF0.0
aF0.0
aF0.0
aF0.0
aF0.0
asS'Bacteria.Actinobacteriota.Coriobacteriia.Coriobacteriales.uncultured'
p223
(lp224
F0.0
aF0.0
aF780.5907172995777
aF596.7193133919048
aF268.6438856651622
aF220.57638305634026
aF5296.500155779417
aF5917.15976331361
aF7925.596441568943
aF3900.0285865969677
aF3364.389233954451
aF7245.061011040094
aF2400.960384153661
aF3182.2867643763166
aF0.0
asS'Bacteria.Proteobacteria.Alphaproteobacteria.Rhizobiales.Beijerinckiaceae.Methylobacterium_Methylorubrum'
p225
(lp226
F0.0
aF310.8391899985595
aF0.0
aF0.0
aF0.0
aF0.0
aF0.0
aF0.0
aF0.0
aF0.0
aF0.0
aF0.0
aF0.0
aF0.0
aF0.0
asS'Bacteria.Firmicutes.Clostridia.Oscillospirales.Oscillospiraceae.UCG_003'
p227
(lp228
F0.0
aF0.0
aF0.0
aF158.70194505103854
aF0.0
aF0.0
aF0.0
aF0.0
aF0.0
aF0.0
aF0.0
aF0.0
aF0.0
aF0.0
aF0.0
asS'Bacteria.Firmicutes.Clostridia.Oscillospirales.Oscillospiraceae.UCG_005'
p229
(lp230
F737.1988491506858
aF902.1917953616728
aF2246.8354430379736
aF253.92311208166169
aF10101.010101010099
aF1136.816743444215
aF4154.117769238758
aF0.0
aF23453.29559239789
aF0.0
aF0.0
aF889.7443346891343
aF2686.7890013148112
aF0.0
aF0.0
asS'Bacteria.Firmicutes.Bacilli.Lactobacillales.Lactobacillaceae.Ligilactobacillus'
p231
(lp232
F317.40506005098973
aF0.0
aF0.0
aF146.00578944695548
aF0.0
aF0.0
aF0.0
aF9319.526627218936
aF0.0
aF837.178911259035
aF0.0
aF1979.2271934921557
aF0.0
aF0.0
aF0.0
asS'Bacteria.Firmicutes.Clostridia.Clostridia_UCG_014.Clostridia_UCG_014.Clostridia_UCG_014.uncultured_Clostridiales'
p233
(lp234
F696.2433575312032
aF166.79176048703195
aF421.940928270042
aF1542.5829058960946
aF0.0
aF0.0
aF0.0
aF0.0
aF0.0
aF449.21795238289684
aF0.0
aF1616.0662405578155
aF0.0
aF0.0
aF0.0
asS'Bacteria.Firmicutes.Clostridia.Oscillospirales.UCG_010.UCG_010.metagenome'
p235
(lp236
F102.38872904870635
aF0.0
aF0.0
aF234.87887867553707
aF0.0
aF0.0
aF0.0
aF0.0
aF0.0
aF0.0
aF0.0
aF326.84485764090647
aF0.0
aF0.0
aF0.0
asS'Bacteria.Firmicutes.Clostridia.Peptostreptococcales_Tissierellales.Anaerovoracaceae'
p237
(lp238
F0.0
aF0.0
aF0.0
aF2818.546544106445
aF0.0
aF0.0
aF0.0
aF0.0
aF0.0
aF0.0
aF0.0
aF272.3707147007554
aF0.0
aF0.0
aF0.0
asS'Bacteria.Firmicutes.Clostridia.Lachnospirales.Lachnospiraceae.Butyrivibrio'
p239
(lp240
F0.0
aF0.0
aF0.0
aF0.0
aF286.5534780428397
aF1281.039763134899
aF0.0
aF0.0
aF0.0
aF0.0
aF0.0
aF0.0
aF0.0
aF0.0
aF0.0
asS'Bacteria.Actinobacteriota.Actinobacteria.Streptomycetales'
p241
(lp242
F0.0
aF0.0
aF0.0
aF0.0
aF0.0
aF0.0
aF0.0
aF0.0
aF0.0
aF0.0
aF0.0
aF0.0
aF0.0
aF0.0
aF3489.1835310537326
asS'Bacteria.Proteobacteria.Gammaproteobacteria.Pseudomonadales.Moraxellaceae.Psychrobacter'
p243
(lp244
F0.0
aF0.0
aF0.0
aF82.52501142654003
aF0.0
aF0.0
aF0.0
aF0.0
aF0.0
aF0.0
aF0.0
aF0.0
aF0.0
aF0.0
aF0.0
asS'Bacteria.Firmicutes.Bacilli.RF39'
p245
(lp246
F3317.3948211780857
aF1569.3588373098007
aF1793.2489451476786
aF2336.092631151287
aF5713.159968479116
aF7016.025722599747
aF4257.970713469726
aF26775.147928994087
aF12211.88839466235
aF2082.7377792297943
aF2846.79089026915
aF3450.0290528762353
aF14062.767964328585
aF1120.52350858321
aF0.0
asS'Bacteria.Bacteroidota.Bacteroidia.Bacteroidales.Rikenellaceae.Alistipes.Alistipes_finegoldii'
p247
(lp248
F266.2106955266365
aF0.0
aF0.0
aF768.1174140470266
aF0.0
aF0.0
aF0.0
aF0.0
aF0.0
aF0.0
aF0.0
aF0.0
aF0.0
aF0.0
aF0.0
asS'Bacteria.Firmicutes.Clostridia.Oscillospirales.Oscillospiraceae.uncultured.uncultured_Clostridiales'
p249
(lp250
F532.421391053273
aF0.0
aF0.0
aF387.2327459245341
aF0.0
aF0.0
aF0.0
aF4437.869822485208
aF0.0
aF0.0
aF0.0
aF0.0
aF5087.749385468472
aF0.0
aF0.0
asS'Bacteria.Firmicutes.Clostridia.Lachnospirales.Lachnospiraceae.Sellimonas'
p251
(lp252
F0.0
aF0.0
aF0.0
aF0.0
aF0.0
aF0.0
aF0.0
aF0.0
aF0.0
aF0.0
aF0.0
aF0.0
aF0.0
aF672.314105149926
aF0.0
asS'Bacteria.Firmicutes.Clostridia.Lachnospirales.Lachnospiraceae.Tyzzerella'
p253
(lp254
F0.0
aF0.0
aF0.0
aF120.6134782387893
aF0.0
aF0.0
aF0.0
aF0.0
aF0.0
aF0.0
aF0.0
aF0.0
aF0.0
aF0.0
aF0.0
asS'Bacteria.Bacteroidota.Bacteroidia.Chitinophagales.Chitinophagaceae'
p255
(lp256
F0.0
aF0.0
aF0.0
aF0.0
aF0.0
aF0.0
aF0.0
aF0.0
aF0.0
aF0.0
aF0.0
aF0.0
aF857.4858514834503
aF0.0
aF0.0
asS'Bacteria.Firmicutes.Clostridia.Peptostreptococcales_Tissierellales.Peptostreptococcaceae.Romboutsia'
p257
(lp258
F14907.798949491646
aF150954.1246844224
aF211729.95780590706
aF9807.780204154182
aF193960.8854502471
aF229357.0198433907
aF168241.7696541697
aF23668.63905325444
aF17873.02871006874
aF56111.40605219093
aF8281.573498964803
aF25294.16037187682
aF0.0
aF5109.587199139438
aF5233.7752965805985
asS'Bacteria.Firmicutes.Bacilli.Lactobacillales.Aerococcaceae'
p259
(lp260
F0.0
aF0.0
aF0.0
aF0.0
aF0.0
aF0.0
aF1246.2353307716273
aF813.6094674556214
aF0.0
aF0.0
aF0.0
aF272.3707147007554
aF0.0
aF0.0
aF0.0
asS'Bacteria.Firmicutes.Clostridia.Lachnospirales.Lachnospiraceae.Roseburia'
p261
(lp262
F450.510407814308
aF144.04742951152758
aF253.16455696202522
aF16397.0849626733
aF250.7342932874847
aF1594.9369236381524
aF0.0
aF0.0
aF0.0
aF0.0
aF0.0
aF907.9023823358514
aF0.0
aF0.0
aF0.0
asS'Bacteria.Firmicutes.Clostridia.Lachnospirales.Lachnospiraceae.Coprococcus.metagenome'
p263
(lp264
F0.0
aF0.0
aF0.0
aF0.0
aF0.0
aF0.0
aF0.0
aF0.0
aF0.0
aF0.0
aF0.0
aF0.0
aF0.0
aF1703.1957330464793
aF0.0
asS'Bacteria.Firmicutes.Bacilli.Erysipelotrichales.Erysipelotrichaceae.uncultured'
p265
(lp266
F0.0
aF0.0
aF0.0
aF0.0
aF0.0
aF0.0
aF519.2647211548448
aF0.0
aF0.0
aF0.0
aF0.0
aF0.0
aF0.0
aF0.0
aF0.0
asS'Bacteria.Firmicutes.Clostridia.Peptostreptococcales_Tissierellales.Anaerovoracaceae.Family_XIII_AD3011_group.uncultured_bacterium'
p267
(lp268
F542.6602639581437
aF0.0
aF137.13080168776364
aF0.0
aF197.0055161544523
aF0.0
aF0.0
aF0.0
aF0.0
aF0.0
aF0.0
aF0.0
aF0.0
aF0.0
aF0.0
asS'Bacteria.Proteobacteria'
p269
(lp270
F6696.222879785395
aF11781.563445311254
aF14071.729957805903
aF3719.973591996343
aF12088.974854932298
aF9798.681631925885
aF22847.64773081317
aF129068.04733727813
aF35988.67771936918
aF25339.9763139625
aF31832.29813664596
aF12692.4753050552
aF31784.14222831989
aF29492.178745910092
aF63503.140265177935
asS'Bacteria.Bacteroidota.Bacteroidia'
p271
(lp272
F391780.23283197003
aF34624.45318837613
aF45580.16877637128
aF256900.36057081918
aF16835.01683501683
aF12937.653236958418
aF1973.20594038841
aF210576.9230769231
aF32915.48726243428
aF22093.35565810429
aF569616.9772256727
aF89392.06856478793
aF511576.05899502645
aF115638.02608578729
aF90369.85345429168
asS'Bacteria.Firmicutes.Clostridia.Clostridia_vadinBB60_group.Clostridia_vadinBB60_group.Clostridia_vadinBB60_group.unidentified'
p273
(lp274
F307.16618714611906
aF0.0
aF0.0
aF107.91732263470621
aF340.28225517587214
aF67.86965632502776
aF0.0
aF0.0
aF0.0
aF0.0
aF0.0
aF308.68680999418945
aF0.0
aF0.0
aF0.0
asS'Bacteria.Proteobacteria.Gammaproteobacteria.Xanthomonadales.Xanthomonadaceae.Stenotrophomonas'
p275
(lp276
F0.0
aF0.0
aF0.0
aF0.0
aF89.5479618883874
aF0.0
aF0.0
aF0.0
aF0.0
aF0.0
aF0.0
aF0.0
aF0.0
aF0.0
aF0.0
asS'Bacteria.Proteobacteria.Gammaproteobacteria.Xanthomonadales.Xanthomonadaceae.Stenotrophomonas.Stenotrophomonas_rhizophila'
p277
(lp278
F0.0
aF0.0
aF0.0
aF0.0
aF89.5479618883874
aF0.0
aF0.0
aF0.0
aF0.0
aF0.0
aF0.0
aF0.0
aF0.0
aF0.0
aF0.0
asS'Bacteria.Proteobacteria.Alphaproteobacteria.Rhizobiales.Rhizobiaceae'
p279
(lp280
F0.0
aF0.0
aF221.51898734177203
aF0.0
aF0.0
aF135.73931265005552
aF934.6764980787206
aF6065.088757396451
aF646.9874646178729
aF1286.396863641932
aF0.0
aF0.0
aF0.0
aF224.104701716642
aF0.0
asS'Bacteria.Proteobacteria.Alphaproteobacteria.Rhodobacterales'
p281
(lp282
F0.0
aF0.0
aF0.0
aF0.0
aF0.0
aF0.0
aF0.0
aF0.0
aF0.0
aF0.0
aF0.0
aF0.0
aF1257.6459155090606
aF0.0
aF0.0
asS'Bacteria.Firmicutes.Bacilli.RF39.RF39.RF39.gut_metagenome'
p283
(lp284
F0.0
aF0.0
aF0.0
aF0.0
aF0.0
aF0.0
aF0.0
aF591.715976331361
aF0.0
aF0.0
aF0.0
aF0.0
aF0.0
aF0.0
aF0.0
asS'Bacteria.Firmicutes.Bacilli.Erysipelotrichales.Erysipelotrichaceae.Dubosiella.uncultured_bacterium'
p285
(lp286
F15542.609069593625
aF4139.468237541793
aF4989.451476793246
aF7566.9087400335175
aF447.739809441937
aF161.19043377194095
aF18485.82407311247
aF17085.79881656805
aF14152.850788515969
aF2327.765753256829
aF0.0
aF2487.6525276002326
aF24066.76956496884
aF7081.708574245888
aF11514.305652477318
asS'Bacteria.Firmicutes.Clostridia.Oscillospirales.Oscillospiraceae.NK4A214_group.uncultured_rumen'
p287
(lp288
F1812.2805041621025
aF0.0
aF0.0
aF6741.658625768117
aF0.0
aF0.0
aF0.0
aF0.0
aF6389.0012131014955
aF0.0
aF0.0
aF0.0
aF1200.4801920768305
aF1748.0166733898077
aF0.0
asS'Bacteria.Firmicutes.Clostridia.Oscillospirales.Ruminococcaceae.Harryflintia.uncultured_bacterium'
p289
(lp290
F0.0
aF0.0
aF0.0
aF177.74617845716315
aF0.0
aF0.0
aF0.0
aF0.0
aF0.0
aF0.0
aF0.0
aF0.0
aF0.0
aF0.0
aF0.0
asS'Bacteria.Firmicutes.Clostridia.Oscillospirales.Oscillospiraceae.NK4A214_group.uncultured_bacterium'
p291
(lp292
F0.0
aF0.0
aF0.0
aF0.0
aF0.0
aF0.0
aF0.0
aF0.0
aF0.0
aF0.0
aF0.0
aF0.0
aF0.0
aF627.4931648065976
aF0.0
asS'Bacteria.Proteobacteria.Alphaproteobacteria.Rhizobiales.Rhizobiaceae.Allorhizobium_Neorhizobium_Pararhizobium_Rhizobium'
p293
(lp294
F0.0
aF0.0
aF221.51898734177203
aF0.0
aF0.0
aF135.73931265005552
aF934.6764980787206
aF6065.088757396451
aF646.9874646178729
aF1286.396863641932
aF0.0
aF0.0
aF0.0
aF224.104701716642
aF0.0
asS'Bacteria.Bacteroidota.Bacteroidia.Bacteroidales.Bacteroidaceae.Bacteroides.Bacteroides_caecimuris'
p295
(lp296
F0.0
aF189.5360914625363
aF0.0
aF0.0
aF0.0
aF0.0
aF0.0
aF0.0
aF0.0
aF0.0
aF0.0
aF0.0
aF0.0
aF1120.52350858321
aF0.0
asS'Bacteria.Firmicutes.Clostridia.Oscillospirales.Oscillospiraceae.NK4A214_group.Lachnospiraceae_bacterium'
p297
(lp298
F307.16618714611906
aF0.0
aF0.0
aF0.0
aF0.0
aF0.0
aF0.0
aF0.0
aF0.0
aF0.0
aF0.0
aF0.0
aF0.0
aF0.0
aF0.0
asS'Bacteria.Firmicutes.Bacilli.Acholeplasmatales.Acholeplasmataceae.Anaeroplasma.uncultured_bacterium'
p299
(lp300
F0.0
aF0.0
aF0.0
aF0.0
aF0.0
aF0.0
aF0.0
aF295.8579881656805
aF0.0
aF61.256993506758654
aF0.0
aF254.21266705403835
aF0.0
aF0.0
aF0.0
asS'Bacteria.Firmicutes.Clostridia.Lachnospirales.Lachnospiraceae.Lachnoclostridium.Dorea_sp_'
p301
(lp302
F0.0
aF0.0
aF189.8734177215189
aF0.0
aF0.0
aF0.0
aF0.0
aF0.0
aF0.0
aF0.0
aF0.0
aF490.26728646135973
aF0.0
aF0.0
aF0.0
asS'Bacteria.Firmicutes.Bacilli.Erysipelotrichales.Erysipelotrichaceae.uncultured.uncultured_Allobaculum'
p303
(lp304
F6307.145709400312
aF2395.7361960864587
aF2848.1012658227833
aF57.13270021837388
aF805.9316569954865
aF330.86457458451036
aF2077.058884619379
aF20931.9526627219
aF0.0
aF530.8939437252418
aF0.0
aF0.0
aF13719.773623735206
aF0.0
aF0.0
asS'Bacteria.Firmicutes.Clostridia.Oscillospirales.Oscillospiraceae.UCG_005.uncultured_Clostridiales'
p305
(lp306
F0.0
aF90.97732390201742
aF0.0
aF1104.5655375552283
aF0.0
aF0.0
aF0.0
aF0.0
aF0.0
aF0.0
aF0.0
aF0.0
aF0.0
aF0.0
aF0.0
asS'Bacteria.Firmicutes.Clostridia.Clostridia_UCG_014.Clostridia_UCG_014'
p307
(lp308
F238002.60067371794
aF57126.17796680844
aF100316.45569620248
aF92523.23396475548
aF220789.454832008
aF52386.890975880815
aF69996.88441167306
aF278476.3313609468
aF267852.81035179936
aF36488.74913219258
aF62111.80124223601
aF336214.41022661247
aF129366.03212713654
aF97530.3661870826
aF74319.6092114445
asS'Bacteria.Firmicutes.Clostridia.Oscillospirales.Oscillospiraceae.UCG_005.uncultured_prokaryote'
p309
(lp310
F0.0
aF0.0
aF0.0
aF0.0
aF0.0
aF0.0
aF0.0
aF0.0
aF5095.026283865749
aF0.0
aF0.0
aF0.0
aF0.0
aF1030.8816278965533
aF0.0
asS'Bacteria.Firmicutes.Clostridia.Oscillospirales.Oscillospiraceae.Flavonifractor'
p311
(lp312
F0.0
aF0.0
aF0.0
aF311.05581230003554
aF0.0
aF0.0
aF0.0
aF0.0
aF0.0
aF0.0
aF0.0
aF0.0
aF0.0
aF0.0
aF0.0
asS'Bacteria.Deferribacterota.Deferribacteres.Deferribacterales.Deferribacteraceae.Mucispirillum'
p313
(lp314
F0.0
aF0.0
aF0.0
aF0.0
aF411.920624686582
aF0.0
aF0.0
aF0.0
aF0.0
aF0.0
aF0.0
aF0.0
aF0.0
aF0.0
aF0.0
asS'Bacteria.Firmicutes.Clostridia.Lachnospirales.Lachnospiraceae.uncultured.unidentified'
p315
(lp316
F0.0
aF0.0
aF0.0
aF609.415468995988
aF0.0
aF0.0
aF0.0
aF0.0
aF889.6077638495752
aF0.0
aF0.0
aF0.0
aF0.0
aF0.0
aF0.0
asS'Bacteria.Firmicutes.Bacilli.RF39.RF39'
p317
(lp318
F3317.3948211780857
aF1569.3588373098007
aF1793.2489451476786
aF2336.092631151287
aF5713.159968479116
aF7016.025722599747
aF4257.970713469726
aF26775.147928994087
aF12211.88839466235
aF2082.7377792297943
aF2846.79089026915
aF3450.0290528762353
aF14062.767964328585
aF1120.52350858321
aF0.0
asS'Bacteria.Proteobacteria.Gammaproteobacteria.Burkholderiales.Alcaligenaceae.Achromobacter'
p319
(lp320
F102.38872904870635
aF75.81443658501452
aF179.32489451476786
aF158.70194505103854
aF0.0
aF178.1578478531979
aF0.0
aF3476.331360946746
aF0.0
aF714.6649242455177
aF0.0
aF0.0
aF0.0
aF896.418806866568
aF0.0
asS'Bacteria.Actinobacteriota.Actinobacteria.Pseudonocardiales.Pseudonocardiaceae.Prauserella'
p321
(lp322
F0.0
aF0.0
aF0.0
aF0.0
aF0.0
aF101.80448448754166
aF0.0
aF0.0
aF0.0
aF0.0
aF0.0
aF0.0
aF0.0
aF0.0
aF0.0
asS'Bacteria.Proteobacteria.Gammaproteobacteria.Xanthomonadales.Xanthomonadaceae'
p323
(lp324
F0.0
aF0.0
aF0.0
aF0.0
aF89.5479618883874
aF0.0
aF0.0
aF0.0
aF0.0
aF0.0
aF0.0
aF0.0
aF0.0
aF0.0
aF0.0
asS'Bacteria.Firmicutes.Clostridia.Christensenellales.Christensenellaceae.Christensenellaceae_R_7_group.bacterium_YE57'
p325
(lp326
F604.0935013873675
aF0.0
aF0.0
aF0.0
aF0.0
aF0.0
aF0.0
aF0.0
aF0.0
aF0.0
aF0.0
aF0.0
aF0.0
aF0.0
aF0.0
asS'Bacteria.Firmicutes.Clostridia.Oscillospirales.Butyricicoccaceae'
p327
(lp328
F624.5712471971088
aF621.6783799971191
aF706.7510548523203
aF406.27697933065866
aF1110.3947274160037
aF262.99491825948263
aF0.0
aF8505.917159763314
aF4205.418520016174
aF285.8659696982071
aF0.0
aF9605.607205113307
aF514.4915108900702
aF7216.171395275873
aF3489.1835310537326
asS'Bacteria.Firmicutes.Clostridia.Oscillospirales.Oscillospiraceae.Oscillospira.uncultured_bacterium'
p329
(lp330
F0.0
aF0.0
aF0.0
aF0.0
aF0.0
aF0.0
aF0.0
aF5103.550295857989
aF0.0
aF0.0
aF0.0
aF0.0
aF0.0
aF0.0
aF0.0
asS'Bacteria.Firmicutes.Clostridia.Oscillospirales.Oscillospiraceae.uncultured'
p331
(lp332
F1126.27601953577
aF0.0
aF2014.7679324894505
aF6468.691280280332
aF8381.68923275306
aF2774.1722022855097
aF0.0
aF665.6804733727812
aF12211.88839466235
aF1143.4638787928284
aF12163.561076604552
aF12238.524113887277
aF0.0
aF0.0
aF0.0
asS'Bacteria.Firmicutes.Clostridia.Oscillospirales.Ruminococcaceae.Paludicola'
p333
(lp334
F0.0
aF0.0
aF0.0
aF0.0
aF286.5534780428397
aF203.60896897508331
aF0.0
aF0.0
aF0.0
aF0.0
aF0.0
aF0.0
aF0.0
aF0.0
aF0.0
asS'Bacteria.Proteobacteria.Gammaproteobacteria.Xanthomonadales'
p335
(lp336
F0.0
aF0.0
aF0.0
aF0.0
aF89.5479618883874
aF0.0
aF0.0
aF0.0
aF0.0
aF0.0
aF0.0
aF0.0
aF0.0
aF0.0
aF0.0
asS'Bacteria.Firmicutes.Clostridia.Clostridia_vadinBB60_group.Clostridia_vadinBB60_group.Clostridia_vadinBB60_group.uncultured_bacterium'
p337
(lp338
F0.0
aF0.0
aF0.0
aF279.3154232898279
aF0.0
aF330.86457458451036
aF0.0
aF0.0
aF566.1140315406387
aF0.0
aF0.0
aF254.21266705403835
aF0.0
aF0.0
aF0.0
asS'Bacteria.Campylobacterota.Campylobacteria.Campylobacterales.Helicobacteraceae'
p339
(lp340
F0.0
aF0.0
aF0.0
aF0.0
aF0.0
aF0.0
aF0.0
aF0.0
aF0.0
aF0.0
aF0.0
aF2306.072051133063
aF0.0
aF0.0
aF0.0
asS'Bacteria.Proteobacteria.Alphaproteobacteria.Rhodobacterales.Rhodobacteraceae'
p341
(lp342
F0.0
aF0.0
aF0.0
aF0.0
aF0.0
aF0.0
aF0.0
aF0.0
aF0.0
aF0.0
aF0.0
aF0.0
aF1257.6459155090606
aF0.0
aF0.0
asS'Bacteria.Patescibacteria'
p343
(lp344
F3798.6218477070056
aF5625.431194608077
aF15348.101265822777
aF2805.850388502361
aF1182.0330969267136
aF3834.635582364069
aF3738.705992314882
aF15088.757396449706
aF32511.120097048108
aF551.312941560828
aF12681.159420289852
aF2415.020337013365
aF28468.53026925055
aF851.5978665232396
aF0.0
asS'Bacteria.Firmicutes.Clostridia.Oscillospirales.Oscillospiraceae.Papillibacter.uncultured_bacterium'
p345
(lp346
F726.9599762458151
aF128.8845421945247
aF0.0
aF3846.9351480371743
aF1379.038613081166
aF390.2505238689097
aF0.0
aF0.0
aF2345.329559239789
aF0.0
aF0.0
aF0.0
aF0.0
aF0.0
aF0.0
asS'Bacteria.Firmicutes.Clostridia.Oscillospirales.UCG_010.UCG_010'
p347
(lp348
F1535.8309357305952
aF45.48866195100871
aF0.0
aF615.7635467980296
aF0.0
aF322.3808675438819
aF0.0
aF0.0
aF0.0
aF0.0
aF0.0
aF653.6897152818129
aF0.0
aF0.0
aF0.0
asS'Bacteria.Bacteroidota.Bacteroidia.Bacteroidales.Bacteroidaceae'
p349
(lp350
F2621.151463646883
aF447.30517585158566
aF0.0
aF3294.65237925956
aF250.7342932874847
aF721.11509845342
aF0.0
aF33875.73964497042
aF0.0
aF183.77098052027597
aF0.0
aF2088.175479372458
aF31441.14788772651
aF4168.347451929541
aF2791.346824842986
asS'Bacteria.Bacteroidota.Bacteroidia.Bacteroidales.Bacteroidaceae.Bacteroides.Bacteroides_fragilis'
p351
(lp352
F634.8101201019795
aF0.0
aF0.0
aF2634.45228784724
aF0.0
aF0.0
aF0.0
aF0.0
aF0.0
aF0.0
aF0.0
aF1289.2213829169089
aF0.0
aF0.0
aF0.0
asS'Bacteria.Firmicutes.Clostridia.Oscillospirales.Ruminococcaceae.Incertae_Sedis.uncultured_Clostridiales'
p353
(lp354
F235.49407681202462
aF0.0
aF369.1983122362867
aF0.0
aF161.18633139909733
aF0.0
aF0.0
aF0.0
aF0.0
aF0.0
aF3105.5900621118003
aF0.0
aF0.0
aF896.418806866568
aF0.0
asS'Bacteria.Proteobacteria.Alphaproteobacteria'
p355
(lp356
F61.43323742922381
aF310.8391899985595
aF316.4556962025315
aF0.0
aF0.0
aF135.73931265005552
aF934.6764980787206
aF7026.627218934912
aF646.9874646178729
aF1919.3857965451045
aF0.0
aF0.0
aF1257.6459155090606
aF224.104701716642
aF0.0
asS'Bacteria.Firmicutes.Clostridia.Clostridia_UCG_014.Clostridia_UCG_014.Clostridia_UCG_014.uncultured_rumen'
p357
(lp358
F0.0
aF3828.6290475432334
aF0.0
aF374.53659032045096
aF33992.40633283185
aF11054.270273938899
aF14747.11808079759
aF0.0
aF10351.799433885966
aF1225.1398701351734
aF44513.457556935806
aF18593.840790238235
aF0.0
aF0.0
aF0.0
asS'Bacteria.Firmicutes.Clostridia.Oscillospirales.Ruminococcaceae.Ruminococcus.uncultured_Ruminococcus'
p359
(lp360
F2252.55203907154
aF0.0
aF0.0
aF0.0
aF179.0959237767748
aF271.47862530011105
aF0.0
aF2958.579881656805
aF3962.7982207844716
aF19336.79095030015
aF7505.175983436851
aF0.0
aF5430.743726061852
aF0.0
aF0.0
asS'Bacteria.Firmicutes.Clostridia.uncultured'
p361
(lp362
F0.0
aF0.0
aF0.0
aF0.0
aF0.0
aF186.64155489382634
aF0.0
aF0.0
aF0.0
aF0.0
aF0.0
aF599.215572341662
aF0.0
aF717.1350454932544
aF0.0
asS'Bacteria.Firmicutes.Clostridia.Oscillospirales.Oscillospiraceae.uncultured.uncultured_organism'
p363
(lp364
F0.0
aF0.0
aF0.0
aF272.9673454877863
aF0.0
aF0.0
aF0.0
aF0.0
aF0.0
aF0.0
aF0.0
aF0.0
aF0.0
aF0.0
aF0.0
asS'Bacteria.Proteobacteria.Gammaproteobacteria.Burkholderiales.Oxalobacteraceae.Herminiimonas'
p365
(lp366
F0.0
aF0.0
aF0.0
aF0.0
aF0.0
aF0.0
aF0.0
aF0.0
aF0.0
aF428.7989545473106
aF0.0
aF0.0
aF0.0
aF0.0
aF0.0
asS'Bacteria.Firmicutes.Bacilli.Lactobacillales.Lactobacillaceae.Limosilactobacillus'
p367
(lp368
F143.3442206681889
aF1425.311407798273
aF654.0084388185652
aF0.0
aF1092.4851350383262
aF1264.0723490536423
aF934.6764980787206
aF0.0
aF0.0
aF1429.3298484910354
aF0.0
aF562.8994770482278
aF743.1544046189903
aF851.5978665232396
aF0.0
asS'Bacteria.Gemmatimonadota.Gemmatimonadetes.Gemmatimonadales.Gemmatimonadaceae.uncultured'
p369
(lp370
F0.0
aF0.0
aF0.0
aF0.0
aF0.0
aF0.0
aF0.0
aF0.0
aF0.0
aF0.0
aF2846.79089026915
aF0.0
aF0.0
aF0.0
aF0.0
asS'Bacteria.Proteobacteria.Alphaproteobacteria.Caulobacterales.Caulobacteraceae'
p371
(lp372
F0.0
aF0.0
aF0.0
aF0.0
aF0.0
aF0.0
aF0.0
aF961.5384615384617
aF0.0
aF632.9889329031729
aF0.0
aF0.0
aF0.0
aF0.0
aF0.0
asS'Bacteria.Firmicutes.Clostridia.Lachnospirales.Lachnospiraceae.Marvinbryantia'
p373
(lp374
F522.1825181484024
aF0.0
aF0.0
aF0.0
aF0.0
aF0.0
aF0.0
aF961.5384615384617
aF1213.1014961585117
aF0.0
aF0.0
aF0.0
aF0.0
aF1210.1653892698669
aF0.0
asS'Bacteria.Patescibacteria.Saccharimonadia.Saccharimonadales.Saccharimonadaceae'
p375
(lp376
F3798.6218477070056
aF5625.431194608077
aF15348.101265822777
aF2805.850388502361
aF1182.0330969267136
aF3834.635582364069
aF3738.705992314882
aF15088.757396449706
aF32511.120097048108
aF551.312941560828
aF12681.159420289852
aF2306.072051133063
aF28468.53026925055
aF851.5978665232396
aF0.0
asS'Bacteria.Firmicutes.Clostridia.Oscillospirales.UCG_010.UCG_010.uncultured_bacterium'
p377
(lp378
F0.0
aF45.48866195100871
aF0.0
aF0.0
aF0.0
aF110.28819152817013
aF0.0
aF0.0
aF0.0
aF0.0
aF0.0
aF326.84485764090647
aF0.0
aF0.0
aF0.0
asS'Bacteria.Firmicutes'
p379
(lp380
F478698.02492141677
aF930303.7884473961
aF901308.0168776368
aF637131.1766797013
aF944730.9979224871
aF949852.807682845
aF941426.9394537335
aF614497.0414201184
aF853861.7064294376
aF908257.4427247106
aF369565.2173913042
aF856315.3689715283
aF389470.0737437831
aF694545.2915602172
aF666434.054431263
asS'Bacteria.Proteobacteria.Gammaproteobacteria.Burkholderiales.Alcaligenaceae.Alcaligenes'
p381
(lp382
F0.0
aF0.0
aF0.0
aF0.0
aF250.7342932874847
aF0.0
aF0.0
aF0.0
aF0.0
aF408.3799567117244
aF0.0
aF0.0
aF0.0
aF0.0
aF0.0
asS'Bacteria.Firmicutes.Clostridia.Oscillospirales'
p383
(lp384
F163.82196647793018
aF0.0
aF0.0
aF0.0
aF0.0
aF0.0
aF0.0
aF0.0
aF0.0
aF0.0
aF0.0
aF0.0
aF0.0
aF0.0
aF0.0
asS'Bacteria.Actinobacteriota.Coriobacteriia.Coriobacteriales.Atopobiaceae'
p385
(lp386
F6255.951344875958
aF742.9814785331422
aF1540.084388185653
aF8309.633842872377
aF3725.1952145569157
aF3851.602996445326
aF3219.4412711600376
aF0.0
aF3801.051354630003
aF530.8939437252418
aF0.0
aF3577.1353864032544
aF685.9886811867602
aF13042.893639908565
aF5582.693649685972
asS'Bacteria.Firmicutes.Clostridia.Oscillospirales.Hungateiclostridiaceae'
p387
(lp388
F0.0
aF0.0
aF0.0
aF57.13270021837388
aF0.0
aF0.0
aF0.0
aF0.0
aF0.0
aF0.0
aF0.0
aF0.0
aF0.0
aF0.0
aF0.0
asS'Bacteria.Firmicutes.Bacilli.RF39.RF39.RF39.uncultured_Firmicutes'
p389
(lp390
F0.0
aF0.0
aF179.32489451476786
aF0.0
aF0.0
aF0.0
aF0.0
aF0.0
aF0.0
aF0.0
aF0.0
aF0.0
aF0.0
aF0.0
aF0.0
asS'Bacteria.Firmicutes.Bacilli.Erysipelotrichales.Erysipelatoclostridiaceae'
p391
(lp392
F0.0
aF0.0
aF0.0
aF0.0
aF0.0
aF0.0
aF1557.7941634645342
aF739.6449704142012
aF1213.1014961585117
aF0.0
aF0.0
aF6918.216153399187
aF0.0
aF0.0
aF0.0
asS'Bacteria.Firmicutes.Bacilli.Acholeplasmatales.Acholeplasmataceae.Anaeroplasma'
p393
(lp394
F0.0
aF0.0
aF0.0
aF0.0
aF0.0
aF0.0
aF0.0
aF295.8579881656805
aF0.0
aF61.256993506758654
aF0.0
aF254.21266705403835
aF0.0
aF0.0
aF0.0
asS'Bacteria.Firmicutes.Clostridia.Lachnospirales.Lachnospiraceae.uncultured'
p395
(lp396
F92.14985614383572
aF0.0
aF0.0
aF2710.6292214717387
aF1056.6659502829712
aF619.3106139658784
aF0.0
aF0.0
aF0.0
aF0.0
aF5175.983436853001
aF0.0
aF0.0
aF0.0
aF0.0
asS'Bacteria.Proteobacteria.Gammaproteobacteria.Burkholderiales.Sutterellaceae.Parasutterella'
p397
(lp398
F1064.842782106546
aF0.0
aF0.0
aF107.91732263470621
aF0.0
aF0.0
aF0.0
aF2810.6508875739646
aF0.0
aF0.0
aF0.0
aF472.1092388146427
aF0.0
aF8022.948321455784
aF0.0
asS'Bacteria.Firmicutes.Bacilli.Erysipelotrichales.Erysipelotrichaceae.Dubosiella'
p399
(lp400
F15542.609069593625
aF4139.468237541793
aF4989.451476793246
aF7566.9087400335175
aF447.739809441937
aF161.19043377194095
aF18485.82407311247
aF17085.79881656805
aF14152.850788515969
aF2327.765753256829
aF0.0
aF2487.6525276002326
aF24066.76956496884
aF7081.708574245888
aF11514.305652477318
asS'Bacteria.Firmicutes.Clostridia.Lachnospirales.Lachnospiraceae.Lachnospira.uncultured_bacterium'
p401
(lp402
F0.0
aF0.0
aF0.0
aF0.0
aF0.0
aF0.0
aF0.0
aF1701.1834319526629
aF0.0
aF0.0
aF0.0
aF0.0
aF0.0
aF0.0
aF0.0
asS'Bacteria.Proteobacteria.Alphaproteobacteria.Caulobacterales'
p403
(lp404
F0.0
aF0.0
aF0.0
aF0.0
aF0.0
aF0.0
aF0.0
aF961.5384615384617
aF0.0
aF632.9889329031729
aF0.0
aF0.0
aF0.0
aF0.0
aF0.0
asS'Bacteria.Firmicutes.Bacilli.Exiguobacterales.Exiguobacteraceae'
p405
(lp406
F0.0
aF0.0
aF0.0
aF0.0
aF0.0
aF0.0
aF0.0
aF0.0
aF0.0
aF0.0
aF0.0
aF0.0
aF0.0
aF717.1350454932544
aF0.0
asS'Bacteria.Bacteroidota'
p407
(lp408
F391780.23283197003
aF34624.45318837613
aF45580.16877637128
aF256900.36057081918
aF16835.01683501683
aF12937.653236958418
aF1973.20594038841
aF210576.9230769231
aF32915.48726243428
aF22093.35565810429
aF569616.9772256727
aF89392.06856478793
aF511576.05899502645
aF115638.02608578729
aF90369.85345429168
asS'Bacteria.Firmicutes.Bacilli.Exiguobacterales'
p409
(lp410
F0.0
aF0.0
aF0.0
aF0.0
aF0.0
aF0.0
aF0.0
aF0.0
aF0.0
aF0.0
aF0.0
aF0.0
aF0.0
aF717.1350454932544
aF0.0
asS'Bacteria.Firmicutes.Clostridia.Lachnospirales.Lachnospiraceae.uncultured.uncultured_bacterium'
p411
(lp412
F0.0
aF1159.9608797507221
aF886.0759493670881
aF3491.442791122848
aF0.0
aF212.09267601571176
aF0.0
aF0.0
aF0.0
aF102.0949891779311
aF0.0
aF236.05461940732135
aF0.0
aF0.0
aF0.0
asS'Bacteria.Firmicutes.Clostridia.Oscillospirales.Ruminococcaceae.CAG_352'
p413
(lp414
F1341.2923505380534
aF401.8165139005769
aF643.459915611814
aF17958.712101975525
aF0.0
aF542.9572506002221
aF0.0
aF0.0
aF1617.4686615446822
aF1020.9498917793109
aF10610.766045548651
aF0.0
aF3772.9377465271814
aF8336.694903859083
aF4187.020237264479
asS'Bacteria.Gemmatimonadota'
p415
(lp416
F0.0
aF0.0
aF0.0
aF0.0
aF0.0
aF0.0
aF0.0
aF0.0
aF0.0
aF0.0
aF2846.79089026915
aF0.0
aF0.0
aF0.0
aF0.0
asS'Bacteria.Firmicutes.Clostridia.Oscillospirales.Ruminococcaceae.Negativibacillus'
p417
(lp418
F0.0
aF0.0
aF0.0
aF0.0
aF0.0
aF0.0
aF0.0
aF0.0
aF0.0
aF0.0
aF0.0
aF671.8477629285301
aF0.0
aF0.0
aF0.0
asS'Bacteria.Verrucomicrobiota.Verrucomicrobiae'
p419
(lp420
F91381.94067597041
aF3495.0455265691694
aF10991.561181434594
aF87171.80437763446
aF5354.968120925567
aF6159.1713114962695
aF0.0
aF887.5739644970415
aF21188.83946623534
aF24400.70241352553
aF10093.16770186335
aF1071.3248111563046
aF914.6515749156804
aF55533.14508538389
aF142009.76971388693
asS'Bacteria.Cyanobacteria.Cyanobacteriia.Chloroplast'
p421
(lp422
F0.0
aF0.0
aF0.0
aF0.0
aF0.0
aF0.0
aF0.0
aF0.0
aF0.0
aF0.0
aF0.0
aF0.0
aF457.3257874578402
aF0.0
aF0.0
asS'Bacteria.Actinobacteriota.Actinobacteria.Bifidobacteriales.Bifidobacteriaceae'
p423
(lp424
F19156.93120501296
aF10477.555136049006
aF5991.561181434597
aF1491.7982834797624
aF5945.984669388923
aF6736.063390259006
aF7685.117873091703
aF10355.029585798819
aF4609.785685402344
aF163.35198268468974
aF0.0
aF0.0
aF13891.270794031894
aF49168.57155663126
aF5582.693649685972
asS'Bacteria.Firmicutes.Clostridia.Monoglobales.Monoglobaceae.Monoglobus.uncultured_bacterium'
p425
(lp426
F849.8264511042628
aF0.0
aF938.8185654008435
aF0.0
aF0.0
aF67.86965632502776
aF0.0
aF0.0
aF0.0
aF265.4469718626209
aF3881.9875776397507
aF0.0
aF514.4915108900702
aF0.0
aF0.0
asS'Bacteria.Firmicutes.Bacilli.Lactobacillales.Streptococcaceae.Streptococcus.Streptococcus_sp_'
p427
(lp428
F0.0
aF159.2103168285305
aF0.0
aF0.0
aF0.0
aF0.0
aF0.0
aF0.0
aF0.0
aF0.0
aF0.0
aF0.0
aF0.0
aF0.0
aF0.0
asS'Bacteria.Firmicutes.Clostridia.Oscillospirales._Eubacterium__coprostanoligenes_group._Eubacterium__coprostanoligenes_group'
p429
(lp430
F0.0
aF0.0
aF411.39240506329094
aF0.0
aF0.0
aF161.19043377194095
aF0.0
aF0.0
aF0.0
aF0.0
aF0.0
aF0.0
aF0.0
aF537.8512841199408
aF0.0
asS'Bacteria.Bacteroidota.Bacteroidia.Bacteroidales.Prevotellaceae.Prevotellaceae_UCG_001.uncultured_bacterium'
p431
(lp432
F2313.985276500764
aF439.72373219308423
aF0.0
aF5027.677619216901
aF304.46307042051717
aF0.0
aF0.0
aF8653.846153846156
aF0.0
aF592.1509372320004
aF0.0
aF2560.2847181871007
aF5087.749385468472
aF761.9559858365828
aF0.0
asS'Bacteria.Firmicutes.Clostridia.Peptostreptococcales_Tissierellales.Anaerovoracaceae._Eubacterium__nodatum_group.uncultured_organism'
p433
(lp434
F0.0
aF0.0
aF0.0
aF0.0
aF0.0
aF0.0
aF0.0
aF0.0
aF0.0
aF0.0
aF0.0
aF417.63509587449164
aF0.0
aF0.0
aF0.0
asS'Bacteria.Firmicutes.Clostridia.Peptococcales.Peptococcaceae.uncultured.unidentified'
p435
(lp436
F0.0
aF0.0
aF0.0
aF850.6424254735666
aF0.0
aF0.0
aF0.0
aF0.0
aF0.0
aF0.0
aF0.0
aF453.9511911679257
aF0.0
aF0.0
aF0.0
asS'Bacteria.Proteobacteria.Gammaproteobacteria.Enterobacterales.Enterobacteriaceae.Escherichia_Shigella'
p437
(lp438
F3542.65002508524
aF5534.45387070606
aF7774.261603375524
aF2018.6887410492102
aF7665.3055376459615
aF6990.57460147786
aF15577.941634645344
aF8949.704142011835
aF27820.460978568535
aF6656.593294401107
aF18633.540372670803
aF5774.259151656014
aF21551.477733950716
aF12325.75859441531
aF30006.9783670621
asS'Bacteria.Bacteroidota.Bacteroidia.Bacteroidales.Bacteroidaceae.Bacteroides'
p439
(lp440
F0.0
aF0.0
aF0.0
aF6.348077802041542
aF0.0
aF0.0
aF0.0
aF13165.680473372782
aF0.0
aF0.0
aF0.0
aF0.0
aF24181.1010118333
aF44.8209403433284
aF0.0
asS'Bacteria.Firmicutes.Clostridia.Lachnospirales.Lachnospiraceae.Lachnospiraceae_UCG_006.uncultured_bacterium'
p441
(lp442
F2324.2241494056343
aF3343.4166533991406
aF5084.388185654006
aF882.3828144837743
aF4549.036463930081
aF3401.966523292017
aF3219.4412711600376
aF0.0
aF0.0
aF0.0
aF0.0
aF4430.5636257989545
aF0.0
aF0.0
aF0.0
asS'Bacteria.Actinobacteriota.Actinobacteria'
p443
(lp444
F19156.93120501296
aF10818.72010068157
aF5991.561181434597
aF1491.7982834797624
aF5945.984669388923
aF6837.867874746548
aF13604.735694256933
aF10355.029585798819
aF4609.785685402344
aF163.35198268468974
aF0.0
aF635.531667635096
aF13891.270794031894
aF81305.18578279772
aF14305.652477320304
asS'Bacteria.Firmicutes.Clostridia.Lachnospirales.Lachnospiraceae.Butyrivibrio.uncultured_organism'
p445
(lp446
F0.0
aF0.0
aF0.0
aF0.0
aF286.5534780428397
aF1281.039763134899
aF0.0
aF0.0
aF0.0
aF0.0
aF0.0
aF0.0
aF0.0
aF0.0
aF0.0
asS'Bacteria.Deferribacterota.Deferribacteres.Deferribacterales.Deferribacteraceae'
p447
(lp448
F0.0
aF0.0
aF0.0
aF0.0
aF411.920624686582
aF0.0
aF0.0
aF0.0
aF0.0
aF0.0
aF0.0
aF0.0
aF0.0
aF0.0
aF0.0
asS'Bacteria.Firmicutes.Clostridia.uncultured.uncultured'
p449
(lp450
F0.0
aF0.0
aF0.0
aF0.0
aF0.0
aF186.64155489382634
aF0.0
aF0.0
aF0.0
aF0.0
aF0.0
aF599.215572341662
aF0.0
aF717.1350454932544
aF0.0
asS'Bacteria.Firmicutes.Clostridia.Oscillospirales.Ruminococcaceae'
p451
(lp452
F778.1543407701683
aF30.325774634005807
aF0.0
aF488.80199075719867
aF0.0
aF0.0
aF0.0
aF0.0
aF0.0
aF0.0
aF0.0
aF0.0
aF0.0
aF448.209403433284
aF0.0
asS'Bacteria.Bacteroidota.Bacteroidia.Flavobacteriales.Weeksellaceae'
p453
(lp454
F0.0
aF0.0
aF0.0
aF0.0
aF0.0
aF0.0
aF0.0
aF0.0
aF0.0
aF1245.5588679707596
aF0.0
aF254.21266705403835
aF0.0
aF0.0
aF0.0
asS'Bacteria.Acidobacteriota.Acidobacteriae.Bryobacterales.Bryobacteraceae.Bryobacter'
p455
(lp456
F0.0
aF0.0
aF0.0
aF0.0
aF0.0
aF0.0
aF0.0
aF0.0
aF0.0
aF0.0
aF0.0
aF0.0
aF685.9886811867602
aF0.0
aF0.0
asS'Bacteria.Gemmatimonadota.Gemmatimonadetes'
p457
(lp458
F0.0
aF0.0
aF0.0
aF0.0
aF0.0
aF0.0
aF0.0
aF0.0
aF0.0
aF0.0
aF2846.79089026915
aF0.0
aF0.0
aF0.0
aF0.0
asS'Bacteria.Firmicutes.Clostridia.Oscillospirales.Oscillospiraceae.Oscillibacter'
p459
(lp460
F409.5549161948254
aF0.0
aF0.0
aF869.6866588796912
aF286.5534780428397
aF144.22301969068403
aF0.0
aF0.0
aF0.0
aF0.0
aF0.0
aF526.5833817547938
aF0.0
aF0.0
aF0.0
asS'Bacteria.Actinobacteriota.Coriobacteriia.Coriobacteriales.Coriobacteriales_Incertae_Sedis.uncultured'
p461
(lp462
F0.0
aF0.0
aF0.0
aF0.0
aF0.0
aF0.0
aF0.0
aF443.78698224852076
aF0.0
aF387.96095887613814
aF0.0
aF508.4253341080767
aF0.0
aF0.0
aF1744.5917655268663
asS'Bacteria.Firmicutes.Clostridia.Clostridia_UCG_014.Clostridia_UCG_014.Clostridia_UCG_014.unidentified_rumen'
p463
(lp464
F0.0
aF0.0
aF0.0
aF0.0
aF0.0
aF0.0
aF0.0
aF31878.698224852076
aF0.0
aF0.0
aF5952.3809523809505
aF1525.2760023242304
aF4516.092151146172
aF22724.2167540675
aF0.0
asS'Bacteria.Firmicutes.Clostridia.Lachnospirales.Lachnospiraceae.Lachnospiraceae_FCS020_group'
p465
(lp466
F0.0
aF0.0
aF0.0
aF241.2269564775786
aF0.0
aF0.0
aF0.0
aF0.0
aF0.0
aF0.0
aF0.0
aF0.0
aF0.0
aF0.0
aF0.0
asS'Bacteria.Firmicutes.Clostridia.Lachnospirales.Lachnospiraceae'
p467
(lp468
F5017.047723386611
aF7437.396228989924
aF9198.312236286914
aF44277.842669239755
aF7074.288989182604
aF6091.301655171243
aF8100.529650015578
aF27514.792899408287
aF51273.75657096643
aF3716.257606076692
aF23809.523809523802
aF29416.037187681584
aF17835.705710855767
aF12998.072699565237
aF25471.039776692247
asS'Bacteria.Verrucomicrobiota.Verrucomicrobiae.Verrucomicrobiales.Akkermansiaceae.Akkermansia.uncultured_bacterium'
p469
(lp470
F91381.94067597041
aF3495.0455265691694
aF10991.561181434594
aF87171.80437763446
aF5354.968120925567
aF6159.1713114962695
aF0.0
aF887.5739644970415
aF21188.83946623534
aF24400.70241352553
aF10093.16770186335
aF1071.3248111563046
aF914.6515749156804
aF55533.14508538389
aF142009.76971388693
asS'Bacteria.Firmicutes.Clostridia.Peptostreptococcales_Tissierellales.Peptostreptococcaceae'
p471
(lp472
F14907.798949491646
aF150954.1246844224
aF211729.95780590706
aF9807.780204154182
aF201321.72791747257
aF236143.98547589348
aF168241.7696541697
aF23668.63905325444
aF17873.02871006874
aF56111.40605219093
aF8281.573498964803
aF25294.16037187682
aF0.0
aF5109.587199139438
aF5233.7752965805985
asS'Bacteria.Firmicutes.Bacilli.Erysipelotrichales.Erysipelotrichaceae.Holdemania'
p473
(lp474
F0.0
aF0.0
aF0.0
aF0.0
aF0.0
aF0.0
aF0.0
aF0.0
aF1213.1014961585117
aF0.0
aF0.0
aF0.0
aF0.0
aF1254.9863296131953
aF0.0
asS'Bacteria.Actinobacteriota.Coriobacteriia.Coriobacteriales.Eggerthellaceae.uncultured'
p475
(lp476
F0.0
aF0.0
aF0.0
aF260.27118988370324
aF0.0
aF0.0
aF0.0
aF0.0
aF0.0
aF0.0
aF0.0
aF0.0
aF0.0
aF0.0
aF0.0
asS'Bacteria.Firmicutes.Clostridia.Clostridiales.Clostridiaceae'
p477
(lp478
F60429.82788454649
aF433787.4618084775
aF235221.51898734167
aF25614.493931237623
aF190952.07393079728
aF294181.0253408329
aF402326.3059507737
aF18639.053254437873
aF16983.420946219165
aF658737.2891738471
aF12681.159420289852
aF10350.087158628707
aF15091.750986108726
aF1613.5538523598225
aF0.0
asS'Bacteria.Firmicutes.Clostridia.Oscillospirales.Oscillospiraceae.Oscillibacter.uncultured_bacterium'
p479
(lp480
F0.0
aF121.30309853602323
aF822.7848101265819
aF876.0347366817329
aF0.0
aF0.0
aF0.0
aF0.0
aF0.0
aF0.0
aF0.0
aF308.68680999418945
aF0.0
aF493.0303437766124
aF0.0
asS'Bacteria.Firmicutes.Bacilli.Erysipelotrichales.Erysipelotrichaceae.Allobaculum.uncultured_bacterium'
p481
(lp482
F337.88280586073097
aF0.0
aF0.0
aF1352.1405718348485
aF0.0
aF0.0
aF0.0
aF0.0
aF0.0
aF0.0
aF0.0
aF0.0
aF0.0
aF0.0
aF0.0
asS'Bacteria.Firmicutes.Clostridia.Eubacteriales.Anaerofustaceae.Anaerofustis'
p483
(lp484
F327.64393295586035
aF75.81443658501452
aF189.8734177215189
aF0.0
aF358.1918475535496
aF0.0
aF0.0
aF0.0
aF404.36716538617054
aF0.0
aF0.0
aF0.0
aF0.0
aF1703.1957330464793
aF0.0
asS'Bacteria.Firmicutes.Bacilli.RF39.RF39.RF39.uncultured_bacterium'
p485
(lp486
F2017.057962259515
aF151.62887317002904
aF263.71308016877623
aF787.1616474531512
aF3008.811519449817
aF5361.702849677194
aF4257.970713469726
aF17381.656804733728
aF3558.431055398301
aF306.28496753379335
aF0.0
aF581.0575246949448
aF0.0
aF0.0
aF0.0
asS'Bacteria.Firmicutes.Clostridia.Christensenellales.Christensenellaceae.uncultured.uncultured_bacterium'
p487
(lp488
F163.82196647793018
aF0.0
aF0.0
aF0.0
aF0.0
aF0.0
aF0.0
aF0.0
aF0.0
aF0.0
aF0.0
aF0.0
aF0.0
aF0.0
aF0.0
asS'Bacteria.Firmicutes.Clostridia.Oscillospirales.Oscillospiraceae.UCG_005.uncultured_bacterium'
p489
(lp490
F0.0
aF0.0
aF0.0
aF0.0
aF3295.364997492656
aF933.2077744691319
aF0.0
aF7026.627218934912
aF142498.98908208648
aF0.0
aF0.0
aF0.0
aF0.0
aF0.0
aF0.0
asS'Bacteria.Actinobacteriota.Coriobacteriia.Coriobacteriales.Eggerthellaceae.Adlercreutzia.uncultured_bacterium'
p491
(lp492
F1341.2923505380534
aF0.0
aF0.0
aF0.0
aF0.0
aF0.0
aF5504.206044241354
aF3254.4378698224855
aF0.0
aF4512.598521664555
aF0.0
aF6718.477629285299
aF0.0
aF5109.587199139438
aF16050.244242847171
asS'Bacteria.Firmicutes.Clostridia.Christensenellales.Christensenellaceae.uncultured'
p493
(lp494
F163.82196647793018
aF0.0
aF0.0
aF0.0
aF0.0
aF0.0
aF0.0
aF0.0
aF0.0
aF0.0
aF0.0
aF0.0
aF0.0
aF0.0
aF0.0
asS'Bacteria.Actinobacteriota.Actinobacteria.Streptomycetales.Streptomycetaceae'
p495
(lp496
F0.0
aF0.0
aF0.0
aF0.0
aF0.0
aF0.0
aF0.0
aF0.0
aF0.0
aF0.0
aF0.0
aF0.0
aF0.0
aF0.0
aF3489.1835310537326
asS'Bacteria.Bacteroidota.Bacteroidia.Bacteroidales.Rikenellaceae.Alistipes.uncultured_bacterium'
p497
(lp498
F2651.868082361495
aF98.55876756051887
aF0.0
aF3154.9946676146465
aF608.9261408410343
aF322.3808675438819
aF0.0
aF0.0
aF0.0
aF204.1899783558622
aF0.0
aF1143.9570017431727
aF0.0
aF717.1350454932544
aF0.0
asS'Bacteria.Desulfobacterota.Desulfovibrionia.Desulfovibrionales.Desulfovibrionaceae.Desulfovibrio'
p499
(lp500
F0.0
aF0.0
aF0.0
aF0.0
aF0.0
aF0.0
aF1869.352996157441
aF4585.798816568047
aF0.0
aF0.0
aF0.0
aF12038.78558977339
aF14462.928028354196
aF0.0
aF0.0
asS'Bacteria.Cyanobacteria.Vampirivibrionia.Gastranaerophilales.Gastranaerophilales.Gastranaerophilales.uncultured_bacterium'
p501
(lp502
F0.0
aF0.0
aF0.0
aF50.78462241633233
aF0.0
aF0.0
aF519.2647211548448
aF0.0
aF0.0
aF0.0
aF0.0
aF1325.537478210343
aF0.0
aF0.0
aF0.0
asS'Bacteria.Actinobacteriota.Actinobacteria.Bifidobacteriales'
p503
(lp504
F19156.93120501296
aF10477.555136049006
aF5991.561181434597
aF1491.7982834797624
aF5945.984669388923
aF6736.063390259006
aF7685.117873091703
aF10355.029585798819
aF4609.785685402344
aF163.35198268468974
aF0.0
aF0.0
aF13891.270794031894
aF49168.57155663126
aF5582.693649685972
asS'Bacteria.Firmicutes.Clostridia.Peptostreptococcales_Tissierellales.Anaerovoracaceae._Eubacterium__nodatum_group.uncultured_bacterium'
p505
(lp506
F593.8546284824969
aF0.0
aF0.0
aF0.0
aF0.0
aF0.0
aF0.0
aF0.0
aF0.0
aF0.0
aF0.0
aF0.0
aF0.0
aF0.0
aF0.0
asS'Bacteria.Bacteroidota.Bacteroidia.Bacteroidales.Prevotellaceae.Prevotellaceae_UCG_003'
p507
(lp508
F0.0
aF0.0
aF0.0
aF0.0
aF0.0
aF0.0
aF0.0
aF0.0
aF0.0
aF0.0
aF0.0
aF0.0
aF0.0
aF0.0
aF3140.2651779483595
asS'Bacteria.Bacteroidota.Bacteroidia.Bacteroidales.Prevotellaceae.Prevotellaceae_UCG_001'
p509
(lp510
F2313.985276500764
aF439.72373219308423
aF0.0
aF5027.677619216901
aF304.46307042051717
aF0.0
aF0.0
aF8653.846153846156
aF0.0
aF592.1509372320004
aF0.0
aF2560.2847181871007
aF5087.749385468472
aF761.9559858365828
aF0.0
asS'Bacteria.Proteobacteria.Gammaproteobacteria'
p511
(lp512
F6634.7896423561715
aF11470.724255312696
aF13755.27426160337
aF3719.973591996343
aF12088.974854932298
aF9662.942319275828
aF21912.97123273445
aF122041.42011834322
aF35341.69025475131
aF23420.590517417393
aF31832.29813664596
aF12692.4753050552
aF30526.49631281083
aF29268.074044193447
aF63503.140265177935
asS'Bacteria.Firmicutes.Clostridia.Lachnospirales.Lachnospiraceae.A2'
p513
(lp514
F0.0
aF409.3979575590784
aF1940.9282700421932
aF18098.369813620433
aF4943.047496238984
aF2825.074444529281
aF0.0
aF0.0
aF0.0
aF0.0
aF0.0
aF0.0
aF0.0
aF0.0
aF0.0
asS'Bacteria.Bacteroidota.Bacteroidia.Bacteroidales.Rikenellaceae'
p515
(lp516
F3286.678202463474
aF98.55876756051887
aF0.0
aF3923.1120816616726
aF608.9261408410343
aF322.3808675438819
aF0.0
aF0.0
aF0.0
aF204.1899783558622
aF0.0
aF1143.9570017431727
aF0.0
aF4302.8102729595275
aF0.0
asS'Bacteria.Acidobacteriota'
p517
(lp518
F0.0
aF0.0
aF0.0
aF0.0
aF0.0
aF0.0
aF0.0
aF0.0
aF0.0
aF0.0
aF0.0
aF0.0
aF685.9886811867602
aF0.0
aF0.0
asS'Bacteria.Actinobacteriota.Actinobacteria.Pseudonocardiales.Pseudonocardiaceae'
p519
(lp520
F0.0
aF0.0
aF0.0
aF0.0
aF0.0
aF101.80448448754166
aF0.0
aF0.0
aF0.0
aF0.0
aF0.0
aF0.0
aF0.0
aF32136.614226166468
aF5233.7752965805985
asS'Bacteria.Firmicutes.Clostridia.Oscillospirales.Butyricicoccaceae.UCG_009.uncultured_bacterium'
p521
(lp522
F511.9436452435318
aF174.3732041455334
aF706.7510548523203
aF0.0
aF1110.3947274160037
aF262.99491825948263
aF0.0
aF0.0
aF0.0
aF0.0
aF0.0
aF1107.6409064497386
aF0.0
aF0.0
aF0.0
asS'Bacteria.Firmicutes.Clostridia.Clostridia_vadinBB60_group.Clostridia_vadinBB60_group.Clostridia_vadinBB60_group'
p523
(lp524
F0.0
aF0.0
aF158.22784810126575
aF0.0
aF0.0
aF0.0
aF0.0
aF0.0
aF0.0
aF0.0
aF0.0
aF0.0
aF0.0
aF0.0
aF0.0
asS'Bacteria.Bacteroidota.Bacteroidia.Bacteroidales.Rikenellaceae.Alistipes'
p525
(lp526
F368.5994245753429
aF0.0
aF0.0
aF0.0
aF0.0
aF0.0
aF0.0
aF0.0
aF0.0
aF0.0
aF0.0
aF0.0
aF0.0
aF3585.675227466272
aF0.0
asS'Bacteria.Firmicutes.Clostridia.Lachnospirales.Lachnospiraceae.Lachnospiraceae_NK4A136_group'
p527
(lp528
F860.0653240091333
aF14260.69552164123
aF21845.991561181425
aF10461.632217764462
aF6769.825918762088
aF3970.374895014125
aF0.0
aF1553.2544378698226
aF0.0
aF0.0
aF14751.552795031053
aF1670.5403834979666
aF2115.1317669925106
aF0.0
aF0.0
asS'Bacteria.Firmicutes.Clostridia.Eubacteriales.Anaerofustaceae.Anaerofustis.uncultured_bacterium'
p529
(lp530
F327.64393295586035
aF75.81443658501452
aF189.8734177215189
aF0.0
aF358.1918475535496
aF0.0
aF0.0
aF0.0
aF0.0
aF0.0
aF0.0
aF0.0
aF0.0
aF0.0
aF0.0
asS'Bacteria.Firmicutes.Clostridia.Lachnospirales.Lachnospiraceae._Eubacterium__ventriosum_group.uncultured_rumen'
p531
(lp532
F409.5549161948254
aF0.0
aF0.0
aF0.0
aF0.0
aF0.0
aF0.0
aF0.0
aF0.0
aF0.0
aF0.0
aF744.479953515398
aF0.0
aF0.0
aF0.0
asS'Bacteria.Firmicutes.Clostridia.Lachnospirales.Lachnospiraceae.Anaerostipes'
p533
(lp534
F0.0
aF0.0
aF0.0
aF0.0
aF0.0
aF0.0
aF0.0
aF0.0
aF0.0
aF0.0
aF0.0
aF3050.5520046484608
aF0.0
aF0.0
aF0.0
asS'Bacteria.Firmicutes.Clostridia.Christensenellales.Christensenellaceae'
p535
(lp536
F4924.897867242776
aF576.1897180461103
aF2035.8649789029525
aF4786.450662739323
aF788.0220646178092
aF525.9898365189653
aF41541.17769238757
aF29807.692307692312
aF3720.177921552769
aF3859.1905909257953
aF0.0
aF13872.74840209181
aF21437.146287086256
aF1568.7329120164943
aF0.0
asS'Bacteria.Actinobacteriota.Actinobacteria.Bifidobacteriales.Bifidobacteriaceae.Bifidobacterium'
p537
(lp538
F0.0
aF0.0
aF0.0
aF0.0
aF0.0
aF0.0
aF0.0
aF0.0
aF0.0
aF0.0
aF0.0
aF0.0
aF13891.270794031894
aF0.0
aF0.0
asS'Bacteria.Campylobacterota.Campylobacteria.Campylobacterales'
p539
(lp540
F0.0
aF0.0
aF0.0
aF0.0
aF0.0
aF0.0
aF0.0
aF0.0
aF0.0
aF0.0
aF0.0
aF2306.072051133063
aF0.0
aF0.0
aF0.0
asS'Bacteria.Firmicutes.Bacilli.Erysipelotrichales.Erysipelotrichaceae.Allobaculum'
p541
(lp542
F0.0
aF0.0
aF0.0
aF0.0
aF0.0
aF0.0
aF0.0
aF7914.201183431954
aF17064.294379296396
aF0.0
aF0.0
aF1307.3794305636259
aF1714.9717029669007
aF20214.24409484111
aF55826.93649685972
asS'Bacteria.Firmicutes.Clostridia.Christensenellales.Christensenellaceae.Christensenellaceae_R_7_group.uncultured_bacterium'
p543
(lp544
F143.3442206681889
aF0.0
aF453.58649789029516
aF0.0
aF0.0
aF0.0
aF0.0
aF0.0
aF0.0
aF3001.592681831174
aF0.0
aF0.0
aF571.6572343223002
aF0.0
aF0.0
asS'Bacteria.Desulfobacterota'
p545
(lp546
F0.0
aF0.0
aF0.0
aF0.0
aF0.0
aF0.0
aF1869.352996157441
aF4585.798816568047
aF0.0
aF0.0
aF0.0
aF12038.78558977339
aF14462.928028354196
aF0.0
aF0.0
asS'Bacteria.Actinobacteriota.Coriobacteriia.Coriobacteriales.uncultured.uncultured'
p547
(lp548
F0.0
aF0.0
aF780.5907172995777
aF596.7193133919048
aF268.6438856651622
aF220.57638305634026
aF5296.500155779417
aF5917.15976331361
aF7925.596441568943
aF3900.0285865969677
aF3364.389233954451
aF7245.061011040094
aF2400.960384153661
aF3182.2867643763166
aF0.0
asS'Bacteria.Actinobacteriota.Coriobacteriia.Coriobacteriales.Eggerthellaceae.Gordonibacter'
p549
(lp550
F0.0
aF341.16496463256533
aF0.0
aF215.83464526941242
aF0.0
aF127.25560560942705
aF0.0
aF0.0
aF0.0
aF0.0
aF0.0
aF0.0
aF1200.4801920768305
aF0.0
aF0.0
asS'Bacteria.Firmicutes.Clostridia.Christensenellales.Christensenellaceae.Christensenellaceae_R_7_group'
p551
(lp552
F2365.179641025117
aF348.7464082910668
aF1002.1097046413497
aF4786.450662739323
aF358.1918475535496
aF152.70672673131247
aF41541.17769238757
aF29807.692307692312
aF3720.177921552769
aF0.0
aF0.0
aF13636.693782684486
aF19207.683073229287
aF1568.7329120164943
aF0.0
asS'Bacteria.Firmicutes.Bacilli.Erysipelotrichales'
p553
(lp554
F45194.385002098985
aF89286.66196617161
aF73470.46413502107
aF14886.242445787417
aF93380.61465721038
aF110296.67523521076
aF132412.5038944854
aF72411.2426035503
aF38980.99474322684
aF89373.95352636087
aF5434.782608695651
aF18085.415456130162
aF49905.67655633681
aF29626.641566940074
aF71179.34403349613
asS'Bacteria.Firmicutes.Clostridia.Peptostreptococcales_Tissierellales.Peptostreptococcaceae.Romboutsia.Romboutsia_ilealis'
p555
(lp556
F0.0
aF0.0
aF0.0
aF0.0
aF7360.842467225444
aF6786.965632502776
aF0.0
aF0.0
aF0.0
aF0.0
aF0.0
aF0.0
aF0.0
aF0.0
aF0.0
asS'Bacteria.Bacteroidota.Bacteroidia.Bacteroidales.Prevotellaceae.Prevotellaceae_NK3B31_group'
p557
(lp558
F6911.239210787679
aF1084.1464431657078
aF263.71308016877623
aF450.7135239449495
aF0.0
aF110.28819152817013
aF0.0
aF1405.3254437869823
aF2507.0764253942575
aF306.28496753379335
aF0.0
aF3577.1353864032544
aF8460.527067970042
aF18869.615884541257
aF13956.73412421493
asS'Bacteria.Firmicutes.Bacilli.Lactobacillales.Lactobacillaceae.Lactobacillus.Lactobacillus_johnsonii'
p559
(lp560
F348.1216787656016
aF17073.41111894527
aF47078.05907172994
aF1149.002082169519
aF14166.487570742887
aF44123.76031830868
aF21601.412400041543
aF1923.0769230769233
aF1779.2155276991505
aF1776.4528116960012
aF0.0
aF3486.3451481696693
aF12976.619219116215
aF3451.212406436287
aF0.0
asS'Bacteria.Proteobacteria.Alphaproteobacteria.Rhizobiales.Beijerinckiaceae.Methylobacterium_Methylorubrum.Methylobacterium_hispanicum'
p561
(lp562
F61.43323742922381
aF0.0
aF0.0
aF0.0
aF0.0
aF0.0
aF0.0
aF0.0
aF0.0
aF0.0
aF0.0
aF0.0
aF0.0
aF0.0
aF0.0
asS'Bacteria.Actinobacteriota.Coriobacteriia.Coriobacteriales.Eggerthellaceae.Enterorhabdus.uncultured_bacterium'
p563
(lp564
F604.0935013873675
aF1645.173273894815
aF2405.0632911392395
aF539.5866131735311
aF3438.641736514076
aF2154.8615883196317
aF0.0
aF4437.869822485208
aF2749.6967246259596
aF9862.375954588146
aF0.0
aF1924.7530505520049
aF3544.2748527982612
aF941.2397472098964
aF0.0
asS'Bacteria.Firmicutes.Clostridia.Lachnospirales.Lachnospiraceae.Eisenbergiella.uncultured_organism'
p565
(lp566
F0.0
aF0.0
aF0.0
aF0.0
aF0.0
aF0.0
aF0.0
aF0.0
aF0.0
aF0.0
aF0.0
aF508.4253341080767
aF0.0
aF0.0
aF0.0
asS'Bacteria.Proteobacteria.Gammaproteobacteria.Burkholderiales.Oxalobacteraceae.Herminiimonas.uncultured_bacterium'
p567
(lp568
F0.0
aF0.0
aF0.0
aF0.0
aF0.0
aF0.0
aF0.0
aF0.0
aF0.0
aF428.7989545473106
aF0.0
aF0.0
aF0.0
aF0.0
aF0.0
asS'Bacteria.Firmicutes.Clostridia.Lachnospirales.Lachnospiraceae._Eubacterium__xylanophilum_group.uncultured_bacterium'
p569
(lp570
F4965.853358862259
aF6868.787954602315
aF10232.067510548519
aF22218.2723071454
aF967.1179883945839
aF4699.973700508172
aF0.0
aF2218.934911242604
aF14233.724221593204
aF2205.251766243312
aF16304.347826086952
aF3613.4514816966885
aF1486.3088092379805
aF0.0
aF10467.550593161197
asS'Bacteria.Acidobacteriota.Acidobacteriae'
p571
(lp572
F0.0
aF0.0
aF0.0
aF0.0
aF0.0
aF0.0
aF0.0
aF0.0
aF0.0
aF0.0
aF0.0
aF0.0
aF685.9886811867602
aF0.0
aF0.0
asS'Bacteria.Proteobacteria.Gammaproteobacteria.Burkholderiales.Sutterellaceae'
p573
(lp574
F1064.842782106546
aF0.0
aF0.0
aF107.91732263470621
aF0.0
aF0.0
aF0.0
aF2810.6508875739646
aF0.0
aF0.0
aF0.0
aF472.1092388146427
aF0.0
aF8022.948321455784
aF0.0
asS'Bacteria.Patescibacteria.Saccharimonadia.Saccharimonadales'
p575
(lp576
F0.0
aF0.0
aF0.0
aF0.0
aF0.0
aF0.0
aF0.0
aF0.0
aF0.0
aF0.0
aF0.0
aF108.94828588030217
aF0.0
aF0.0
aF0.0
asS'Bacteria.Firmicutes.Clostridia.Peptostreptococcales_Tissierellales.Anaerovoracaceae.Anaerovorax'
p577
(lp578
F0.0
aF0.0
aF0.0
aF0.0
aF0.0
aF0.0
aF0.0
aF0.0
aF0.0
aF204.1899783558622
aF0.0
aF0.0
aF0.0
aF0.0
aF0.0
asS'Bacteria.Firmicutes.Clostridia.Oscillospirales.Ruminococcaceae._Eubacterium__siraeum_group.uncultured_bacterium'
p579
(lp580
F15296.87611987673
aF37.90721829250726
aF0.0
aF0.0
aF0.0
aF0.0
aF0.0
aF0.0
aF0.0
aF1551.8438355045525
aF14751.552795031053
aF236.05461940732135
aF23552.27805407877
aF1568.7329120164943
aF0.0
asS'Bacteria.Firmicutes.Clostridia.Lachnospirales.Lachnospiraceae.Sellimonas.uncultured_Blautia'
p581
(lp582
F0.0
aF0.0
aF0.0
aF0.0
aF0.0
aF0.0
aF0.0
aF0.0
aF0.0
aF0.0
aF0.0
aF0.0
aF0.0
aF672.314105149926
aF0.0
asS'Bacteria.Firmicutes.Bacilli.Staphylococcales'
p583
(lp584
F0.0
aF113.72165487752177
aF0.0
aF0.0
aF0.0
aF0.0
aF5711.911932703292
aF0.0
aF1617.4686615446822
aF0.0
aF0.0
aF907.9023823358514
aF1943.6345966958206
aF0.0
aF0.0
asS'Bacteria.Firmicutes.Bacilli.Staphylococcales.Staphylococcaceae'
p585
(lp586
F0.0
aF113.72165487752177
aF0.0
aF0.0
aF0.0
aF0.0
aF5711.911932703292
aF0.0
aF1617.4686615446822
aF0.0
aF0.0
aF907.9023823358514
aF1943.6345966958206
aF0.0
aF0.0
asS'Bacteria.Deferribacterota.Deferribacteres.Deferribacterales'
p587
(lp588
F0.0
aF0.0
aF0.0
aF0.0
aF411.920624686582
aF0.0
aF0.0
aF0.0
aF0.0
aF0.0
aF0.0
aF0.0
aF0.0
aF0.0
aF0.0
asS'Bacteria.Proteobacteria.Gammaproteobacteria.Pseudomonadales.Moraxellaceae'
p589
(lp590
F0.0
aF0.0
aF0.0
aF82.52501142654003
aF53.72877713303244
aF0.0
aF0.0
aF0.0
aF0.0
aF2736.145709968553
aF0.0
aF0.0
aF0.0
aF672.314105149926
aF0.0
asS'Bacteria.Actinobacteriota.Coriobacteriia.Coriobacteriales.Eggerthellaceae.uncultured.uncultured_Coriobacteriales'
p591
(lp592
F0.0
aF0.0
aF0.0
aF260.27118988370324
aF0.0
aF0.0
aF0.0
aF0.0
aF0.0
aF0.0
aF0.0
aF0.0
aF0.0
aF0.0
aF0.0
asS'Bacteria.Proteobacteria.Alphaproteobacteria.Sphingomonadales.Sphingomonadaceae'
p593
(lp594
F0.0
aF0.0
aF94.93670886075945
aF0.0
aF0.0
aF0.0
aF0.0
aF0.0
aF0.0
aF0.0
aF0.0
aF0.0
aF0.0
aF0.0
aF0.0
asS'Bacteria.Firmicutes.Clostridia.Lachnospirales.Defluviitaleaceae'
p595
(lp596
F0.0
aF0.0
aF0.0
aF82.52501142654003
aF555.1973637080018
aF0.0
aF0.0
aF0.0
aF0.0
aF0.0
aF0.0
aF1289.2213829169089
aF0.0
aF0.0
aF0.0
asS'Bacteria.Firmicutes.Clostridia.Lachnospirales.Lachnospiraceae.Acetatifactor'
p597
(lp598
F0.0
aF0.0
aF0.0
aF133.3096338428724
aF0.0
aF0.0
aF0.0
aF0.0
aF0.0
aF0.0
aF0.0
aF0.0
aF0.0
aF0.0
aF0.0
asS'Bacteria.Gemmatimonadota.Gemmatimonadetes.Gemmatimonadales.Gemmatimonadaceae'
p599
(lp600
F0.0
aF0.0
aF0.0
aF0.0
aF0.0
aF0.0
aF0.0
aF0.0
aF0.0
aF0.0
aF2846.79089026915
aF0.0
aF0.0
aF0.0
aF0.0
asS'Bacteria.Firmicutes.Clostridia.Oscillospirales.Oscillospiraceae.uncultured.unidentified'
p601
(lp602
F0.0
aF0.0
aF0.0
aF0.0
aF0.0
aF0.0
aF0.0
aF0.0
aF0.0
aF0.0
aF0.0
aF835.2701917489833
aF0.0
aF0.0
aF0.0
asS'Bacteria.Firmicutes.Bacilli.Staphylococcales.Staphylococcaceae.Staphylococcus.Staphylococcus_sciuri'
p603
(lp604
F0.0
aF0.0
aF0.0
aF0.0
aF0.0
aF0.0
aF1765.5000519264722
aF0.0
aF0.0
aF0.0
aF0.0
aF0.0
aF0.0
aF0.0
aF0.0
asS'Bacteria.Actinobacteriota.Coriobacteriia.Coriobacteriales.uncultured.uncultured.uncultured_bacterium'
p605
(lp606
F0.0
aF0.0
aF780.5907172995777
aF596.7193133919048
aF268.6438856651622
aF220.57638305634026
aF5296.500155779417
aF5917.15976331361
aF7925.596441568943
aF3900.0285865969677
aF3364.389233954451
aF7245.061011040094
aF2400.960384153661
aF3182.2867643763166
aF0.0
asS'Bacteria.Firmicutes.Clostridia.Oscillospirales._Eubacterium__coprostanoligenes_group._Eubacterium__coprostanoligenes_group.uncultured_bacterium'
p607
(lp608
F1853.235995781585
aF144.04742951152758
aF0.0
aF120.6134782387893
aF0.0
aF2103.959346075861
aF0.0
aF1775.147928994083
aF13263.243024666393
aF632.9889329031729
aF41407.86749482401
aF690.005810575247
aF4916.252215171781
aF13087.714580251893
aF0.0
asS'Bacteria.Firmicutes.Bacilli.Acholeplasmatales.Acholeplasmataceae'
p609
(lp610
F0.0
aF0.0
aF0.0
aF0.0
aF0.0
aF0.0
aF0.0
aF295.8579881656805
aF0.0
aF61.256993506758654
aF0.0
aF254.21266705403835
aF0.0
aF0.0
aF0.0
asS'Bacteria.Firmicutes.Clostridia.Peptococcales.Peptococcaceae'
p611
(lp612
F0.0
aF242.60619707204646
aF210.970464135021
aF1072.8251485450205
aF0.0
aF483.57130131582284
aF0.0
aF0.0
aF0.0
aF81.67599134234487
aF0.0
aF780.7960488088321
aF0.0
aF851.5978665232396
aF0.0
asS'Bacteria.Firmicutes.Clostridia.Oscillospirales.uncultured.uncultured'
p613
(lp614
F0.0
aF0.0
aF0.0
aF0.0
aF0.0
aF0.0
aF0.0
aF0.0
aF0.0
aF0.0
aF0.0
aF326.84485764090647
aF0.0
aF0.0
aF0.0
asS'Bacteria.Firmicutes.Clostridia.Clostridia_UCG_014.Clostridia_UCG_014.Clostridia_UCG_014'
p615
(lp616
F142002.92831765083
aF33851.14593520899
aF72763.71308016875
aF62122.28937077853
aF137062.11046636576
aF31330.33010104094
aF43722.089521237926
aF219674.5562130178
aF132308.936514355
aF33242.12847633437
aF0.0
aF243626.52527600233
aF95123.76379123075
aF41593.83263860876
aF23726.448011165383
asS'Bacteria.Actinobacteriota.Coriobacteriia.Coriobacteriales.Atopobiaceae.Coriobacteriaceae_UCG_002'
p617
(lp618
F6133.08487001751
aF742.9814785331422
aF1540.084388185653
aF8309.633842872377
aF3725.1952145569157
aF3851.602996445326
aF3219.4412711600376
aF0.0
aF3801.051354630003
aF0.0
aF0.0
aF3577.1353864032544
aF685.9886811867602
aF13042.893639908565
aF5582.693649685972
asS'Bacteria.Firmicutes.Clostridia.Oscillospirales.Oscillospiraceae.uncultured.uncultured_bacterium'
p619
(lp620
F0.0
aF106.14021121902033
aF0.0
aF2031.3848966532935
aF0.0
aF110.28819152817013
aF0.0
aF0.0
aF0.0
aF347.1229632049657
aF0.0
aF1289.2213829169089
aF1772.1374263991306
aF0.0
aF0.0
asS'Bacteria.Firmicutes.Clostridia.Oscillospirales.Ruminococcaceae.Paludicola.uncultured_bacterium'
p621
(lp622
F0.0
aF0.0
aF0.0
aF0.0
aF286.5534780428397
aF203.60896897508331
aF0.0
aF0.0
aF0.0
aF0.0
aF0.0
aF0.0
aF0.0
aF0.0
aF0.0
asS'Bacteria.Actinobacteriota.Coriobacteriia.Coriobacteriales.Atopobiaceae.uncultured.uncultured_bacterium'
p623
(lp624
F122.86647485844762
aF0.0
aF0.0
aF0.0
aF0.0
aF0.0
aF0.0
aF0.0
aF0.0
aF530.8939437252418
aF0.0
aF0.0
aF0.0
aF0.0
aF0.0
asS'Bacteria.Firmicutes.Clostridia.Oscillospirales.Butyricicoccaceae.UCG_008.uncultured_bacterium'
p625
(lp626
F0.0
aF0.0
aF0.0
aF0.0
aF0.0
aF0.0
aF0.0
aF8505.917159763314
aF4205.418520016174
aF0.0
aF0.0
aF8497.966298663569
aF0.0
aF7216.171395275873
aF3489.1835310537326
asS'Bacteria.Proteobacteria.Gammaproteobacteria.Enterobacterales.Pasteurellaceae'
p627
(lp628
F0.0
aF0.0
aF0.0
aF285.6635010918694
aF0.0
aF0.0
aF0.0
aF665.6804733727812
aF1374.8483623129798
aF0.0
aF0.0
aF0.0
aF0.0
aF672.314105149926
aF0.0
asS'Bacteria.Firmicutes.Clostridia.Lachnospirales.Lachnospiraceae._Bacteroides__pectinophilus_group'
p629
(lp630
F0.0
aF409.3979575590784
aF0.0
aF2869.331166522777
aF0.0
aF0.0
aF0.0
aF1035.5029585798818
aF1132.2280630812775
aF0.0
aF0.0
aF0.0
aF0.0
aF0.0
aF0.0
asS'Bacteria.Firmicutes.Clostridia.Monoglobales.Monoglobaceae.Monoglobus'
p631
(lp632
F7259.36088955328
aF4018.165139005769
aF7215.1898734177175
aF0.0
aF0.0
aF0.0
aF0.0
aF0.0
aF9947.432268499795
aF1694.7768203536561
aF0.0
aF0.0
aF0.0
aF0.0
aF0.0
asS'Bacteria.Firmicutes.Clostridia.Lachnospirales.Lachnospiraceae.Roseburia.uncultured_Clostridiales'
p633
(lp634
F0.0
aF0.0
aF0.0
aF387.2327459245341
aF0.0
aF0.0
aF0.0
aF0.0
aF0.0
aF0.0
aF0.0
aF0.0
aF0.0
aF0.0
aF0.0
asS'Bacteria.Firmicutes.Bacilli.RF39.RF39.RF39.uncultured_Paenibacillaceae'
p635
(lp636
F0.0
aF0.0
aF0.0
aF0.0
aF0.0
aF0.0
aF0.0
aF0.0
aF0.0
aF0.0
aF0.0
aF0.0
aF457.3257874578402
aF0.0
aF0.0
asS'Bacteria.Firmicutes.Clostridia.Oscillospirales.Ruminococcaceae.UBA1819.uncultured_bacterium'
p637
(lp638
F952.2151801529691
aF0.0
aF168.7763713080168
aF6183.027779188462
aF0.0
aF0.0
aF0.0
aF0.0
aF0.0
aF0.0
aF0.0
aF708.1638582219641
aF0.0
aF672.314105149926
aF0.0
asS'Bacteria.Firmicutes.Clostridia.Lachnospirales.Lachnospiraceae.Acetatifactor.uncultured_bacterium'
p639
(lp640
F0.0
aF0.0
aF443.03797468354406
aF215.83464526941242
aF0.0
aF0.0
aF0.0
aF0.0
aF0.0
aF0.0
aF0.0
aF0.0
aF0.0
aF0.0
aF0.0
asS'Bacteria.Actinobacteriota.Coriobacteriia.Coriobacteriales.Eggerthellaceae'
p641
(lp642
F0.0
aF0.0
aF0.0
aF0.0
aF0.0
aF0.0
aF0.0
aF887.5739644970415
aF0.0
aF0.0
aF0.0
aF0.0
aF0.0
aF358.5675227466272
aF0.0
asS'Bacteria.Proteobacteria.Gammaproteobacteria.Burkholderiales.Sutterellaceae.Parasutterella.uncultured_organism'
p643
(lp644
F1064.842782106546
aF0.0
aF0.0
aF107.91732263470621
aF0.0
aF0.0
aF0.0
aF2810.6508875739646
aF0.0
aF0.0
aF0.0
aF472.1092388146427
aF0.0
aF8022.948321455784
aF0.0
asS'Bacteria.Proteobacteria.Gammaproteobacteria.Burkholderiales.Comamonadaceae.Comamonas'
p645
(lp646
F0.0
aF189.5360914625363
aF263.71308016877623
aF0.0
aF0.0
aF0.0
aF0.0
aF19896.449704142015
aF0.0
aF0.0
aF0.0
aF326.84485764090647
aF0.0
aF0.0
aF0.0
asS'Bacteria.Proteobacteria.Gammaproteobacteria.Burkholderiales.Alcaligenaceae'
p647
(lp648
F102.38872904870635
aF75.81443658501452
aF179.32489451476786
aF158.70194505103854
aF250.7342932874847
aF178.1578478531979
aF0.0
aF3476.331360946746
aF0.0
aF1123.0448809572422
aF0.0
aF0.0
aF0.0
aF896.418806866568
aF0.0
asS'Bacteria.Firmicutes.Clostridia.Christensenellales.Christensenellaceae.Christensenellaceae_R_7_group.uncultured_prokaryote'
p649
(lp650
F1648.4585376841724
aF227.44330975504354
aF580.1687763713078
aF0.0
aF429.8302170642595
aF373.2831097876527
aF0.0
aF0.0
aF0.0
aF857.5979090946212
aF0.0
aF236.05461940732135
aF0.0
aF0.0
aF0.0
asS'Bacteria.Firmicutes.Bacilli.Erysipelotrichales.Erysipelotrichaceae.Holdemania.uncultured_bacterium'
p651
(lp652
F0.0
aF0.0
aF0.0
aF0.0
aF0.0
aF0.0
aF0.0
aF0.0
aF1213.1014961585117
aF0.0
aF0.0
aF0.0
aF0.0
aF1254.9863296131953
aF0.0
asS'Bacteria.Bacteroidota.Bacteroidia.Flavobacteriales'
p653
(lp654
F0.0
aF0.0
aF0.0
aF0.0
aF0.0
aF0.0
aF0.0
aF0.0
aF0.0
aF1245.5588679707596
aF0.0
aF254.21266705403835
aF0.0
aF0.0
aF0.0
asS'Bacteria.Firmicutes.Bacilli'
p655
(lp656
F49320.65078276186
aF111341.08156875231
aF124715.18987341768
aF18517.34294855518
aF126047.7111540941
aF178352.9731151323
aF176030.74047149238
aF115754.43786982249
aF54589.56732713302
aF97786.5806346224
aF8281.573498964803
aF29997.094712376525
aF80432.17286914763
aF37649.58988839586
aF71179.34403349613
asS'Bacteria.Firmicutes.Bacilli.Lactobacillales.Lactobacillaceae.Ligilactobacillus.Lactobacillus_faecis'
p657
(lp658
F0.0
aF485.2123941440929
aF0.0
aF0.0
aF0.0
aF0.0
aF0.0
aF0.0
aF0.0
aF0.0
aF0.0
aF0.0
aF0.0
aF0.0
aF0.0
asS'Bacteria.Firmicutes.Clostridia.Peptostreptococcales_Tissierellales.Anaerovoracaceae._Eubacterium__nodatum_group'
p659
(lp660
F378.8382974802135
aF0.0
aF0.0
aF0.0
aF0.0
aF0.0
aF0.0
aF0.0
aF0.0
aF0.0
aF0.0
aF0.0
aF0.0
aF0.0
aF0.0
asS'Bacteria.Proteobacteria.Gammaproteobacteria.Burkholderiales.Oxalobacteraceae.Massilia'
p661
(lp662
F0.0
aF0.0
aF0.0
aF0.0
aF0.0
aF0.0
aF0.0
aF0.0
aF0.0
aF0.0
aF13198.757763975153
aF0.0
aF0.0
aF0.0
aF0.0
asS'Bacteria.Proteobacteria.Alphaproteobacteria.Sphingomonadales'
p663
(lp664
F0.0
aF0.0
aF94.93670886075945
aF0.0
aF0.0
aF0.0
aF0.0
aF0.0
aF0.0
aF0.0
aF0.0
aF0.0
aF0.0
aF0.0
aF0.0
asS'Bacteria.Firmicutes.Clostridia.Oscillospirales.Oscillospiraceae.UCG_005.gut_metagenome'
p665
(lp666
F0.0
aF0.0
aF147.67932489451468
aF0.0
aF0.0
aF0.0
aF0.0
aF0.0
aF0.0
aF0.0
aF0.0
aF254.21266705403835
aF0.0
aF0.0
aF0.0
asS'Bacteria.Actinobacteriota.Coriobacteriia.Coriobacteriales.Eggerthellaceae.Gordonibacter.uncultured_bacterium'
p667
(lp668
F0.0
aF341.16496463256533
aF0.0
aF215.83464526941242
aF0.0
aF127.25560560942705
aF0.0
aF0.0
aF0.0
aF0.0
aF0.0
aF0.0
aF1200.4801920768305
aF0.0
aF0.0
asS'Bacteria.Actinobacteriota.Coriobacteriia.Coriobacteriales.Atopobiaceae.Coriobacteriaceae_UCG_002.uncultured_bacterium'
p669
(lp670
F6133.08487001751
aF742.9814785331422
aF1540.084388185653
aF8309.633842872377
aF3725.1952145569157
aF3851.602996445326
aF3219.4412711600376
aF0.0
aF3801.051354630003
aF0.0
aF0.0
aF3577.1353864032544
aF685.9886811867602
aF13042.893639908565
aF5582.693649685972
asS'Bacteria.Bacteroidota.Bacteroidia.Bacteroidales.Muribaculaceae.Muribaculum.uncultured_bacterium'
p671
(lp672
F327.64393295586035
aF0.0
aF0.0
aF876.0347366817329
aF0.0
aF0.0
aF0.0
aF0.0
aF0.0
aF0.0
aF0.0
aF0.0
aF0.0
aF0.0
aF0.0
asS'Bacteria.Firmicutes.Bacilli.Erysipelotrichales.Erysipelotrichaceae.Faecalibaculum.uncultured_bacterium'
p673
(lp674
F5682.5744622032025
aF712.6557038991365
aF717.2995780590715
aF774.4654918490681
aF3492.3705136471085
aF2426.340213619743
aF0.0
aF0.0
aF0.0
aF1735.6148160248285
aF0.0
aF635.531667635096
aF0.0
aF0.0
aF0.0
asS'Bacteria.Firmicutes.Clostridia.Oscillospirales.Hungateiclostridiaceae.Ruminiclostridium'
p675
(lp676
F0.0
aF0.0
aF0.0
aF57.13270021837388
aF0.0
aF0.0
aF0.0
aF0.0
aF0.0
aF0.0
aF0.0
aF0.0
aF0.0
aF0.0
aF0.0
asS'Bacteria.Firmicutes.Clostridia.Oscillospirales.Hungateiclostridiaceae.Ruminiclostridium.uncultured_organism'
p677
(lp678
F0.0
aF0.0
aF0.0
aF57.13270021837388
aF0.0
aF0.0
aF0.0
aF0.0
aF0.0
aF0.0
aF0.0
aF0.0
aF0.0
aF0.0
aF0.0
asS'Bacteria.Bacteroidota.Bacteroidia.Flavobacteriales.Weeksellaceae.Chryseobacterium'
p679
(lp680
F0.0
aF0.0
aF0.0
aF0.0
aF0.0
aF0.0
aF0.0
aF0.0
aF0.0
aF1245.5588679707596
aF0.0
aF254.21266705403835
aF0.0
aF0.0
aF0.0
asS'Bacteria.Firmicutes.Clostridia.Clostridiales'
p681
(lp682
F60429.82788454649
aF433787.4618084775
aF235221.51898734167
aF25614.493931237623
aF190952.07393079728
aF294181.0253408329
aF402326.3059507737
aF18639.053254437873
aF16983.420946219165
aF658737.2891738471
aF12681.159420289852
aF10350.087158628707
aF15091.750986108726
aF1613.5538523598225
aF0.0
asS'Bacteria.Actinobacteriota.Actinobacteria.Pseudonocardiales.Pseudonocardiaceae.Saccharopolyspora'
p683
(lp684
F0.0
aF0.0
aF0.0
aF0.0
aF0.0
aF0.0
aF0.0
aF0.0
aF0.0
aF0.0
aF0.0
aF0.0
aF0.0
aF32136.614226166468
aF0.0
asS'Bacteria.Firmicutes.Clostridia.Lachnospirales.Lachnospiraceae.Coprococcus'
p685
(lp686
F0.0
aF0.0
aF0.0
aF0.0
aF0.0
aF0.0
aF0.0
aF0.0
aF0.0
aF0.0
aF0.0
aF0.0
aF0.0
aF2554.793599569719
aF4884.856943475225
asS'Bacteria.Firmicutes.Clostridia.Peptococcales.Peptococcaceae.Peptococcus'
p687
(lp688
F0.0
aF0.0
aF0.0
aF0.0
aF0.0
aF203.60896897508331
aF0.0
aF0.0
aF0.0
aF81.67599134234487
aF0.0
aF0.0
aF0.0
aF0.0
aF0.0
asS'Bacteria.Firmicutes.Clostridia.Lachnospirales.Lachnospiraceae.Roseburia.uncultured_bacterium'
p689
(lp690
F563.138009767885
aF409.3979575590784
aF0.0
aF7274.897161139606
aF519.3781789526469
aF195.12526193445484
aF2077.058884619379
aF0.0
aF0.0
aF0.0
aF0.0
aF5193.201626961069
aF0.0
aF358.5675227466272
aF0.0
asS'Bacteria.Firmicutes.Clostridia.Lachnospirales.Lachnospiraceae.Lachnospiraceae_NC2004_group.uncultured_Clostridiaceae'
p691
(lp692
F0.0
aF0.0
aF0.0
aF380.8846681224925
aF0.0
aF0.0
aF0.0
aF0.0
aF0.0
aF0.0
aF0.0
aF0.0
aF0.0
aF0.0
aF0.0
asS'Bacteria.Proteobacteria.Gammaproteobacteria.Burkholderiales.Burkholderiaceae.Burkholderia_Caballeronia_Paraburkholderia'
p693
(lp694
F1535.8309357305952
aF4526.121864125367
aF2278.481012658227
aF793.5097252551926
aF2149.1510853212976
aF1874.8992559788921
aF4777.235434624572
aF12869.822485207103
aF1617.4686615446822
aF4165.47555845959
aF0.0
aF2560.2847181871007
aF6116.732407248613
aF3809.779929182914
aF10118.632240055824
asS'Bacteria.Firmicutes.Clostridia.Oscillospirales.Ruminococcaceae.Incertae_Sedis.uncultured_bacterium'
p695
(lp696
F0.0
aF0.0
aF0.0
aF1009.3443705246051
aF0.0
aF0.0
aF8827.500259632361
aF2736.686390532545
aF4609.785685402344
aF2940.3356883244155
aF6469.979296066252
aF18303.312027890763
aF8689.189961698963
aF1075.7025682398817
aF0.0
asS'Bacteria.Firmicutes.Bacilli.Erysipelotrichales.Erysipelotrichaceae.uncultured.uncultured_bacterium'
p697
(lp698
F655.2878659117207
aF0.0
aF0.0
aF215.83464526941242
aF0.0
aF0.0
aF0.0
aF5103.550295857989
aF0.0
aF0.0
aF0.0
aF2396.862289366648
aF743.1544046189903
aF0.0
aF0.0
asS'Bacteria.Firmicutes.Clostridia.Lachnospirales'
p699
(lp700
F23262.719239866088
aF52016.28494097846
aF70379.746835443
aF356177.9493169468
aF100186.25976072781
aF106368.71887539978
aF51926.472115484474
aF99778.10650887576
aF136352.6081682167
aF10413.688896148971
aF86956.52173913043
aF292108.5124927368
aF37958.04035900073
aF289408.8117968715
aF250523.37752965797
asS'Bacteria.Firmicutes.Clostridia.Peptococcales.Peptococcaceae.uncultured'
p701
(lp702
F0.0
aF242.60619707204646
aF210.970464135021
aF1072.8251485450205
aF0.0
aF279.9623323407395
aF0.0
aF0.0
aF0.0
aF0.0
aF0.0
aF780.7960488088321
aF0.0
aF851.5978665232396
aF0.0
asS'Bacteria.Actinobacteriota.Actinobacteria.Corynebacteriales.Corynebacteriaceae.Corynebacterium.Corynebacterium_stationis'
p703
(lp704
F0.0
aF0.0
aF0.0
aF0.0
aF0.0
aF0.0
aF5919.6178211652295
aF0.0
aF0.0
aF0.0
aF0.0
aF0.0
aF0.0
aF0.0
aF0.0
asS'Bacteria.Firmicutes.Clostridia.Oscillospirales.Oscillospiraceae.uncultured.Clostridium_sp_'
p705
(lp706
F0.0
aF0.0
aF0.0
aF0.0
aF0.0
aF0.0
aF0.0
aF1479.2899408284025
aF0.0
aF0.0
aF20962.732919254653
aF581.0575246949448
aF3601.4405762304914
aF0.0
aF0.0
asS'Bacteria.Firmicutes.Clostridia.Oscillospirales.Ruminococcaceae.Subdoligranulum'
p707
(lp708
F0.0
aF0.0
aF179.32489451476786
aF0.0
aF0.0
aF0.0
aF0.0
aF8210.059171597633
aF38414.8807116862
aF0.0
aF0.0
aF926.0604299825684
aF457.3257874578402
aF177401.28187889382
aF245638.52058618277
asS'Bacteria.Firmicutes.Clostridia.Oscillospirales.Ruminococcaceae.Harryflintia'
p709
(lp710
F0.0
aF0.0
aF0.0
aF177.74617845716315
aF0.0
aF0.0
aF0.0
aF0.0
aF0.0
aF0.0
aF0.0
aF0.0
aF0.0
aF0.0
aF0.0
asS'Bacteria.Actinobacteriota.Actinobacteria.Corynebacteriales.Corynebacteriaceae'
p711
(lp712
F0.0
aF0.0
aF0.0
aF0.0
aF0.0
aF0.0
aF5919.6178211652295
aF0.0
aF0.0
aF0.0
aF0.0
aF0.0
aF0.0
aF0.0
aF0.0
asS'Bacteria.Actinobacteriota.Coriobacteriia.Coriobacteriales.Eggerthellaceae.Adlercreutzia'
p713
(lp714
F0.0
aF621.678379997119
aF1983.1223628691973
aF806.2058808592758
aF5462.425675191631
aF4224.886106232979
aF0.0
aF0.0
aF4448.038819247876
aF0.0
aF0.0
aF1833.9628123184198
aF0.0
aF0.0
aF0.0
asS'Bacteria.Actinobacteriota.Actinobacteria.Pseudonocardiales'
p715
(lp716
F0.0
aF0.0
aF0.0
aF0.0
aF0.0
aF101.80448448754166
aF0.0
aF0.0
aF0.0
aF0.0
aF0.0
aF0.0
aF0.0
aF32136.614226166468
aF5233.7752965805985
asS'Bacteria.Firmicutes.Clostridia.Oscillospirales.Ruminococcaceae.Ruminococcaceae'
p717
(lp718
F0.0
aF0.0
aF94.93670886075945
aF0.0
aF0.0
aF0.0
aF0.0
aF0.0
aF0.0
aF0.0
aF0.0
aF0.0
aF0.0
aF0.0
aF0.0
asS'Bacteria.Firmicutes.Bacilli.RF39.RF39.RF39.metagenome'
p719
(lp720
F286.6884413363778
aF0.0
aF0.0
aF0.0
aF0.0
aF0.0
aF0.0
aF0.0
aF0.0
aF0.0
aF0.0
aF0.0
aF0.0
aF0.0
aF0.0
asS'Bacteria.Firmicutes.Clostridia.Peptostreptococcales_Tissierellales.Anaerovoracaceae._Eubacterium__brachy_group.uncultured_bacterium'
p721
(lp722
F0.0
aF128.8845421945247
aF242.61603375527415
aF1231.527093596059
aF358.1918475535496
aF0.0
aF0.0
aF0.0
aF1293.9749292357458
aF0.0
aF0.0
aF0.0
aF0.0
aF0.0
aF0.0
asS'Bacteria.Firmicutes.Clostridia.Lachnospirales.Lachnospiraceae._Eubacterium__ruminantium_group'
p723
(lp724
F399.3160432899548
aF4056.072357298277
aF1856.5400843881848
aF50175.20694733635
aF14399.312271652694
aF18562.351004895096
aF0.0
aF0.0
aF0.0
aF0.0
aF0.0
aF0.0
aF0.0
aF0.0
aF0.0
asS'Bacteria.Firmicutes.Clostridia.Peptococcales.Peptococcaceae.uncultured.uncultured_bacterium'
p725
(lp726
F0.0
aF242.60619707204646
aF210.970464135021
aF222.18272307145398
aF0.0
aF279.9623323407395
aF0.0
aF0.0
aF0.0
aF0.0
aF0.0
aF326.84485764090647
aF0.0
aF851.5978665232396
aF0.0
asS'Bacteria.Firmicutes.Clostridia.Oscillospirales.uncultured'
p727
(lp728
F0.0
aF0.0
aF0.0
aF0.0
aF0.0
aF0.0
aF0.0
aF0.0
aF0.0
aF0.0
aF0.0
aF326.84485764090647
aF0.0
aF0.0
aF0.0
asS'Bacteria.Proteobacteria.Alphaproteobacteria.Caulobacterales.Caulobacteraceae.Brevundimonas'
p729
(lp730
F0.0
aF0.0
aF0.0
aF0.0
aF0.0
aF0.0
aF0.0
aF961.5384615384617
aF0.0
aF632.9889329031729
aF0.0
aF0.0
aF0.0
aF0.0
aF0.0
asS'Bacteria.Desulfobacterota.Desulfovibrionia.Desulfovibrionales.Desulfovibrionaceae.Desulfovibrio.uncultured_bacterium'
p731
(lp732
F0.0
aF0.0
aF0.0
aF0.0
aF0.0
aF0.0
aF1869.352996157441
aF4585.798816568047
aF0.0
aF0.0
aF0.0
aF12038.78558977339
aF14462.928028354196
aF0.0
aF0.0
asS'Bacteria.Firmicutes.Clostridia.Oscillospirales.Oscillospiraceae.Colidextribacter.unidentified'
p733
(lp734
F0.0
aF0.0
aF0.0
aF260.27118988370324
aF0.0
aF288.44603938136805
aF0.0
aF0.0
aF0.0
aF0.0
aF0.0
aF0.0
aF0.0
aF0.0
aF0.0
asS'Bacteria.Actinobacteriota.Actinobacteria.Micrococcales.Micrococcaceae.Rothia'
p735
(lp736
F0.0
aF341.16496463256533
aF0.0
aF0.0
aF0.0
aF0.0
aF0.0
aF0.0
aF0.0
aF0.0
aF0.0
aF417.63509587449164
aF0.0
aF0.0
aF0.0
asS'Bacteria.Firmicutes.Bacilli.Erysipelotrichales.Erysipelatoclostridiaceae.Erysipelotrichaceae_UCG_003'
p737
(lp738
F0.0
aF0.0
aF0.0
aF0.0
aF0.0
aF0.0
aF1557.7941634645342
aF0.0
aF0.0
aF0.0
aF0.0
aF5483.730389308542
aF0.0
aF0.0
aF0.0
asS'Bacteria.Firmicutes.Clostridia.Lachnospirales.Lachnospiraceae._Eubacterium__ruminantium_group.uncultured_bacterium'
p739
(lp740
F399.3160432899548
aF4056.072357298277
aF1856.5400843881848
aF50175.20694733635
aF14399.312271652694
aF18562.351004895096
aF0.0
aF0.0
aF0.0
aF0.0
aF0.0
aF0.0
aF0.0
aF0.0
aF0.0
asS'Bacteria.Firmicutes.Bacilli.RF39.RF39.RF39.uncultured_Lachnospiraceae'
p741
(lp742
F337.88280586073097
aF447.30517585158566
aF253.16455696202522
aF234.87887867553707
aF573.1069560856794
aF432.669059072052
aF0.0
aF7766.272189349113
aF0.0
aF1388.4918528198627
aF2846.79089026915
aF0.0
aF11318.813239581543
aF0.0
aF0.0
asS'Bacteria.Bacteroidota.Bacteroidia.Bacteroidales.Bacteroidaceae.Bacteroides.Bacteroides_sartorii'
p743
(lp744
F0.0
aF0.0
aF0.0
aF0.0
aF0.0
aF0.0
aF0.0
aF0.0
aF0.0
aF0.0
aF0.0
aF326.84485764090647
aF0.0
aF0.0
aF0.0
asS'Bacteria.Firmicutes.Clostridia.Lachnospirales.Defluviitaleaceae.Defluviitaleaceae_UCG_011.uncultured_bacterium'
p745
(lp746
F0.0
aF0.0
aF0.0
aF82.52501142654003
aF0.0
aF0.0
aF0.0
aF0.0
aF0.0
aF0.0
aF0.0
aF145.2643811737362
aF0.0
aF0.0
aF0.0
asS'Bacteria.Firmicutes.Clostridia.Lachnospirales.Lachnospiraceae.Lachnospiraceae_NC2004_group'
p747
(lp748
F0.0
aF0.0
aF0.0
aF380.8846681224925
aF0.0
aF0.0
aF0.0
aF0.0
aF0.0
aF0.0
aF0.0
aF0.0
aF0.0
aF0.0
aF0.0
asS'Bacteria.Cyanobacteria.Cyanobacteriia.Chloroplast.Chloroplast'
p749
(lp750
F0.0
aF0.0
aF0.0
aF0.0
aF0.0
aF0.0
aF0.0
aF0.0
aF0.0
aF0.0
aF0.0
aF0.0
aF457.3257874578402
aF0.0
aF0.0
asS'Bacteria.Firmicutes.Clostridia.Eubacteriales.Anaerofustaceae'
p751
(lp752
F327.64393295586035
aF75.81443658501452
aF189.8734177215189
aF0.0
aF358.1918475535496
aF0.0
aF0.0
aF0.0
aF404.36716538617054
aF0.0
aF0.0
aF0.0
aF0.0
aF1703.1957330464793
aF0.0
asS'Bacteria.Firmicutes.Bacilli.Erysipelotrichales.Erysipelatoclostridiaceae.Erysipelotrichaceae_UCG_003.uncultured_bacterium'
p753
(lp754
F0.0
aF0.0
aF0.0
aF0.0
aF0.0
aF0.0
aF1557.7941634645342
aF0.0
aF0.0
aF0.0
aF0.0
aF5483.730389308542
aF0.0
aF0.0
aF0.0
asS'Bacteria.Firmicutes.Bacilli.Staphylococcales.Staphylococcaceae.Staphylococcus'
p755
(lp756
F0.0
aF113.72165487752177
aF0.0
aF0.0
aF0.0
aF0.0
aF0.0
aF0.0
aF1617.4686615446822
aF0.0
aF0.0
aF562.8994770482278
aF1943.6345966958206
aF0.0
aF0.0
asS'Bacteria.Firmicutes.Bacilli.RF39.RF39.RF39'
p757
(lp758
F348.1216787656016
aF879.4474643861685
aF1097.046413502109
aF844.294347671525
aF2131.24149294362
aF1111.3656223223297
aF0.0
aF1035.5029585798818
aF8653.45733926405
aF0.0
aF0.0
aF2614.7588611272517
aF2286.6289372892006
aF1120.52350858321
aF0.0
asS'Bacteria.Firmicutes.Clostridia.Monoglobales.Monoglobaceae.Monoglobus.uncultured_Clostridiaceae'
p759
(lp760
F0.0
aF0.0
aF0.0
aF0.0
aF0.0
aF0.0
aF2284.764773081317
aF0.0
aF0.0
aF0.0
aF0.0
aF181.58047646717026
aF0.0
aF0.0
aF0.0
asS'Bacteria.Firmicutes.Bacilli.Lactobacillales.Aerococcaceae.Aerococcus'
p761
(lp762
F0.0
aF0.0
aF0.0
aF0.0
aF0.0
aF0.0
aF1246.2353307716273
aF813.6094674556214
aF0.0
aF0.0
aF0.0
aF272.3707147007554
aF0.0
aF0.0
aF0.0
asS'Bacteria.Firmicutes.Clostridia.Monoglobales'
p763
(lp764
F8109.187340657543
aF4018.165139005769
aF9272.151898734171
aF0.0
aF197.0055161544523
aF67.86965632502776
aF2284.764773081317
aF0.0
aF79094.21754953497
aF1960.223792216277
aF26397.515527950305
aF11566.676350958745
aF14405.762304921966
aF30343.77661243333
aF7327.285415212838
asS'Bacteria.Firmicutes.Clostridia.Lachnospirales.Lachnospiraceae._Bacteroides__pectinophilus_group.uncultured_bacterium'
p765
(lp766
F0.0
aF409.3979575590784
aF0.0
aF2869.331166522777
aF0.0
aF0.0
aF0.0
aF1035.5029585798818
aF1132.2280630812775
aF0.0
aF0.0
aF0.0
aF0.0
aF0.0
aF0.0
asS'Bacteria.Firmicutes.Clostridia.Monoglobales.Monoglobaceae.Monoglobus.unidentified'
p767
(lp768
F0.0
aF0.0
aF1118.1434599156112
aF0.0
aF0.0
aF0.0
aF0.0
aF0.0
aF0.0
aF0.0
aF0.0
aF599.215572341662
aF0.0
aF0.0
aF0.0
asS'Bacteria.Actinobacteriota.Actinobacteria.Micrococcales'
p769
(lp770
F0.0
aF341.16496463256533
aF0.0
aF0.0
aF0.0
aF0.0
aF0.0
aF0.0
aF0.0
aF0.0
aF0.0
aF635.531667635096
aF0.0
aF0.0
aF0.0
asS'Bacteria.Chloroflexi.Anaerolineae.Anaerolineales.Anaerolineaceae.uncultured'
p771
(lp772
F0.0
aF0.0
aF0.0
aF0.0
aF0.0
aF0.0
aF0.0
aF0.0
aF0.0
aF0.0
aF0.0
aF0.0
aF457.3257874578402
aF0.0
aF0.0
asS'Bacteria.Bacteroidota.Bacteroidia.Bacteroidales.Prevotellaceae.Prevotellaceae_UCG_003.uncultured_bacterium'
p773
(lp774
F0.0
aF0.0
aF0.0
aF0.0
aF0.0
aF0.0
aF0.0
aF0.0
aF0.0
aF0.0
aF0.0
aF0.0
aF0.0
aF0.0
aF3140.2651779483595
asS'Bacteria.Firmicutes.Clostridia.Oscillospirales.Oscillospiraceae.NK4A214_group'
p775
(lp776
F368.5994245753429
aF0.0
aF0.0
aF0.0
aF0.0
aF0.0
aF0.0
aF0.0
aF0.0
aF0.0
aF0.0
aF2433.1783846600815
aF0.0
aF0.0
aF0.0
asS'Bacteria.Desulfobacterota.Desulfovibrionia.Desulfovibrionales'
p777
(lp778
F0.0
aF0.0
aF0.0
aF0.0
aF0.0
aF0.0
aF1869.352996157441
aF4585.798816568047
aF0.0
aF0.0
aF0.0
aF12038.78558977339
aF14462.928028354196
aF0.0
aF0.0
asS'Bacteria.Bacteroidota.Bacteroidia.Chitinophagales'
p779
(lp780
F0.0
aF0.0
aF0.0
aF0.0
aF0.0
aF0.0
aF0.0
aF0.0
aF0.0
aF0.0
aF0.0
aF0.0
aF857.4858514834503
aF0.0
aF0.0
asS'Bacteria.Firmicutes.Clostridia.Clostridiales.Clostridiaceae.Clostridium_sensu_stricto_1'
p781
(lp782
F60429.82788454649
aF433787.4618084775
aF235221.51898734167
aF24878.116906200805
aF190952.07393079728
aF294181.0253408329
aF402326.3059507737
aF18639.053254437873
aF16983.420946219165
aF658737.2891738471
aF12681.159420289852
aF9750.871586287043
aF15091.750986108726
aF1613.5538523598225
aF0.0
asS'Bacteria.Firmicutes.Clostridia.Lachnospirales.Lachnospiraceae.Lachnospiraceae_NK4A136_group.uncultured_Clostridiales'
p783
(lp784
F0.0
aF0.0
aF0.0
aF0.0
aF0.0
aF500.5387153970798
aF0.0
aF0.0
aF0.0
aF0.0
aF0.0
aF0.0
aF0.0
aF0.0
aF0.0
asS'Bacteria.Bacteroidota.Bacteroidia.Bacteroidales.Prevotellaceae.Prevotellaceae_NK3B31_group.uncultured_bacterium'
p785
(lp786
F6911.239210787679
aF1084.1464431657078
aF263.71308016877623
aF450.7135239449495
aF0.0
aF110.28819152817013
aF0.0
aF1405.3254437869823
aF2507.0764253942575
aF306.28496753379335
aF0.0
aF3577.1353864032544
aF8460.527067970042
aF18869.615884541257
aF13956.73412421493
asS'Bacteria.Firmicutes.Clostridia.Peptostreptococcales_Tissierellales'
p787
(lp788
F0.0
aF197.11753512103775
aF253.16455696202522
aF0.0
aF805.9316569954865
aF347.8319886657673
aF0.0
aF0.0
aF0.0
aF0.0
aF0.0
aF217.89657176060433
aF0.0
aF0.0
aF0.0
asS'Bacteria.Proteobacteria.Gammaproteobacteria.Enterobacterales.Pasteurellaceae.Rodentibacter.Pasteurellaceae_bacterium'
p789
(lp790
F0.0
aF0.0
aF0.0
aF285.6635010918694
aF0.0
aF0.0
aF0.0
aF665.6804733727812
aF1374.8483623129798
aF0.0
aF0.0
aF0.0
aF0.0
aF672.314105149926
aF0.0
asS'Bacteria.Cyanobacteria.Vampirivibrionia.Gastranaerophilales'
p791
(lp792
F286.6884413363778
aF0.0
aF0.0
aF50.78462241633233
aF0.0
aF0.0
aF519.2647211548448
aF0.0
aF0.0
aF0.0
aF0.0
aF1325.537478210343
aF0.0
aF0.0
aF0.0
asS'Bacteria.Actinobacteriota.Coriobacteriia'
p793
(lp794
F8201.33719680138
aF3350.9980970576416
aF6708.860759493668
aF10728.251485450206
aF13450.103875635788
aF10579.182679663705
aF14020.147471180808
aF14940.828402366868
aF18924.38334007278
aF19193.857965451047
aF3364.389233954451
aF21807.81522370715
aF7831.704110215512
aF22634.574873380843
aF23377.52965806001
asS'Bacteria.Firmicutes.Clostridia.Lachnospirales.Lachnospiraceae.Tuzzerella'
p795
(lp796
F163.82196647793018
aF0.0
aF0.0
aF0.0
aF197.0055161544523
aF0.0
aF0.0
aF0.0
aF0.0
aF0.0
aF0.0
aF0.0
aF0.0
aF0.0
aF0.0
asS'Bacteria.Firmicutes.Bacilli.Erysipelotrichales.Erysipelatoclostridiaceae.Erysipelatoclostridium'
p797
(lp798
F0.0
aF0.0
aF0.0
aF0.0
aF0.0
aF0.0
aF0.0
aF0.0
aF1213.1014961585117
aF0.0
aF0.0
aF0.0
aF0.0
aF0.0
aF0.0
asS'Bacteria.Firmicutes.Clostridia.Lachnospirales.Lachnospiraceae._Eubacterium__ventriosum_group'
p799
(lp800
F0.0
aF0.0
aF0.0
aF1212.4828601899344
aF0.0
aF0.0
aF0.0
aF0.0
aF1374.8483623129798
aF0.0
aF4917.184265010351
aF236.05461940732135
aF0.0
aF0.0
aF0.0
asS'Bacteria.Firmicutes.Clostridia.Lachnospirales.Lachnospiraceae.Lachnoclostridium'
p801
(lp802
F501.70477233866114
aF2661.0867241340097
aF3913.5021097046397
aF16543.090752120257
aF6769.825918762088
aF6286.426917105697
aF0.0
aF0.0
aF0.0
aF714.6649242455177
aF21997.929606625254
aF0.0
aF9203.681472589033
aF0.0
aF0.0
asS'Bacteria.Deferribacterota'
p803
(lp804
F0.0
aF0.0
aF0.0
aF0.0
aF411.920624686582
aF0.0
aF0.0
aF0.0
aF0.0
aF0.0
aF0.0
aF0.0
aF0.0
aF0.0
aF0.0
asS'Bacteria.Actinobacteriota.Coriobacteriia.Coriobacteriales'
p805
(lp806
F8201.33719680138
aF3350.9980970576416
aF6708.860759493668
aF10728.251485450206
aF13450.103875635788
aF10579.182679663705
aF14020.147471180808
aF14940.828402366868
aF18924.38334007278
aF19193.857965451047
aF3364.389233954451
aF21807.81522370715
aF7831.704110215512
aF22634.574873380843
aF23377.52965806001
asS'Bacteria.Firmicutes.Clostridia.Oscillospirales.Ruminococcaceae.uncultured.metagenome'
p807
(lp808
F0.0
aF0.0
aF0.0
aF0.0
aF0.0
aF0.0
aF0.0
aF0.0
aF0.0
aF0.0
aF0.0
aF254.21266705403835
aF0.0
aF0.0
aF0.0
asS'Bacteria.Actinobacteriota'
p809
(lp810
F27358.26840181434
aF14169.718197739214
aF12700.421940928263
aF12220.049768929968
aF19396.08854502471
aF17417.05055441025
aF27624.883165437743
aF25295.85798816568
aF23534.169025475123
aF19357.209948135736
aF3364.389233954451
aF22443.346891342244
aF21722.974904247407
aF103939.76065617858
aF37683.18213538031
asS'Bacteria.Firmicutes.Clostridia.Oscillospirales._Eubacterium__coprostanoligenes_group._Eubacterium__coprostanoligenes_group.Clostridiales_bacterium'
p811
(lp812
F0.0
aF109256.18456266442
aF130717.29957805903
aF0.0
aF0.0
aF0.0
aF0.0
aF0.0
aF0.0
aF0.0
aF0.0
aF0.0
aF0.0
aF0.0
aF0.0
asS'Bacteria.Cyanobacteria.Vampirivibrionia.Gastranaerophilales.Gastranaerophilales.Gastranaerophilales'
p813
(lp814
F286.6884413363778
aF0.0
aF0.0
aF0.0
aF0.0
aF0.0
aF0.0
aF0.0
aF0.0
aF0.0
aF0.0
aF0.0
aF0.0
aF0.0
aF0.0
asS'Bacteria.Proteobacteria.Gammaproteobacteria.Enterobacterales.Enterobacteriaceae'
p815
(lp816
F3542.65002508524
aF5534.45387070606
aF7774.261603375524
aF2018.6887410492102
aF7665.3055376459615
aF6990.57460147786
aF15577.941634645344
aF8949.704142011835
aF27820.460978568535
aF6656.593294401107
aF18633.540372670803
aF5774.259151656014
aF21551.477733950716
aF12325.75859441531
aF30006.9783670621
asS'Bacteria.Firmicutes.Clostridia.Oscillospirales.Oscillospiraceae.Oscillospira'
p817
(lp818
F0.0
aF0.0
aF0.0
aF0.0
aF0.0
aF0.0
aF0.0
aF5103.550295857989
aF0.0
aF0.0
aF0.0
aF0.0
aF0.0
aF0.0
aF0.0
asS'Bacteria.Chloroflexi.Anaerolineae.Anaerolineales'
p819
(lp820
F0.0
aF0.0
aF0.0
aF0.0
aF0.0
aF0.0
aF0.0
aF0.0
aF0.0
aF0.0
aF0.0
aF0.0
aF457.3257874578402
aF0.0
aF0.0
asS'Bacteria.Firmicutes.Clostridia.Monoglobales.Monoglobaceae'
p821
(lp822
F8109.187340657543
aF4018.165139005769
aF9272.151898734171
aF0.0
aF197.0055161544523
aF67.86965632502776
aF2284.764773081317
aF0.0
aF79094.21754953497
aF1960.223792216277
aF26397.515527950305
aF11566.676350958745
aF14405.762304921966
aF30343.77661243333
aF7327.285415212838
asS'Bacteria.Firmicutes.Clostridia.Oscillospirales.UCG_010.UCG_010.uncultured_organism'
p823
(lp824
F0.0
aF0.0
aF0.0
aF0.0
aF0.0
aF212.09267601571176
aF0.0
aF0.0
aF0.0
aF0.0
aF0.0
aF0.0
aF0.0
aF0.0
aF0.0
asS'Bacteria.Cyanobacteria.Cyanobacteriia'
p825
(lp826
F0.0
aF0.0
aF0.0
aF0.0
aF0.0
aF0.0
aF0.0
aF0.0
aF0.0
aF0.0
aF0.0
aF0.0
aF457.3257874578402
aF0.0
aF0.0
asS'Bacteria.Chloroflexi.Anaerolineae.Anaerolineales.Anaerolineaceae'
p827
(lp828
F0.0
aF0.0
aF0.0
aF0.0
aF0.0
aF0.0
aF0.0
aF0.0
aF0.0
aF0.0
aF0.0
aF0.0
aF457.3257874578402
aF0.0
aF0.0
asS'Bacteria.Firmicutes.Bacilli.Lactobacillales.Lactobacillaceae'
p829
(lp830
F808.8709594847803
aF20212.128793564872
aF49451.47679324893
aF1295.0078716164746
aF26953.936528404607
aF61040.27215732185
aF28351.853775054526
aF11242.603550295858
aF1779.2155276991505
aF4042.961571446072
aF0.0
aF6028.471818710053
aF14520.093751786426
aF5557.796602572721
aF0.0
asS'Bacteria.Chloroflexi'
p831
(lp832
F0.0
aF0.0
aF0.0
aF0.0
aF0.0
aF0.0
aF0.0
aF0.0
aF0.0
aF0.0
aF0.0
aF0.0
aF457.3257874578402
aF0.0
aF0.0
asS'Bacteria.Proteobacteria.Gammaproteobacteria.Pseudomonadales.Moraxellaceae.Acinetobacter.Acinetobacter_lwoffii'
p833
(lp834
F0.0
aF0.0
aF0.0
aF0.0
aF0.0
aF0.0
aF0.0
aF0.0
aF0.0
aF0.0
aF0.0
aF0.0
aF0.0
aF672.314105149926
aF0.0
asS'Bacteria.Firmicutes.Bacilli.RF39.RF39.RF39.human_gut'
p835
(lp836
F0.0
aF0.0
aF0.0
aF0.0
aF0.0
aF0.0
aF0.0
aF0.0
aF0.0
aF387.96095887613814
aF0.0
aF0.0
aF0.0
aF0.0
aF0.0
asS'Bacteria.Proteobacteria.Gammaproteobacteria.Burkholderiales'
p837
(lp838
F2703.0624468858477
aF5178.126018756491
aF2721.5189873417708
aF1060.1289929409375
aF2399.885378608782
aF2214.247537604031
aF6335.029598089106
aF84541.42011834322
aF5175.899716942983
aF11352.962796585938
aF13198.757763975153
aF5283.991865194655
aF8975.018578860114
aF13491.10304334185
aF18492.672714584784
asS'Bacteria.Firmicutes.Clostridia.Lachnospirales.Lachnospiraceae._Eubacterium__xylanophilum_group'
p839
(lp840
F4965.853358862259
aF6868.787954602315
aF10232.067510548519
aF22218.2723071454
aF967.1179883945839
aF4699.973700508172
aF0.0
aF2218.934911242604
aF14233.724221593204
aF2205.251766243312
aF16304.347826086952
aF3613.4514816966885
aF1486.3088092379805
aF0.0
aF10467.550593161197
asS'Bacteria.Firmicutes.Clostridia.Lachnospirales.Lachnospiraceae.GCA_900066575.uncultured_bacterium'
p841
(lp842
F215.01633100228332
aF242.60619707204646
aF0.0
aF8284.241531664213
aF0.0
aF229.0600900969687
aF0.0
aF0.0
aF0.0
aF0.0
aF0.0
aF853.4282393957002
aF0.0
aF0.0
aF0.0
asS'Bacteria.Actinobacteriota.Actinobacteria.Micrococcales.Micrococcaceae.Rothia.Rothia_sp_'
p843
(lp844
F0.0
aF341.16496463256533
aF0.0
aF0.0
aF0.0
aF0.0
aF0.0
aF0.0
aF0.0
aF0.0
aF0.0
aF417.63509587449164
aF0.0
aF0.0
aF0.0
asS'Bacteria.Firmicutes.Clostridia.Peptostreptococcales_Tissierellales.Anaerovoracaceae.Anaerovorax.uncultured_bacterium'
p845
(lp846
F0.0
aF0.0
aF0.0
aF0.0
aF0.0
aF0.0
aF0.0
aF0.0
aF0.0
aF204.1899783558622
aF0.0
aF0.0
aF0.0
aF0.0
aF0.0
asS'Bacteria.Firmicutes.Clostridia'
p847
(lp848
F429377.37413865497
aF818962.7068786438
aF776592.8270042188
aF618613.8337311461
aF818683.2867683929
aF771499.8345677127
aF765396.1989822411
aF498742.6035502959
aF799272.1391023048
aF810470.8620900883
aF361283.64389233943
aF826318.2742591515
aF309037.9008746354
aF656895.7016718213
aF595254.7103977669
asS'Bacteria.Proteobacteria.Alphaproteobacteria.Rhodobacterales.Rhodobacteraceae.Rubellimicrobium.uncultured_bacterium'
p849
(lp850
F0.0
aF0.0
aF0.0
aF0.0
aF0.0
aF0.0
aF0.0
aF0.0
aF0.0
aF0.0
aF0.0
aF0.0
aF1257.6459155090606
aF0.0
aF0.0
asS'Bacteria.Firmicutes.Clostridia.Lachnospirales.Lachnospiraceae.GCA_900066575'
p851
(lp852
F215.01633100228332
aF242.60619707204646
aF0.0
aF8284.241531664213
aF0.0
aF229.0600900969687
aF0.0
aF0.0
aF0.0
aF0.0
aF0.0
aF853.4282393957002
aF0.0
aF0.0
aF0.0
asS'Bacteria.Bacteroidota.Bacteroidia.Chitinophagales.Chitinophagaceae.Sediminibacterium'
p853
(lp854
F0.0
aF0.0
aF0.0
aF0.0
aF0.0
aF0.0
aF0.0
aF0.0
aF0.0
aF0.0
aF0.0
aF0.0
aF857.4858514834503
aF0.0
aF0.0
asS'Bacteria.Firmicutes.Bacilli.Erysipelotrichales.Erysipelotrichaceae'
p855
(lp856
F45194.385002098985
aF89286.66196617161
aF73470.46413502107
aF14886.242445787417
aF93380.61465721038
aF110296.67523521076
aF130854.70973102086
aF71671.59763313612
aF37767.89324706833
aF89373.95352636087
aF5434.782608695651
aF11167.199302730973
aF49905.67655633681
aF29626.641566940074
aF71179.34403349613
asS'Bacteria.Actinobacteriota.Coriobacteriia.Coriobacteriales.Eggerthellaceae.Enterorhabdus'
p857
(lp858
F0.0
aF0.0
aF0.0
aF0.0
aF555.1973637080018
aF0.0
aF0.0
aF0.0
aF0.0
aF0.0
aF0.0
aF0.0
aF0.0
aF0.0
aF0.0
asS'Bacteria.Bacteroidota.Bacteroidia.Chitinophagales.Chitinophagaceae.Sediminibacterium.Sediminibacterium_sp_'
p859
(lp860
F0.0
aF0.0
aF0.0
aF0.0
aF0.0
aF0.0
aF0.0
aF0.0
aF0.0
aF0.0
aF0.0
aF0.0
aF857.4858514834503
aF0.0
aF0.0
asS'Bacteria.Firmicutes.Clostridia.Oscillospirales.Ruminococcaceae.Incertae_Sedis.Clostridium_sp_'
p861
(lp862
F0.0
aF0.0
aF0.0
aF983.9520593164391
aF0.0
aF0.0
aF0.0
aF0.0
aF0.0
aF0.0
aF0.0
aF0.0
aF0.0
aF0.0
aF0.0
asS'Bacteria.Proteobacteria.Gammaproteobacteria.Burkholderiales.Comamonadaceae'
p863
(lp864
F0.0
aF576.1897180461103
aF263.71308016877623
aF0.0
aF0.0
aF161.19043377194095
aF1557.7941634645342
aF65384.6153846154
aF3558.431055398301
aF5635.643402621797
aF0.0
aF2251.5979081929113
aF2858.2861716115012
aF761.9559858365828
aF8374.040474528958
asS'Bacteria.Bacteroidota.Bacteroidia.Bacteroidales.Bacteroidaceae.Bacteroides.Bacteroides_acidifaciens'
p865
(lp866
F1986.3413435449033
aF257.7690843890494
aF0.0
aF653.8520136102788
aF250.7342932874847
aF721.11509845342
aF0.0
aF14275.147928994085
aF0.0
aF183.77098052027597
aF0.0
aF472.1092388146427
aF0.0
aF3003.003003003003
aF2791.346824842986
asS'Bacteria.Firmicutes.Clostridia.Oscillospirales._Eubacterium__coprostanoligenes_group'
p867
(lp868
F37566.424687970364
aF116284.18283409526
aF136265.82278481007
aF26382.611345284648
aF48839.45841392649
aF39169.27540658165
aF10073.735590403989
aF4511.834319526628
aF13263.243024666393
aF2164.4137705721396
aF70134.57556935816
aF25548.37303893086
aF6745.555365003142
aF13625.565864371834
aF0.0
asS'Bacteria.Proteobacteria.Gammaproteobacteria.Enterobacterales.Pasteurellaceae.Rodentibacter'
p869
(lp870
F0.0
aF0.0
aF0.0
aF285.6635010918694
aF0.0
aF0.0
aF0.0
aF665.6804733727812
aF1374.8483623129798
aF0.0
aF0.0
aF0.0
aF0.0
aF672.314105149926
aF0.0
asS'Bacteria.Firmicutes.Clostridia.uncultured.uncultured.uncultured'
p871
(lp872
F0.0
aF0.0
aF0.0
aF0.0
aF0.0
aF186.64155489382634
aF0.0
aF0.0
aF0.0
aF0.0
aF0.0
aF599.215572341662
aF0.0
aF717.1350454932544
aF0.0
asS'Bacteria.Firmicutes.Clostridia.Lachnospirales.Lachnospiraceae.A2.uncultured_bacterium'
p873
(lp874
F0.0
aF0.0
aF1940.9282700421932
aF11724.899700370726
aF3152.0882584712367
aF1026.528551916045
aF0.0
aF0.0
aF0.0
aF0.0
aF0.0
aF0.0
aF0.0
aF0.0
aF0.0
asS'Bacteria.Firmicutes.Clostridia.Clostridia_UCG_014'
p875
(lp876
F238002.60067371794
aF57126.17796680844
aF100316.45569620248
aF92523.23396475548
aF220789.454832008
aF52386.890975880815
aF69996.88441167306
aF278476.3313609468
aF267852.81035179936
aF36488.74913219258
aF62111.80124223601
aF336214.41022661247
aF129366.03212713654
aF97530.3661870826
aF74319.6092114445
asS'Bacteria.Firmicutes.Clostridia.Oscillospirales.Ruminococcaceae._Eubacterium__siraeum_group'
p877
(lp878
F15296.87611987673
aF37.90721829250726
aF0.0
aF0.0
aF0.0
aF0.0
aF0.0
aF0.0
aF0.0
aF1551.8438355045525
aF14751.552795031053
aF236.05461940732135
aF23552.27805407877
aF1568.7329120164943
aF0.0
asS'Bacteria.Firmicutes.Clostridia.Lachnospirales.Lachnospiraceae.Fusicatenibacter'
p879
(lp880
F0.0
aF0.0
aF0.0
aF0.0
aF0.0
aF0.0
aF33648.35393083394
aF0.0
aF16740.80064698746
aF0.0
aF0.0
aF174262.78326554332
aF0.0
aF171619.38057460447
aF158757.85066294484
asS'Bacteria.Firmicutes.Bacilli.Erysipelotrichales.Erysipelatoclostridiaceae.Erysipelatoclostridium.uncultured_bacterium'
p881
(lp882
F0.0
aF0.0
aF0.0
aF0.0
aF0.0
aF0.0
aF0.0
aF739.6449704142012
aF0.0
aF0.0
aF0.0
aF1434.4857640906453
aF0.0
aF0.0
aF0.0
asS'Bacteria.Actinobacteriota.Actinobacteria.Pseudonocardiales.Pseudonocardiaceae.Pseudonocardia'
p883
(lp884
F0.0
aF0.0
aF0.0
aF0.0
aF0.0
aF0.0
aF0.0
aF0.0
aF0.0
aF0.0
aF0.0
aF0.0
aF0.0
aF0.0
aF5233.7752965805985
asS'Bacteria.Firmicutes.Clostridia.Peptococcales.Peptococcaceae.Peptococcus.uncultured_bacterium'
p885
(lp886
F0.0
aF0.0
aF0.0
aF0.0
aF0.0
aF203.60896897508331
aF0.0
aF0.0
aF0.0
aF81.67599134234487
aF0.0
aF0.0
aF0.0
aF0.0
aF0.0
asS'Bacteria.Firmicutes.Clostridia.Eubacteriales'
p887
(lp888
F327.64393295586035
aF75.81443658501452
aF189.8734177215189
aF0.0
aF358.1918475535496
aF0.0
aF0.0
aF0.0
aF404.36716538617054
aF0.0
aF0.0
aF0.0
aF0.0
aF1703.1957330464793
aF0.0
asS'Bacteria.Firmicutes.Clostridia.Lachnospirales.Lachnospiraceae.Blautia.Lachnospiraceae_bacterium'
p889
(lp890
F0.0
aF75.81443658501452
aF632.911392405063
aF0.0
aF1074.5755426606488
aF1399.8116617036978
aF0.0
aF0.0
aF0.0
aF0.0
aF0.0
aF0.0
aF0.0
aF0.0
aF0.0
asS'Bacteria.Chloroflexi.Anaerolineae.Anaerolineales.Anaerolineaceae.uncultured.uncultured_sludge'
p891
(lp892
F0.0
aF0.0
aF0.0
aF0.0
aF0.0
aF0.0
aF0.0
aF0.0
aF0.0
aF0.0
aF0.0
aF0.0
aF457.3257874578402
aF0.0
aF0.0
asS'Bacteria.Firmicutes.Clostridia.Oscillospirales.Oscillospiraceae.Papillibacter'
p893
(lp894
F726.9599762458151
aF128.8845421945247
aF0.0
aF3846.9351480371743
aF1379.038613081166
aF390.2505238689097
aF0.0
aF0.0
aF2345.329559239789
aF0.0
aF0.0
aF0.0
aF0.0
aF0.0
aF0.0
asS'Bacteria.Proteobacteria.Gammaproteobacteria.Enterobacterales'
p895
(lp896
F3542.65002508524
aF5534.45387070606
aF7774.261603375524
aF2304.35224214108
aF7665.3055376459615
aF6990.57460147786
aF15577.941634645344
aF9615.384615384615
aF29195.309340881515
aF6656.593294401107
aF18633.540372670803
aF5774.259151656014
aF21551.477733950716
aF12998.072699565237
aF30006.9783670621
asS'Bacteria.Firmicutes.Bacilli.Erysipelotrichales.Erysipelotrichaceae.uncultured.unidentified'
p897
(lp898
F0.0
aF0.0
aF0.0
aF418.9731349347418
aF0.0
aF0.0
aF0.0
aF0.0
aF0.0
aF0.0
aF0.0
aF272.3707147007554
aF0.0
aF0.0
aF0.0
asS'Bacteria.Verrucomicrobiota.Verrucomicrobiae.Verrucomicrobiales.Akkermansiaceae'
p899
(lp900
F91381.94067597041
aF3495.0455265691694
aF10991.561181434594
aF87171.80437763446
aF5354.968120925567
aF6159.1713114962695
aF0.0
aF887.5739644970415
aF21188.83946623534
aF24400.70241352553
aF10093.16770186335
aF1071.3248111563046
aF914.6515749156804
aF55533.14508538389
aF142009.76971388693
asS'Bacteria.Firmicutes.Clostridia.Clostridia_vadinBB60_group.Clostridia_vadinBB60_group'
p901
(lp902
F307.16618714611906
aF0.0
aF158.22784810126575
aF387.23274592453413
aF340.28225517587214
aF398.7342309095381
aF0.0
aF0.0
aF566.1140315406387
aF0.0
aF0.0
aF562.8994770482277
aF0.0
aF0.0
aF0.0
asS'Bacteria.Firmicutes.Clostridia.Christensenellales.Christensenellaceae.Christensenellaceae_R_7_group.uncultured_Clostridia'
p903
(lp904
F0.0
aF0.0
aF0.0
aF0.0
aF0.0
aF0.0
aF0.0
aF0.0
aF0.0
aF0.0
aF0.0
aF0.0
aF1657.8059795346708
aF0.0
aF0.0
asS'Bacteria.Actinobacteriota.Coriobacteriia.Coriobacteriales.Coriobacteriales_Incertae_Sedis.uncultured.gut_metagenome'
p905
(lp906
F0.0
aF0.0
aF0.0
aF0.0
aF0.0
aF0.0
aF0.0
aF443.78698224852076
aF0.0
aF387.96095887613814
aF0.0
aF508.4253341080767
aF0.0
aF0.0
aF1744.5917655268663
asS'Bacteria.Firmicutes.Clostridia.Oscillospirales.Butyricicoccaceae.Butyricicoccus'
p907
(lp908
F112.627601953577
aF447.30517585158566
aF0.0
aF406.27697933065866
aF0.0
aF0.0
aF0.0
aF0.0
aF0.0
aF285.8659696982071
aF0.0
aF0.0
aF514.4915108900702
aF0.0
aF0.0
asS'Bacteria.Firmicutes.Clostridia.Peptostreptococcales_Tissierellales.Anaerovoracaceae.Family_XIII_AD3011_group'
p909
(lp910
F450.510407814308
aF0.0
aF0.0
aF0.0
aF0.0
aF305.41345346262494
aF0.0
aF0.0
aF0.0
aF0.0
aF0.0
aF0.0
aF0.0
aF0.0
aF0.0
asS'Bacteria.Proteobacteria.Gammaproteobacteria.Burkholderiales.Comamonadaceae.Comamonas.Comamonas_testosteroni'
p911
(lp912
F0.0
aF189.5360914625363
aF263.71308016877623
aF0.0
aF0.0
aF0.0
aF0.0
aF19896.449704142015
aF0.0
aF0.0
aF0.0
aF326.84485764090647
aF0.0
aF0.0
aF0.0
asS'Bacteria.Firmicutes.Clostridia.Oscillospirales.Ruminococcaceae.Ruminococcaceae.uncultured_bacterium'
p913
(lp914
F0.0
aF0.0
aF94.93670886075945
aF0.0
aF0.0
aF0.0
aF0.0
aF0.0
aF0.0
aF0.0
aF0.0
aF0.0
aF0.0
aF0.0
aF0.0
asS'Bacteria.Firmicutes.Clostridia.Clostridia_UCG_014.Clostridia_UCG_014.Clostridia_UCG_014.unidentified'
p915
(lp916
F78265.94448483114
aF16406.24407699714
aF21497.89029535864
aF8335.026154080544
aF35228.168206891605
aF6405.1988156744965
aF5192.647211548447
aF13461.538461538465
aF30651.03113627173
aF1572.2628333401387
aF11645.962732919252
aF26619.697850087163
aF19379.180243525978
aF0.0
aF0.0
asS'Bacteria.Firmicutes.Clostridia.Peptostreptococcales_Tissierellales.Anaerovoracaceae._Eubacterium__brachy_group'
p917
(lp918
F0.0
aF128.8845421945247
aF242.61603375527415
aF1231.527093596059
aF358.1918475535496
aF0.0
aF0.0
aF0.0
aF1293.9749292357458
aF0.0
aF0.0
aF0.0
aF0.0
aF0.0
aF0.0
asS'Bacteria.Firmicutes.Clostridia.Oscillospirales.Ruminococcaceae.Ruminococcus.unidentified'
p919
(lp920
F0.0
aF197.11753512103775
aF316.4556962025315
aF9585.597481082728
aF0.0
aF0.0
aF0.0
aF0.0
aF0.0
aF102.0949891779311
aF0.0
aF0.0
aF0.0
aF0.0
aF0.0
asS'Bacteria.Firmicutes.Bacilli.Erysipelotrichales.Erysipelotrichaceae.Allobaculum.uncultured_Allobaculum'
p921
(lp922
F0.0
aF0.0
aF0.0
aF0.0
aF0.0
aF0.0
aF0.0
aF0.0
aF0.0
aF1041.3688896148974
aF0.0
aF0.0
aF0.0
aF0.0
aF0.0
asS'Bacteria.Firmicutes.Clostridia.Oscillospirales.Ruminococcaceae.uncultured'
p923
(lp924
F0.0
aF0.0
aF0.0
aF203.13848966532933
aF0.0
aF398.7342309095381
aF0.0
aF0.0
aF0.0
aF0.0
aF0.0
aF345.0029052876235
aF0.0
aF0.0
aF0.0
asS'Bacteria.Patescibacteria.Saccharimonadia.Saccharimonadales.Saccharimonadaceae.Candidatus_Saccharimonas'
p925
(lp926
F3798.6218477070056
aF5625.431194608077
aF15348.101265822777
aF2805.850388502361
aF1182.0330969267136
aF3834.635582364069
aF3738.705992314882
aF15088.757396449706
aF32511.120097048108
aF551.312941560828
aF12681.159420289852
aF2306.072051133063
aF28468.53026925055
aF851.5978665232396
aF0.0
asS'Bacteria.Firmicutes.Clostridia.Oscillospirales.Ruminococcaceae.Anaerotruncus'
p927
(lp928
F0.0
aF0.0
aF0.0
aF311.05581230003554
aF0.0
aF0.0
aF0.0
aF0.0
aF0.0
aF0.0
aF0.0
aF0.0
aF0.0
aF0.0
aF0.0
asS'Bacteria.Firmicutes.Bacilli.Erysipelotrichales.Erysipelotrichaceae.Turicibacter'
p929
(lp930
F16668.885089129395
aF82038.80182864422
aF64915.61181434596
aF4500.787161647453
aF88634.57267712585
aF107378.28001323456
aF109772.56205213418
aF20636.094674556218
aF5337.646583097451
aF83738.31012373908
aF5434.782608695651
aF4067.4026728646136
aF9661.007260046874
aF1075.7025682398817
aF3838.101884159106
asS'Bacteria.Firmicutes.Clostridia.Lachnospirales.Lachnospiraceae.Tuzzerella.uncultured_bacterium'
p931
(lp932
F163.82196647793018
aF0.0
aF0.0
aF0.0
aF197.0055161544523
aF0.0
aF0.0
aF0.0
aF0.0
aF0.0
aF0.0
aF0.0
aF0.0
aF0.0
aF0.0
asS'Bacteria.Patescibacteria.Saccharimonadia'
p933
(lp934
F3798.6218477070056
aF5625.431194608077
aF15348.101265822777
aF2805.850388502361
aF1182.0330969267136
aF3834.635582364069
aF3738.705992314882
aF15088.757396449706
aF32511.120097048108
aF551.312941560828
aF12681.159420289852
aF2415.020337013365
aF28468.53026925055
aF851.5978665232396
aF0.0
asS'Bacteria.Firmicutes.Clostridia.Oscillospirales.Oscillospiraceae'
p935
(lp936
F2938.5565236978723
aF545.8639434121046
aF791.1392405063287
aF7992.229952770302
aF805.9316569954865
aF619.3106139658784
aF3738.705992314882
aF0.0
aF11322.280630812775
aF0.0
aF0.0
aF31032.1034282394
aF12347.796261361684
aF2823.7192416296893
aF0.0
asS'Bacteria.Campylobacterota'
p937
(lp938
F0.0
aF0.0
aF0.0
aF0.0
aF0.0
aF0.0
aF0.0
aF0.0
aF0.0
aF0.0
aF0.0
aF2306.072051133063
aF0.0
aF0.0
aF0.0
asS'Bacteria.Firmicutes.Clostridia.Lachnospirales.Lachnospiraceae.Marvinbryantia.uncultured_bacterium'
p939
(lp940
F726.9599762458151
aF0.0
aF0.0
aF0.0
aF0.0
aF0.0
aF0.0
aF0.0
aF17630.408410837037
aF530.8939437252418
aF0.0
aF2905.287623474724
aF0.0
aF2509.9726592263905
aF0.0
asS'Bacteria.Gemmatimonadota.Gemmatimonadetes.Gemmatimonadales.Gemmatimonadaceae.uncultured.uncultured_bacterium'
p941
(lp942
F0.0
aF0.0
aF0.0
aF0.0
aF0.0
aF0.0
aF0.0
aF0.0
aF0.0
aF0.0
aF2846.79089026915
aF0.0
aF0.0
aF0.0
aF0.0
asS'Bacteria.Actinobacteriota.Coriobacteriia.Coriobacteriales.Coriobacteriales_Incertae_Sedis'
p943
(lp944
F0.0
aF0.0
aF0.0
aF0.0
aF0.0
aF0.0
aF0.0
aF443.78698224852076
aF0.0
aF387.96095887613814
aF0.0
aF508.4253341080767
aF0.0
aF0.0
aF1744.5917655268663
asS'Bacteria'
p945
(lp946
F1000000.0
aF1000000.0
aF1000000.0
aF1000000.0
aF1000000.0
aF1000000.0
aF1000000.0
aF1000000.0
aF1000000.0
aF1000000.0
aF1000000.0
aF1000000.0
aF1000000.0
aF1000000.0
aF1000000.0
asS'Bacteria.Proteobacteria.Gammaproteobacteria.Burkholderiales.Comamonadaceae.Delftia'
p947
(lp948
F0.0
aF386.653626583574
aF0.0
aF0.0
aF0.0
aF161.19043377194095
aF1557.7941634645342
aF45488.16568047338
aF3558.431055398301
aF5635.643402621797
aF0.0
aF1924.7530505520049
aF2858.2861716115012
aF761.9559858365828
aF8374.040474528958
asS'Bacteria.Chloroflexi.Anaerolineae'
p949
(lp950
F0.0
aF0.0
aF0.0
aF0.0
aF0.0
aF0.0
aF0.0
aF0.0
aF0.0
aF0.0
aF0.0
aF0.0
aF457.3257874578402
aF0.0
aF0.0
assS'subclass_sl'
p951
(dp952
g12
(I0
I8
tp953
sg10
(I8
I15
tp954
ssS'norm'
p955
F1000000.0
sS'cls'
p956
(dp957
S'class'
p958
(S'HSD-NC'
p959
S'HSD-NC'
p960
S'HSD-NC'
p961
S'HSD-NC'
p962
S'HSD-NC'
p963
S'HSD-NC'
p964
S'HSD-NC'
p965
g5
S'HSD-NR'
p966
S'HSD-NR'
p967
S'HSD-NR'
p968
S'HSD-NR'
p969
S'HSD-NR'
p970
S'HSD-NR'
p971
g3
tp972
sS'subclass'
p973
(lp974
S'HSD-NC_subcl'
p975
aS'HSD-NC_subcl'
p976
aS'HSD-NC_subcl'
p977
aS'HSD-NC_subcl'
p978
aS'HSD-NC_subcl'
p979
aS'HSD-NC_subcl'
p980
aS'HSD-NC_subcl'
p981
ag12
aS'HSD-NR_subcl'
p982
aS'HSD-NR_subcl'
p983
aS'HSD-NR_subcl'
p984
aS'HSD-NR_subcl'
p985
aS'HSD-NR_subcl'
p986
aS'HSD-NR_subcl'
p987
ag10
asS'subject'
p988
(S'S210421121688'
p989
S'S210421121689'
p990
S'S210421121690'
p991
S'S210421121698'
p992
S'S210421121699'
p993
S'S210421121700'
p994
S'S210421121701'
p995
S'S210421121702'
p996
S'S210421121691'
p997
S'S210421121692'
p998
S'S210421121693'
p999
S'S210421121707'
p1000
S'S210421121708'
p1001
S'S210421121709'
p1002
S'S210421121710'
p1003
tp1004
ss.