(dp0
S'class_sl'
p1
(dp2
S'HSD-NR'
p3
(I5
I9
tp4
sS'HSD-NC'
p5
(I0
I5
tp6
ssS'class_hierarchy'
p7
(dp8
g3
(lp9
S'HSD-NR_subcl'
p10
asg5
(lp11
S'HSD-NC_subcl'
p12
assS'feats'
p13
(dp14
S'Bacteria.Chloroflexi'
p15
(lp16
F0.0
aF0.0
aF0.0
aF0.0
aF0.0
aF0.0
aF457.3257874578403
aF0.0
aF0.0
asS'Bacteria.Campylobacterota.Campylobacteria'
p17
(lp18
F0.0
aF0.0
aF0.0
aF0.0
aF0.0
aF2306.0720511330624
aF0.0
aF0.0
aF0.0
asS'Bacteria.Firmicutes.Clostridia'
p19
(lp20
F765396.1989822411
aF498742.60355029587
aF799272.1391023049
aF810470.8620900887
aF361283.64389233955
aF826318.2742591517
aF309037.9008746356
aF656895.7016718211
aF595254.7103977669
asS'Bacteria.Acidobacteriota.Acidobacteriae'
p21
(lp22
F0.0
aF0.0
aF0.0
aF0.0
aF0.0
aF0.0
aF685.9886811867605
aF0.0
aF0.0
asS'Bacteria.Proteobacteria.Gammaproteobacteria'
p23
(lp24
F21912.97123273445
aF122041.42011834319
aF35341.69025475131
aF23420.590517417404
aF31832.29813664596
aF12692.475305055199
aF30526.496312810843
aF29268.074044193447
aF63503.14026517795
asS'Bacteria.Actinobacteriota'
p25
(lp26
F27624.883165437743
aF25295.85798816568
aF23534.16902547513
aF19357.209948135744
aF3364.3892339544514
aF22443.346891342244
aF21722.974904247414
aF103939.76065617857
aF37683.18213538032
asS'Bacteria'
p27
(lp28
F1000000.0
aF1000000.0
aF1000000.0
aF1000000.0
aF1000000.0
aF1000000.0
aF1000000.0
aF1000000.0
aF1000000.0
asS'Bacteria.Firmicutes'
p29
(lp30
F941426.9394537335
aF614497.0414201183
aF853861.706429438
aF908257.4427247111
aF369565.2173913043
aF856315.3689715281
aF389470.0737437833
aF694545.2915602169
aF666434.054431263
asS'Bacteria.Actinobacteriota.Actinobacteria'
p31
(lp32
F13604.735694256933
aF10355.029585798817
aF4609.785685402345
aF163.35198268468983
aF0.0
aF635.5316676350959
aF13891.2707940319
aF81305.18578279772
aF14305.652477320307
asS'Bacteria.Patescibacteria'
p33
(lp34
F3738.705992314882
aF15088.757396449704
aF32511.12009704812
aF551.3129415608282
aF12681.159420289856
aF2415.020337013364
aF28468.53026925056
aF851.5978665232396
aF0.0
asS'Bacteria.Acidobacteriota'
p35
(lp36
F0.0
aF0.0
aF0.0
aF0.0
aF0.0
aF0.0
aF685.9886811867605
aF0.0
aF0.0
asS'Bacteria.Verrucomicrobiota'
p37
(lp38
F0.0
aF887.5739644970414
aF21188.839466235342
aF24400.702413525545
aF10093.167701863355
aF1071.3248111563046
aF914.6515749156806
aF55533.14508538389
aF142009.76971388696
asS'Bacteria.Gemmatimonadota.Gemmatimonadetes'
p39
(lp40
F0.0
aF0.0
aF0.0
aF0.0
aF2846.790890269151
aF0.0
aF0.0
aF0.0
aF0.0
asS'Bacteria.Actinobacteriota.Coriobacteriia'
p41
(lp42
F14020.147471180808
aF14940.828402366864
aF18924.383340072785
aF19193.857965451054
aF3364.3892339544514
aF21807.815223707148
aF7831.704110215516
aF22634.574873380843
aF23377.529658060015
asS'Bacteria.Cyanobacteria'
p43
(lp44
F519.2647211548448
aF0.0
aF0.0
aF0.0
aF0.0
aF1325.5374782103427
aF457.3257874578403
aF0.0
aF0.0
asS'Bacteria.Patescibacteria.Saccharimonadia'
p45
(lp46
F3738.705992314882
aF15088.757396449704
aF32511.12009704812
aF551.3129415608282
aF12681.159420289856
aF2415.020337013364
aF28468.53026925056
aF851.5978665232396
aF0.0
asS'Bacteria.Proteobacteria'
p47
(lp48
F22847.64773081317
aF129068.04733727811
aF35988.67771936919
aF25339.976313962514
aF31832.29813664596
aF12692.475305055199
aF31784.142228319903
aF29492.17874591009
aF63503.14026517795
asS'Bacteria.Bacteroidota.Bacteroidia'
p49
(lp50
F1973.20594038841
aF210576.9230769231
aF32915.48726243429
aF22093.355658104298
aF569616.9772256728
aF89392.06856478791
aF511576.05899502663
aF115638.02608578728
aF90369.8534542917
asS'Bacteria.Bacteroidota'
p51
(lp52
F1973.20594038841
aF210576.9230769231
aF32915.48726243429
aF22093.355658104298
aF569616.9772256728
aF89392.06856478791
aF511576.05899502663
aF115638.02608578728
aF90369.8534542917
asS'Bacteria.Campylobacterota'
p53
(lp54
F0.0
aF0.0
aF0.0
aF0.0
aF0.0
aF2306.0720511330624
aF0.0
aF0.0
aF0.0
asS'Bacteria.Desulfobacterota'
p55
(lp56
F1869.352996157441
aF4585.798816568047
aF0.0
aF0.0
aF0.0
aF12038.785589773388
aF14462.928028354201
aF0.0
aF0.0
asS'Bacteria.Desulfobacterota.Desulfovibrionia'
p57
(lp58
F1869.352996157441
aF4585.798816568047
aF0.0
aF0.0
aF0.0
aF12038.785589773388
aF14462.928028354201
aF0.0
aF0.0
asS'Bacteria.Cyanobacteria.Vampirivibrionia'
p59
(lp60
F519.2647211548448
aF0.0
aF0.0
aF0.0
aF0.0
aF1325.5374782103427
aF0.0
aF0.0
aF0.0
asS'Bacteria.Gemmatimonadota'
p61
(lp62
F0.0
aF0.0
aF0.0
aF0.0
aF2846.790890269151
aF0.0
aF0.0
aF0.0
aF0.0
asS'Bacteria.Firmicutes.Bacilli'
p63
(lp64
F176030.74047149238
aF115754.43786982248
aF54589.56732713304
aF97786.58063462246
aF8281.573498964804
aF29997.094712376525
aF80432.17286914766
aF37649.58988839586
aF71179.34403349615
asS'Bacteria.Proteobacteria.Alphaproteobacteria'
p65
(lp66
F934.6764980787206
aF7026.627218934912
aF646.987464617873
aF1919.3857965451054
aF0.0
aF0.0
aF1257.645915509061
aF224.104701716642
aF0.0
asS'Bacteria.Verrucomicrobiota.Verrucomicrobiae'
p67
(lp68
F0.0
aF887.5739644970414
aF21188.839466235342
aF24400.702413525545
aF10093.167701863355
aF1071.3248111563046
aF914.6515749156806
aF55533.14508538389
aF142009.76971388696
asS'Bacteria.Cyanobacteria.Cyanobacteriia'
p69
(lp70
F0.0
aF0.0
aF0.0
aF0.0
aF0.0
aF0.0
aF457.3257874578403
aF0.0
aF0.0
asS'Bacteria.Chloroflexi.Anaerolineae'
p71
(lp72
F0.0
aF0.0
aF0.0
aF0.0
aF0.0
aF0.0
aF457.3257874578403
aF0.0
aF0.0
assS'subclass_sl'
p73
(dp74
g12
(I0
I5
tp75
sg10
(I5
I9
tp76
ssS'norm'
p77
F1000000.0
sS'cls'
p78
(dp79
S'class'
p80
(S'HSD-NC'
p81
S'HSD-NC'
p82
S'HSD-NC'
p83
S'HSD-NC'
p84
g5
S'HSD-NR'
p85
S'HSD-NR'
p86
S'HSD-NR'
p87
g3
tp88
sS'subclass'
p89
(lp90
S'HSD-NC_subcl'
p91
aS'HSD-NC_subcl'
p92
aS'HSD-NC_subcl'
p93
aS'HSD-NC_subcl'
p94
ag12
aS'HSD-NR_subcl'
p95
aS'HSD-NR_subcl'
p96
aS'HSD-NR_subcl'
p97
ag10
asS'subject'
p98
(S'S210421121698'
p99
S'S210421121699'
p100
S'S210421121700'
p101
S'S210421121701'
p102
S'S210421121702'
p103
S'S210421121707'
p104
S'S210421121708'
p105
S'S210421121709'
p106
S'S210421121710'
p107
tp108
ss.