(dp0
S'class_sl'
p1
(dp2
S'HSD-NR'
p3
(I5
I9
tp4
sS'HSD-NC'
p5
(I0
I5
tp6
ssS'class_hierarchy'
p7
(dp8
g3
(lp9
S'HSD-NR_subcl'
p10
asg5
(lp11
S'HSD-NC_subcl'
p12
assS'feats'
p13
(dp14
S'Bacteria.Firmicutes.Bacilli.Acholeplasmatales'
p15
(lp16
F0.0
aF295.85798816568047
aF0.0
aF61.25699350675867
aF0.0
aF254.21266705403826
aF0.0
aF0.0
aF0.0
asS'Bacteria.Firmicutes.Clostridia.Peptostreptococcales_Tissierellales.Anaerovoracaceae'
p17
(lp18
F0.0
aF0.0
aF1293.9749292357462
aF204.18997835586225
aF0.0
aF690.0058105752468
aF0.0
aF0.0
aF0.0
asS'Bacteria.Actinobacteriota.Actinobacteria.Bifidobacteriales'
p19
(lp20
F7685.117873091703
aF10355.029585798817
aF4609.785685402346
aF163.3519826846898
aF0.0
aF0.0
aF13891.270794031898
aF49168.571556631265
aF5582.6936496859735
asS'Bacteria.Firmicutes.Clostridia.Oscillospirales.uncultured'
p21
(lp22
F0.0
aF0.0
aF0.0
aF0.0
aF0.0
aF326.84485764090635
aF0.0
aF0.0
aF0.0
asS'Bacteria.Acidobacteriota.Acidobacteriae.Bryobacterales'
p23
(lp24
F0.0
aF0.0
aF0.0
aF0.0
aF0.0
aF0.0
aF685.9886811867605
aF0.0
aF0.0
asS'Bacteria.Actinobacteriota.Actinobacteria.Streptomycetales'
p25
(lp26
F0.0
aF0.0
aF0.0
aF0.0
aF0.0
aF0.0
aF0.0
aF0.0
aF3489.1835310537335
asS'Bacteria.Firmicutes.Bacilli.RF39'
p27
(lp28
F4257.970713469726
aF26775.147928994083
aF12211.888394662355
aF2082.7377792297953
aF2846.79089026915
aF3450.0290528762343
aF14062.767964328588
aF1120.5235085832103
aF0.0
asS'Bacteria.Firmicutes.Bacilli.Lactobacillales.Streptococcaceae'
p29
(lp30
F4050.264825007789
aF4215.976331360947
aF0.0
aF2225.6707640788986
aF0.0
aF998.6926205694361
aF0.0
aF627.4931648065977
aF0.0
asS'Bacteria.Proteobacteria.Gammaproteobacteria'
p31
(lp32
F21912.97123273445
aF122041.42011834319
aF35341.69025475132
aF23420.590517417397
aF31832.29813664596
aF12692.475305055199
aF30526.49631281084
aF29268.074044193458
aF63503.14026517795
asS'Bacteria.Bacteroidota'
p33
(lp34
F1973.20594038841
aF210576.92307692306
aF32915.4872624343
aF22093.355658104294
aF569616.9772256727
aF89392.0685647879
aF511576.0589950266
aF115638.02608578729
aF90369.8534542917
asS'Bacteria.Proteobacteria.Gammaproteobacteria.Enterobacterales.Pasteurellaceae'
p35
(lp36
F0.0
aF665.6804733727811
aF1374.8483623129803
aF0.0
aF0.0
aF0.0
aF0.0
aF672.3141051499261
aF0.0
asS'Bacteria.Bacteroidota.Bacteroidia.Chitinophagales.Chitinophagaceae'
p37
(lp38
F0.0
aF0.0
aF0.0
aF0.0
aF0.0
aF0.0
aF857.4858514834506
aF0.0
aF0.0
asS'Bacteria.Bacteroidota.Bacteroidia.Bacteroidales.Rikenellaceae'
p39
(lp40
F0.0
aF0.0
aF0.0
aF204.18997835586225
aF0.0
aF1143.9570017431722
aF0.0
aF4302.8102729595275
aF0.0
asS'Bacteria.Acidobacteriota'
p41
(lp42
F0.0
aF0.0
aF0.0
aF0.0
aF0.0
aF0.0
aF685.9886811867605
aF0.0
aF0.0
asS'Bacteria.Actinobacteriota.Actinobacteria.Pseudonocardiales.Pseudonocardiaceae'
p43
(lp44
F0.0
aF0.0
aF0.0
aF0.0
aF0.0
aF0.0
aF0.0
aF32136.614226166475
aF5233.7752965806
asS'Bacteria.Firmicutes.Bacilli.Lactobacillales.Aerococcaceae'
p45
(lp46
F1246.2353307716273
aF813.6094674556213
aF0.0
aF0.0
aF0.0
aF272.3707147007553
aF0.0
aF0.0
aF0.0
asS'Bacteria.Firmicutes.Clostridia.Clostridiales'
p47
(lp48
F402326.3059507737
aF18639.05325443787
aF16983.42094621917
aF658737.2891738472
aF12681.159420289852
aF10350.087158628703
aF15091.75098610873
aF1613.553852359823
aF0.0
asS'Bacteria.Acidobacteriota.Acidobacteriae.Bryobacterales.Bryobacteraceae'
p49
(lp50
F0.0
aF0.0
aF0.0
aF0.0
aF0.0
aF0.0
aF685.9886811867605
aF0.0
aF0.0
asS'Bacteria.Actinobacteriota.Actinobacteria.Micrococcales.Dermabacteraceae'
p51
(lp52
F0.0
aF0.0
aF0.0
aF0.0
aF0.0
aF217.89657176060425
aF0.0
aF0.0
aF0.0
asS'Bacteria.Cyanobacteria.Cyanobacteriia.Chloroplast.Chloroplast'
p53
(lp54
F0.0
aF0.0
aF0.0
aF0.0
aF0.0
aF0.0
aF457.32578745784025
aF0.0
aF0.0
asS'Bacteria.Proteobacteria'
p55
(lp56
F22847.64773081317
aF129068.04733727808
aF35988.67771936919
aF25339.9763139625
aF31832.29813664596
aF12692.475305055199
aF31784.1422283199
aF29492.1787459101
aF63503.14026517795
asS'Bacteria.Bacteroidota.Bacteroidia'
p57
(lp58
F1973.20594038841
aF210576.92307692306
aF32915.4872624343
aF22093.355658104294
aF569616.9772256727
aF89392.0685647879
aF511576.0589950266
aF115638.02608578729
aF90369.8534542917
asS'Bacteria.Campylobacterota.Campylobacteria.Campylobacterales'
p59
(lp60
F0.0
aF0.0
aF0.0
aF0.0
aF0.0
aF2306.072051133062
aF0.0
aF0.0
aF0.0
asS'Bacteria.Proteobacteria.Alphaproteobacteria.Rhizobiales.Rhizobiaceae'
p61
(lp62
F934.6764980787206
aF6065.08875739645
aF646.9874646178731
aF1286.3968636419322
aF0.0
aF0.0
aF0.0
aF224.10470171664207
aF0.0
asS'Bacteria.Proteobacteria.Alphaproteobacteria.Rhodobacterales'
p63
(lp64
F0.0
aF0.0
aF0.0
aF0.0
aF0.0
aF0.0
aF1257.6459155090608
aF0.0
aF0.0
asS'Bacteria.Desulfobacterota'
p65
(lp66
F1869.352996157441
aF4585.798816568047
aF0.0
aF0.0
aF0.0
aF12038.785589773384
aF14462.9280283542
aF0.0
aF0.0
asS'Bacteria.Desulfobacterota.Desulfovibrionia'
p67
(lp68
F1869.352996157441
aF4585.798816568047
aF0.0
aF0.0
aF0.0
aF12038.785589773384
aF14462.9280283542
aF0.0
aF0.0
asS'Bacteria.Firmicutes.Clostridia.Monoglobales'
p69
(lp70
F2284.764773081317
aF0.0
aF79094.217549535
aF1960.2237922162774
aF26397.515527950305
aF11566.676350958742
aF14405.76230492197
aF30343.776612433336
aF7327.28541521284
asS'Bacteria.Cyanobacteria.Vampirivibrionia'
p71
(lp72
F519.2647211548448
aF0.0
aF0.0
aF0.0
aF0.0
aF1325.5374782103424
aF0.0
aF0.0
aF0.0
asS'Bacteria.Firmicutes.Bacilli.Staphylococcales.Staphylococcaceae'
p73
(lp74
F5711.911932703292
aF0.0
aF1617.4686615446826
aF0.0
aF0.0
aF907.902382335851
aF1943.634596695821
aF0.0
aF0.0
asS'Bacteria.Actinobacteriota.Coriobacteriia.Coriobacteriales'
p75
(lp76
F14020.147471180808
aF14940.828402366862
aF18924.38334007279
aF19193.85796545105
aF3364.389233954451
aF21807.81522370714
aF7831.7041102155135
aF22634.574873380847
aF23377.52965806002
asS'Bacteria.Firmicutes.Bacilli.Erysipelotrichales'
p77
(lp78
F132412.5038944854
aF72411.24260355029
aF38980.99474322685
aF89373.95352636091
aF5434.782608695651
aF18085.41545613015
aF49905.67655633682
aF29626.64156694008
aF71179.34403349615
asS'Bacteria.Actinobacteriota.Actinobacteria.Micrococcales'
p79
(lp80
F0.0
aF0.0
aF0.0
aF0.0
aF0.0
aF635.5316676350958
aF0.0
aF0.0
aF0.0
asS'Bacteria.Firmicutes.Clostridia.Clostridia_UCG_014.Clostridia_UCG_014'
p81
(lp82
F69996.88441167306
aF278476.33136094676
aF267852.8103517995
aF36488.749132192585
aF62111.80124223601
aF336214.41022661235
aF129366.03212713657
aF97530.36618708263
aF74319.60921144452
asS'Bacteria.Desulfobacterota.Desulfovibrionia.Desulfovibrionales'
p83
(lp84
F1869.352996157441
aF4585.798816568047
aF0.0
aF0.0
aF0.0
aF12038.785589773384
aF14462.9280283542
aF0.0
aF0.0
asS'Bacteria.Firmicutes.Bacilli.RF39.RF39'
p85
(lp86
F4257.970713469726
aF26775.147928994083
aF12211.888394662355
aF2082.7377792297953
aF2846.79089026915
aF3450.0290528762343
aF14062.767964328588
aF1120.5235085832103
aF0.0
asS'Bacteria.Firmicutes.Clostridia.Clostridia_vadinBB60_group'
p87
(lp88
F0.0
aF0.0
aF566.114031540639
aF0.0
aF0.0
aF562.8994770482277
aF0.0
aF0.0
aF0.0
asS'Bacteria.Bacteroidota.Bacteroidia.Chitinophagales'
p89
(lp90
F0.0
aF0.0
aF0.0
aF0.0
aF0.0
aF0.0
aF857.4858514834506
aF0.0
aF0.0
asS'Bacteria.Bacteroidota.Bacteroidia.Bacteroidales.Tannerellaceae'
p91
(lp92
F0.0
aF1109.4674556213017
aF0.0
aF0.0
aF0.0
aF217.89657176060425
aF0.0
aF5423.333781542738
aF0.0
asS'Bacteria.Proteobacteria.Gammaproteobacteria.Burkholderiales.Sutterellaceae'
p93
(lp94
F0.0
aF2810.6508875739646
aF0.0
aF0.0
aF0.0
aF472.10923881464254
aF0.0
aF8022.948321455786
aF0.0
asS'Bacteria.Bacteroidota.Bacteroidia.Bacteroidales.Muribaculaceae'
p95
(lp96
F1973.20594038841
aF165532.54437869822
aF30408.410837040035
aF19561.399926491606
aF569616.9772256727
aF78951.1911679256
aF465729.1488023781
aF82111.96270897766
aF70481.50732728542
asS'Bacteria.Proteobacteria.Alphaproteobacteria.Rhizobiales'
p97
(lp98
F934.6764980787206
aF6065.08875739645
aF646.9874646178731
aF1286.3968636419322
aF0.0
aF0.0
aF0.0
aF224.10470171664207
aF0.0
asS'Bacteria.Cyanobacteria'
p99
(lp100
F519.2647211548448
aF0.0
aF0.0
aF0.0
aF0.0
aF1325.5374782103424
aF457.32578745784025
aF0.0
aF0.0
asS'Bacteria.Firmicutes.Clostridia.Peptostreptococcales_Tissierellales'
p101
(lp102
F0.0
aF0.0
aF0.0
aF0.0
aF0.0
aF217.89657176060425
aF0.0
aF0.0
aF0.0
asS'Bacteria.Actinobacteriota.Actinobacteria.Corynebacteriales'
p103
(lp104
F5919.6178211652295
aF0.0
aF0.0
aF0.0
aF0.0
aF0.0
aF0.0
aF0.0
aF0.0
asS'Bacteria.Verrucomicrobiota'
p105
(lp106
F0.0
aF887.5739644970414
aF21188.839466235346
aF24400.702413525538
aF10093.16770186335
aF1071.3248111563041
aF914.6515749156805
aF55533.145085383905
aF142009.76971388696
asS'Bacteria.Firmicutes.Bacilli.Staphylococcales'
p107
(lp108
F5711.911932703292
aF0.0
aF1617.4686615446826
aF0.0
aF0.0
aF907.902382335851
aF1943.634596695821
aF0.0
aF0.0
asS'Bacteria.Firmicutes.Clostridia.Oscillospirales.Butyricicoccaceae'
p109
(lp110
F0.0
aF8505.917159763314
aF4205.4185200161755
aF285.86596969820715
aF0.0
aF9605.607205113305
aF514.4915108900703
aF7216.171395275875
aF3489.1835310537335
asS'Bacteria.Cyanobacteria.Vampirivibrionia.Gastranaerophilales'
p111
(lp112
F519.2647211548448
aF0.0
aF0.0
aF0.0
aF0.0
aF1325.5374782103424
aF0.0
aF0.0
aF0.0
asS'Bacteria.Verrucomicrobiota.Verrucomicrobiae.Verrucomicrobiales'
p113
(lp114
F0.0
aF887.5739644970414
aF21188.839466235346
aF24400.702413525538
aF10093.16770186335
aF1071.3248111563041
aF914.6515749156805
aF55533.145085383905
aF142009.76971388696
asS'Bacteria.Bacteroidota.Bacteroidia.Bacteroidales'
p115
(lp116
F1973.20594038841
aF210576.92307692306
aF32915.4872624343
aF20847.796790133536
aF569616.9772256727
aF89137.85589773385
aF510718.5731435432
aF115638.02608578729
aF90369.8534542917
asS'Bacteria.Actinobacteriota.Coriobacteriia'
p117
(lp118
F14020.147471180808
aF14940.828402366862
aF18924.38334007279
aF19193.85796545105
aF3364.389233954451
aF21807.81522370714
aF7831.7041102155135
aF22634.574873380847
aF23377.52965806002
asS'Bacteria.Firmicutes.Bacilli.Lactobacillales'
p119
(lp120
F33648.353930833946
aF16272.189349112426
aF1779.2155276991512
aF6268.632335524971
aF0.0
aF7299.535153980243
aF14520.09375178643
aF6185.289767379321
aF0.0
asS'Bacteria.Proteobacteria.Gammaproteobacteria.Pseudomonadales.Moraxellaceae'
p121
(lp122
F0.0
aF0.0
aF0.0
aF2736.145709968554
aF0.0
aF0.0
aF0.0
aF672.3141051499261
aF0.0
asS'Bacteria.Campylobacterota.Campylobacteria.Campylobacterales.Helicobacteraceae'
p123
(lp124
F0.0
aF0.0
aF0.0
aF0.0
aF0.0
aF2306.072051133062
aF0.0
aF0.0
aF0.0
asS'Bacteria.Proteobacteria.Alphaproteobacteria.Rhodobacterales.Rhodobacteraceae'
p125
(lp126
F0.0
aF0.0
aF0.0
aF0.0
aF0.0
aF0.0
aF1257.6459155090608
aF0.0
aF0.0
asS'Bacteria.Patescibacteria'
p127
(lp128
F3738.705992314882
aF15088.757396449704
aF32511.120097048122
aF551.3129415608281
aF12681.159420289852
aF2415.020337013364
aF28468.530269250557
aF851.5978665232398
aF0.0
asS'Bacteria.Firmicutes.Clostridia.Lachnospirales.Defluviitaleaceae'
p129
(lp130
F0.0
aF0.0
aF0.0
aF0.0
aF0.0
aF1289.2213829169084
aF0.0
aF0.0
aF0.0
asS'Bacteria.Gemmatimonadota.Gemmatimonadetes.Gemmatimonadales'
p131
(lp132
F0.0
aF0.0
aF0.0
aF0.0
aF2846.79089026915
aF0.0
aF0.0
aF0.0
aF0.0
asS'Bacteria.Bacteroidota.Bacteroidia.Bacteroidales.Bacteroidaceae'
p133
(lp134
F0.0
aF33875.73964497041
aF0.0
aF183.77098052027603
aF0.0
aF2088.175479372457
aF31441.14788772652
aF4168.347451929542
aF2791.3468248429867
asS'Bacteria.Cyanobacteria.Cyanobacteriia.Chloroplast'
p135
(lp136
F0.0
aF0.0
aF0.0
aF0.0
aF0.0
aF0.0
aF457.32578745784025
aF0.0
aF0.0
asS'Bacteria.Proteobacteria.Gammaproteobacteria.Enterobacterales.Enterobacteriaceae'
p137
(lp138
F15577.941634645344
aF8949.704142011833
aF27820.460978568542
aF6656.593294401109
aF18633.540372670803
aF5774.259151656012
aF21551.477733950724
aF12325.758594415314
aF30006.978367062107
asS'Bacteria.Proteobacteria.Alphaproteobacteria'
p139
(lp140
F934.6764980787206
aF7026.627218934912
aF646.9874646178731
aF1919.385796545105
aF0.0
aF0.0
aF1257.6459155090608
aF224.10470171664207
aF0.0
asS'Bacteria.Firmicutes.Bacilli.Acholeplasmatales.Acholeplasmataceae'
p141
(lp142
F0.0
aF295.85798816568047
aF0.0
aF61.25699350675867
aF0.0
aF254.21266705403826
aF0.0
aF0.0
aF0.0
asS'Bacteria.Proteobacteria.Gammaproteobacteria.Burkholderiales.Oxalobacteraceae'
p143
(lp144
F0.0
aF0.0
aF0.0
aF428.7989545473107
aF13198.757763975153
aF0.0
aF0.0
aF0.0
aF0.0
asS'Bacteria.Chloroflexi.Anaerolineae.Anaerolineales'
p145
(lp146
F0.0
aF0.0
aF0.0
aF0.0
aF0.0
aF0.0
aF457.32578745784025
aF0.0
aF0.0
asS'Bacteria.Firmicutes.Clostridia.Monoglobales.Monoglobaceae'
p147
(lp148
F2284.764773081317
aF0.0
aF79094.217549535
aF1960.2237922162774
aF26397.515527950305
aF11566.676350958742
aF14405.76230492197
aF30343.776612433336
aF7327.28541521284
asS'Bacteria.Cyanobacteria.Cyanobacteriia'
p149
(lp150
F0.0
aF0.0
aF0.0
aF0.0
aF0.0
aF0.0
aF457.32578745784025
aF0.0
aF0.0
asS'Bacteria.Chloroflexi.Anaerolineae.Anaerolineales.Anaerolineaceae'
p151
(lp152
F0.0
aF0.0
aF0.0
aF0.0
aF0.0
aF0.0
aF457.32578745784025
aF0.0
aF0.0
asS'Bacteria.Firmicutes.Clostridia.Peptococcales.Peptococcaceae'
p153
(lp154
F0.0
aF0.0
aF0.0
aF81.6759913423449
aF0.0
aF780.7960488088319
aF0.0
aF851.5978665232398
aF0.0
asS'Bacteria.Firmicutes.Bacilli.Lactobacillales.Lactobacillaceae'
p155
(lp156
F28351.853775054526
aF11242.603550295858
aF1779.2155276991512
aF4042.961571446072
aF0.0
aF6028.471818710051
aF14520.09375178643
aF5557.796602572724
aF0.0
asS'Bacteria.Chloroflexi'
p157
(lp158
F0.0
aF0.0
aF0.0
aF0.0
aF0.0
aF0.0
aF457.32578745784025
aF0.0
aF0.0
asS'Bacteria.Firmicutes.Clostridia.Oscillospirales.UCG_010'
p159
(lp160
F0.0
aF0.0
aF0.0
aF0.0
aF0.0
aF653.6897152818127
aF0.0
aF0.0
aF0.0
asS'Bacteria.Firmicutes.Clostridia.Eubacteriales.Anaerofustaceae'
p161
(lp162
F0.0
aF0.0
aF404.36716538617065
aF0.0
aF0.0
aF0.0
aF0.0
aF1703.1957330464795
aF0.0
asS'Bacteria.Proteobacteria.Gammaproteobacteria.Pseudomonadales.Pseudomonadaceae'
p163
(lp164
F0.0
aF27884.615384615387
aF970.4811969268096
aF2674.8887164617954
aF0.0
aF1634.2242882045318
aF0.0
aF2106.584196136436
aF15003.489183531054
asS'Bacteria.Proteobacteria.Alphaproteobacteria.Caulobacterales.Caulobacteraceae'
p165
(lp166
F0.0
aF961.5384615384615
aF0.0
aF632.988932903173
aF0.0
aF0.0
aF0.0
aF0.0
aF0.0
asS'Bacteria.Firmicutes.Clostridia.Peptococcales'
p167
(lp168
F0.0
aF0.0
aF0.0
aF81.6759913423449
aF0.0
aF780.7960488088319
aF0.0
aF851.5978665232398
aF0.0
asS'Bacteria.Firmicutes.Clostridia'
p169
(lp170
F765396.1989822412
aF498742.6035502958
aF799272.1391023048
aF810470.8620900884
aF361283.6438923395
aF826318.2742591517
aF309037.90087463555
aF656895.7016718214
aF595254.710397767
asS'Bacteria.Actinobacteriota.Actinobacteria.Micrococcales.Micrococcaceae'
p171
(lp172
F0.0
aF0.0
aF0.0
aF0.0
aF0.0
aF417.63509587449147
aF0.0
aF0.0
aF0.0
asS'Bacteria.Patescibacteria.Saccharimonadia.Saccharimonadales.Saccharimonadaceae'
p173
(lp174
F3738.705992314882
aF15088.757396449704
aF32511.120097048122
aF551.3129415608281
aF12681.159420289852
aF2306.072051133062
aF28468.530269250557
aF851.5978665232398
aF0.0
asS'Bacteria.Firmicutes.Bacilli.Erysipelotrichales.Erysipelotrichaceae'
p175
(lp176
F130854.70973102086
aF71671.59763313609
aF37767.893247068336
aF89373.95352636091
aF5434.782608695651
aF11167.199302730967
aF49905.67655633682
aF29626.64156694008
aF71179.34403349615
asS'Bacteria.Actinobacteriota'
p177
(lp178
F27624.883165437743
aF25295.85798816568
aF23534.169025475137
aF19357.20994813574
aF3364.389233954451
aF22443.346891342237
aF21722.97490424741
aF103939.76065617858
aF37683.182135380324
asS'Bacteria.Proteobacteria.Gammaproteobacteria.Burkholderiales'
p179
(lp180
F6335.029598089106
aF84541.4201183432
aF5175.899716942985
aF11352.962796585942
aF13198.757763975153
aF5283.991865194653
aF8975.018578860116
aF13491.103043341851
aF18492.672714584787
asS'Bacteria.Firmicutes'
p181
(lp182
F941426.9394537335
aF614497.0414201182
aF853861.7064294381
aF908257.4427247109
aF369565.21739130426
aF856315.368971528
aF389470.07374378317
aF694545.2915602172
aF666434.0544312631
asS'Bacteria.Firmicutes.Clostridia.Oscillospirales'
p183
(lp184
F29078.824384671305
aF48372.781065088755
aF275131.4193287505
aF42614.44848286844
aF164855.0724637681
aF134060.86577571178
aF90779.1688103813
aF228048.94446685494
aF257850.66294487086
asS'Bacteria.Actinobacteriota.Coriobacteriia.Coriobacteriales.Atopobiaceae'
p185
(lp186
F3219.4412711600376
aF0.0
aF3801.0513546300044
aF530.8939437252419
aF0.0
aF3577.135386403253
aF685.9886811867605
aF13042.893639908569
aF5582.6936496859735
asS'Bacteria.Proteobacteria.Gammaproteobacteria.Burkholderiales.Comamonadaceae'
p187
(lp188
F1557.7941634645342
aF65384.61538461539
aF3558.4310553983023
aF5635.6434026217985
aF0.0
aF2251.597908192911
aF2858.2861716115017
aF761.9559858365831
aF8374.04047452896
asS'Bacteria.Firmicutes.Bacilli.Erysipelotrichales.Erysipelatoclostridiaceae'
p189
(lp190
F1557.7941634645342
aF739.6449704142011
aF1213.101496158512
aF0.0
aF0.0
aF6918.216153399185
aF0.0
aF0.0
aF0.0
asS'Bacteria.Firmicutes.Clostridia.Oscillospirales._Eubacterium__coprostanoligenes_group'
p191
(lp192
F10073.735590403989
aF4511.834319526628
aF13263.243024666399
aF2164.41377057214
aF70134.57556935816
aF25548.373038930848
aF6745.555365003144
aF13625.565864371836
aF0.0
asS'Bacteria.Actinobacteriota.Coriobacteriia.Coriobacteriales.Eggerthellaceae'
p193
(lp194
F5504.206044241354
aF8579.881656804733
aF7197.735543873839
aF14374.974476252703
aF0.0
aF10477.19349215572
aF4744.755044875093
aF6409.394469095962
aF16050.244242847175
asS'Bacteria.Firmicutes.Clostridia.Christensenellales'
p195
(lp196
F41541.17769238757
aF29807.69230769231
aF3720.17792155277
aF3859.190590925796
aF0.0
aF13872.748402091804
aF21437.146287086263
aF1568.7329120164945
aF0.0
asS'Bacteria.Firmicutes.Clostridia.Clostridia_UCG_014'
p197
(lp198
F69996.88441167306
aF278476.33136094676
aF267852.8103517995
aF36488.749132192585
aF62111.80124223601
aF336214.41022661235
aF129366.03212713657
aF97530.36618708263
aF74319.60921144452
asS'Bacteria.Proteobacteria.Alphaproteobacteria.Caulobacterales'
p199
(lp200
F0.0
aF961.5384615384615
aF0.0
aF632.988932903173
aF0.0
aF0.0
aF0.0
aF0.0
aF0.0
asS'Bacteria.Firmicutes.Bacilli.Exiguobacterales.Exiguobacteraceae'
p201
(lp202
F0.0
aF0.0
aF0.0
aF0.0
aF0.0
aF0.0
aF0.0
aF717.1350454932547
aF0.0
asS'Bacteria.Firmicutes.Clostridia.Clostridia_vadinBB60_group.Clostridia_vadinBB60_group'
p203
(lp204
F0.0
aF0.0
aF566.114031540639
aF0.0
aF0.0
aF562.8994770482277
aF0.0
aF0.0
aF0.0
asS'Bacteria.Cyanobacteria.Vampirivibrionia.Gastranaerophilales.Gastranaerophilales'
p205
(lp206
F519.2647211548448
aF0.0
aF0.0
aF0.0
aF0.0
aF1325.5374782103424
aF0.0
aF0.0
aF0.0
asS'Bacteria.Bacteroidota.Bacteroidia.Bacteroidales.Prevotellaceae'
p207
(lp208
F0.0
aF10059.171597633136
aF2507.0764253942584
aF898.4359047657939
aF0.0
aF6736.635676932015
aF13548.276453438519
aF19631.571870377844
aF17096.99930216329
asS'Bacteria.Proteobacteria.Gammaproteobacteria.Burkholderiales.Alcaligenaceae'
p209
(lp210
F0.0
aF3476.3313609467455
aF0.0
aF1123.0448809572424
aF0.0
aF0.0
aF0.0
aF896.4188068665683
aF0.0
asS'Bacteria.Firmicutes.Bacilli.Exiguobacterales'
p211
(lp212
F0.0
aF0.0
aF0.0
aF0.0
aF0.0
aF0.0
aF0.0
aF717.1350454932547
aF0.0
asS'Bacteria.Firmicutes.Clostridia.Eubacteriales'
p213
(lp214
F0.0
aF0.0
aF404.36716538617065
aF0.0
aF0.0
aF0.0
aF0.0
aF1703.1957330464795
aF0.0
asS'Bacteria.Bacteroidota.Bacteroidia.Flavobacteriales'
p215
(lp216
F0.0
aF0.0
aF0.0
aF1245.5588679707598
aF0.0
aF254.21266705403826
aF0.0
aF0.0
aF0.0
asS'Bacteria.Gemmatimonadota'
p217
(lp218
F0.0
aF0.0
aF0.0
aF0.0
aF2846.79089026915
aF0.0
aF0.0
aF0.0
aF0.0
asS'Bacteria.Proteobacteria.Gammaproteobacteria.Burkholderiales.Burkholderiaceae'
p219
(lp220
F4777.235434624572
aF12869.822485207102
aF1617.4686615446826
aF4165.4755584595905
aF0.0
aF2560.2847181870998
aF6116.7324072486135
aF3809.779929182915
aF10118.632240055827
asS'Bacteria.Firmicutes.Bacilli'
p221
(lp222
F176030.74047149235
aF115754.43786982249
aF54589.56732713304
aF97786.58063462243
aF8281.573498964803
aF29997.094712376515
aF80432.17286914766
aF37649.58988839587
aF71179.34403349615
asS'Bacteria.Acidobacteriota.Acidobacteriae'
p223
(lp224
F0.0
aF0.0
aF0.0
aF0.0
aF0.0
aF0.0
aF685.9886811867605
aF0.0
aF0.0
asS'Bacteria.Verrucomicrobiota.Verrucomicrobiae'
p225
(lp226
F0.0
aF887.5739644970414
aF21188.839466235346
aF24400.702413525538
aF10093.16770186335
aF1071.3248111563041
aF914.6515749156805
aF55533.145085383905
aF142009.76971388696
asS'Bacteria.Gemmatimonadota.Gemmatimonadetes.Gemmatimonadales.Gemmatimonadaceae'
p227
(lp228
F0.0
aF0.0
aF0.0
aF0.0
aF2846.79089026915
aF0.0
aF0.0
aF0.0
aF0.0
asS'Bacteria.Actinobacteriota.Actinobacteria.Bifidobacteriales.Bifidobacteriaceae'
p229
(lp230
F7685.117873091703
aF10355.029585798817
aF4609.785685402346
aF163.3519826846898
aF0.0
aF0.0
aF13891.270794031898
aF49168.571556631265
aF5582.6936496859735
asS'Bacteria.Actinobacteriota.Coriobacteriia.Coriobacteriales.Coriobacteriales_Incertae_Sedis'
p231
(lp232
F0.0
aF443.7869822485207
aF0.0
aF387.96095887613825
aF0.0
aF508.4253341080765
aF0.0
aF0.0
aF1744.5917655268668
asS'Bacteria.Verrucomicrobiota.Verrucomicrobiae.Verrucomicrobiales.Akkermansiaceae'
p233
(lp234
F0.0
aF887.5739644970414
aF21188.839466235346
aF24400.702413525538
aF10093.16770186335
aF1071.3248111563041
aF914.6515749156805
aF55533.145085383905
aF142009.76971388696
asS'Bacteria.Campylobacterota.Campylobacteria'
p235
(lp236
F0.0
aF0.0
aF0.0
aF0.0
aF0.0
aF2306.072051133062
aF0.0
aF0.0
aF0.0
asS'Bacteria.Desulfobacterota.Desulfovibrionia.Desulfovibrionales.Desulfovibrionaceae'
p237
(lp238
F1869.352996157441
aF4585.798816568047
aF0.0
aF0.0
aF0.0
aF12038.785589773384
aF14462.9280283542
aF0.0
aF0.0
asS'Bacteria.Proteobacteria.Gammaproteobacteria.Pseudomonadales'
p239
(lp240
F0.0
aF27884.615384615387
aF970.4811969268096
aF5411.034426430349
aF0.0
aF1634.2242882045318
aF0.0
aF2778.898301286362
aF15003.489183531054
asS'Bacteria.Actinobacteriota.Actinobacteria'
p241
(lp242
F13604.735694256933
aF10355.029585798817
aF4609.785685402346
aF163.3519826846898
aF0.0
aF635.5316676350958
aF13891.270794031898
aF81305.18578279774
aF14305.652477320307
asS'Bacteria.Actinobacteriota.Coriobacteriia.Coriobacteriales.uncultured'
p243
(lp244
F5296.500155779417
aF5917.159763313609
aF7925.596441568946
aF3900.0285865969686
aF3364.389233954451
aF7245.061011040091
aF2400.9603841536614
aF3182.286764376317
aF0.0
asS'Bacteria.Firmicutes.Clostridia.uncultured.uncultured'
p245
(lp246
F0.0
aF0.0
aF0.0
aF0.0
aF0.0
aF599.2155723416618
aF0.0
aF717.1350454932547
aF0.0
asS'Bacteria.Firmicutes.Clostridia.Oscillospirales.Ruminococcaceae'
p247
(lp248
F11112.265032713676
aF16642.011834319528
aF53538.212697129
aF38673.58190060031
aF61594.20289855071
aF35371.87681580476
aF49162.522151717836
aF200484.066155708
aF254361.47941381714
asS'Bacteria.Bacteroidota.Bacteroidia.Flavobacteriales.Weeksellaceae'
p249
(lp250
F0.0
aF0.0
aF0.0
aF1245.5588679707598
aF0.0
aF254.21266705403826
aF0.0
aF0.0
aF0.0
asS'Bacteria.Gemmatimonadota.Gemmatimonadetes'
p251
(lp252
F0.0
aF0.0
aF0.0
aF0.0
aF2846.79089026915
aF0.0
aF0.0
aF0.0
aF0.0
asS'Bacteria.Firmicutes.Clostridia.Lachnospirales.Lachnospiraceae'
p253
(lp254
F51926.47211548448
aF99778.10650887573
aF136352.60816821674
aF10413.688896148975
aF86956.52173913042
aF290819.2911098198
aF37958.04035900074
aF289408.8117968716
aF250523.3775296581
asS'Bacteria.Patescibacteria.Saccharimonadia'
p255
(lp256
F3738.705992314882
aF15088.757396449704
aF32511.120097048122
aF551.3129415608281
aF12681.159420289852
aF2415.020337013364
aF28468.530269250557
aF851.5978665232398
aF0.0
asS'Bacteria.Firmicutes.Clostridia.Peptostreptococcales_Tissierellales.Peptostreptococcaceae'
p257
(lp258
F168241.7696541697
aF23668.639053254436
aF17873.028710068746
aF56111.40605219094
aF8281.573498964803
aF25294.160371876813
aF0.0
aF5109.58719913944
aF5233.7752965806
asS'Bacteria.Firmicutes.Clostridia.Lachnospirales'
p259
(lp260
F51926.47211548448
aF99778.10650887573
aF136352.60816821674
aF10413.688896148975
aF86956.52173913042
aF292108.51249273674
aF37958.04035900074
aF289408.8117968716
aF250523.3775296581
asS'Bacteria.Firmicutes.Clostridia.Clostridiales.Clostridiaceae'
p261
(lp262
F402326.3059507737
aF18639.05325443787
aF16983.42094621917
aF658737.2891738472
aF12681.159420289852
aF10350.087158628703
aF15091.75098610873
aF1613.553852359823
aF0.0
asS'Bacteria.Campylobacterota'
p263
(lp264
F0.0
aF0.0
aF0.0
aF0.0
aF0.0
aF2306.072051133062
aF0.0
aF0.0
aF0.0
asS'Bacteria.Patescibacteria.Saccharimonadia.Saccharimonadales'
p265
(lp266
F0.0
aF0.0
aF0.0
aF0.0
aF0.0
aF108.94828588030212
aF0.0
aF0.0
aF0.0
asS'Bacteria.Firmicutes.Clostridia.uncultured'
p267
(lp268
F0.0
aF0.0
aF0.0
aF0.0
aF0.0
aF599.2155723416618
aF0.0
aF717.1350454932547
aF0.0
asS'Bacteria.Proteobacteria.Gammaproteobacteria.Enterobacterales'
p269
(lp270
F15577.941634645344
aF9615.384615384613
aF29195.309340881522
aF6656.593294401109
aF18633.540372670803
aF5774.259151656012
aF21551.477733950724
aF12998.07269956524
aF30006.978367062107
asS'Bacteria'
p271
(lp272
F1000000.0
aF1000000.0
aF1000000.0
aF1000000.0
aF1000000.0
aF1000000.0
aF1000000.0
aF1000000.0
aF1000000.0
asS'Bacteria.Firmicutes.Clostridia.Christensenellales.Christensenellaceae'
p273
(lp274
F41541.17769238757
aF29807.69230769231
aF3720.17792155277
aF3859.190590925796
aF0.0
aF13872.748402091804
aF21437.146287086263
aF1568.7329120164945
aF0.0
asS'Bacteria.Actinobacteriota.Actinobacteria.Corynebacteriales.Corynebacteriaceae'
p275
(lp276
F5919.6178211652295
aF0.0
aF0.0
aF0.0
aF0.0
aF0.0
aF0.0
aF0.0
aF0.0
asS'Bacteria.Firmicutes.Clostridia.Oscillospirales.Oscillospiraceae'
p277
(lp278
F7892.82376155364
aF18713.017751479292
aF204124.54508693898
aF1490.5868419977944
aF33126.29399585921
aF62554.47414294013
aF34356.59978277025
aF6723.141051499262
aF0.0
asS'Bacteria.Actinobacteriota.Actinobacteria.Pseudonocardiales'
p279
(lp280
F0.0
aF0.0
aF0.0
aF0.0
aF0.0
aF0.0
aF0.0
aF32136.614226166475
aF5233.7752965806
asS'Bacteria.Chloroflexi.Anaerolineae'
p281
(lp282
F0.0
aF0.0
aF0.0
aF0.0
aF0.0
aF0.0
aF457.32578745784025
aF0.0
aF0.0
asS'Bacteria.Actinobacteriota.Actinobacteria.Streptomycetales.Streptomycetaceae'
p283
(lp284
F0.0
aF0.0
aF0.0
aF0.0
aF0.0
aF0.0
aF0.0
aF0.0
aF3489.1835310537335
assS'subclass_sl'
p285
(dp286
g12
(I0
I5
tp287
sg10
(I5
I9
tp288
ssS'norm'
p289
F1000000.0
sS'cls'
p290
(dp291
S'class'
p292
(S'HSD-NC'
p293
S'HSD-NC'
p294
S'HSD-NC'
p295
S'HSD-NC'
p296
g5
S'HSD-NR'
p297
S'HSD-NR'
p298
S'HSD-NR'
p299
g3
tp300
sS'subclass'
p301
(lp302
S'HSD-NC_subcl'
p303
aS'HSD-NC_subcl'
p304
aS'HSD-NC_subcl'
p305
aS'HSD-NC_subcl'
p306
ag12
aS'HSD-NR_subcl'
p307
aS'HSD-NR_subcl'
p308
aS'HSD-NR_subcl'
p309
ag10
asS'subject'
p310
(S'S210421121698'
p311
S'S210421121699'
p312
S'S210421121700'
p313
S'S210421121701'
p314
S'S210421121702'
p315
S'S210421121707'
p316
S'S210421121708'
p317
S'S210421121709'
p318
S'S210421121710'
p319
tp320
ss.