(dp0
S'class_sl'
p1
(dp2
S'HSD-NR'
p3
(I5
I9
tp4
sS'HSD-NC'
p5
(I0
I5
tp6
ssS'class_hierarchy'
p7
(dp8
g3
(lp9
S'HSD-NR_subcl'
p10
asg5
(lp11
S'HSD-NC_subcl'
p12
assS'feats'
p13
(dp14
S'Bacteria.Chloroflexi'
p15
(lp16
F0.0
aF0.0
aF0.0
aF0.0
aF0.0
aF0.0
aF457.3257874578403
aF0.0
aF0.0
asS'Bacteria.Gemmatimonadota.Gemmatimonadetes.Gemmatimonadales'
p17
(lp18
F0.0
aF0.0
aF0.0
aF0.0
aF2846.790890269151
aF0.0
aF0.0
aF0.0
aF0.0
asS'Bacteria.Firmicutes.Bacilli.Acholeplasmatales'
p19
(lp20
F0.0
aF295.85798816568047
aF0.0
aF61.25699350675869
aF0.0
aF254.21266705403832
aF0.0
aF0.0
aF0.0
asS'Bacteria.Actinobacteriota.Actinobacteria.Micrococcales'
p21
(lp22
F0.0
aF0.0
aF0.0
aF0.0
aF0.0
aF635.5316676350959
aF0.0
aF0.0
aF0.0
asS'Bacteria.Actinobacteriota.Actinobacteria.Streptomycetales'
p23
(lp24
F0.0
aF0.0
aF0.0
aF0.0
aF0.0
aF0.0
aF0.0
aF0.0
aF3489.1835310537326
asS'Bacteria.Campylobacterota.Campylobacteria'
p25
(lp26
F0.0
aF0.0
aF0.0
aF0.0
aF0.0
aF2306.0720511330624
aF0.0
aF0.0
aF0.0
asS'Bacteria.Actinobacteriota.Actinobacteria.Bifidobacteriales'
p27
(lp28
F7685.117873091701
aF10355.029585798817
aF4609.785685402346
aF163.35198268468986
aF0.0
aF0.0
aF13891.2707940319
aF49168.571556631265
aF5582.693649685972
asS'Bacteria.Desulfobacterota.Desulfovibrionia.Desulfovibrionales'
p29
(lp30
F1869.3529961574407
aF4585.798816568047
aF0.0
aF0.0
aF0.0
aF12038.785589773388
aF14462.928028354201
aF0.0
aF0.0
asS'Bacteria.Proteobacteria.Gammaproteobacteria.Pseudomonadales'
p31
(lp32
F0.0
aF27884.615384615387
aF970.4811969268096
aF5411.034426430351
aF0.0
aF1634.224288204532
aF0.0
aF2778.898301286362
aF15003.48918353105
asS'Bacteria.Firmicutes.Clostridia.Peptococcales'
p33
(lp34
F0.0
aF0.0
aF0.0
aF81.67599134234493
aF0.0
aF780.796048808832
aF0.0
aF851.5978665232398
aF0.0
asS'Bacteria.Firmicutes.Clostridia'
p35
(lp36
F765396.1989822411
aF498742.60355029587
aF799272.1391023049
aF810470.8620900887
aF361283.6438923396
aF826318.2742591517
aF309037.9008746356
aF656895.7016718213
aF595254.7103977669
asS'Bacteria.Firmicutes.Bacilli'
p37
(lp38
F176030.74047149232
aF115754.43786982248
aF54589.567327133045
aF97786.58063462247
aF8281.573498964804
aF29997.09471237653
aF80432.17286914767
aF37649.589888395865
aF71179.34403349613
asS'Bacteria.Firmicutes.Clostridia.Clostridia_vadinBB60_group'
p39
(lp40
F0.0
aF0.0
aF566.114031540639
aF0.0
aF0.0
aF562.8994770482278
aF0.0
aF0.0
aF0.0
asS'Bacteria.Firmicutes.Bacilli.RF39'
p41
(lp42
F4257.9707134697255
aF26775.147928994083
aF12211.888394662355
aF2082.7377792297957
aF2846.790890269151
aF3450.029052876235
aF14062.76796432859
aF1120.5235085832103
aF0.0
asS'Bacteria.Bacteroidota.Bacteroidia.Chitinophagales'
p43
(lp44
F0.0
aF0.0
aF0.0
aF0.0
aF0.0
aF0.0
aF857.4858514834507
aF0.0
aF0.0
asS'Bacteria.Actinobacteriota'
p45
(lp46
F27624.883165437735
aF25295.85798816568
aF23534.169025475134
aF19357.209948135747
aF3364.3892339544514
aF22443.346891342244
aF21722.974904247414
aF103939.76065617858
aF37683.18213538032
asS'Bacteria.Acidobacteriota.Acidobacteriae'
p47
(lp48
F0.0
aF0.0
aF0.0
aF0.0
aF0.0
aF0.0
aF685.9886811867605
aF0.0
aF0.0
asS'Bacteria.Proteobacteria.Gammaproteobacteria'
p49
(lp50
F21912.971232734446
aF122041.42011834319
aF35341.69025475132
aF23420.590517417408
aF31832.298136645968
aF12692.4753050552
aF30526.496312810843
aF29268.074044193454
aF63503.140265177935
asS'Bacteria.Proteobacteria.Alphaproteobacteria'
p51
(lp52
F934.6764980787203
aF7026.627218934912
aF646.9874646178731
aF1919.3857965451057
aF0.0
aF0.0
aF1257.645915509061
aF224.10470171664207
aF0.0
asS'Bacteria.Patescibacteria.Saccharimonadia.Saccharimonadales'
p53
(lp54
F3738.7059923148813
aF15088.757396449704
aF32511.120097048122
aF551.3129415608282
aF12681.159420289856
aF2415.020337013364
aF28468.53026925056
aF851.5978665232398
aF0.0
asS'Bacteria.Proteobacteria.Gammaproteobacteria.Burkholderiales'
p55
(lp56
F6335.029598089104
aF84541.42011834319
aF5175.899716942985
aF11352.962796585945
aF13198.757763975156
aF5283.991865194655
aF8975.018578860117
aF13491.103043341853
aF18492.672714584784
asS'Bacteria.Firmicutes'
p57
(lp58
F941426.9394537335
aF614497.0414201183
aF853861.7064294379
aF908257.4427247111
aF369565.2173913044
aF856315.3689715284
aF389470.0737437833
aF694545.291560217
aF666434.054431263
asS'Bacteria.Actinobacteriota.Actinobacteria'
p59
(lp60
F13604.73569425693
aF10355.029585798817
aF4609.785685402346
aF163.35198268468986
aF0.0
aF635.5316676350959
aF13891.2707940319
aF81305.18578279774
aF14305.652477320304
asS'Bacteria.Bacteroidota'
p61
(lp62
F1973.2059403884095
aF210576.9230769231
aF32915.4872624343
aF22093.3556581043
aF569616.9772256728
aF89392.06856478791
aF511576.05899502675
aF115638.0260857873
aF90369.85345429168
asS'Bacteria.Proteobacteria.Alphaproteobacteria.Rhizobiales'
p63
(lp64
F934.6764980787203
aF6065.08875739645
aF646.9874646178731
aF1286.3968636419327
aF0.0
aF0.0
aF0.0
aF224.10470171664207
aF0.0
asS'Bacteria.Firmicutes.Clostridia.Oscillospirales'
p65
(lp66
F29078.824384671298
aF48372.781065088755
aF275131.4193287505
aF42614.448482868465
aF164855.07246376813
aF134060.8657757118
aF90779.1688103813
aF228048.94446685497
aF257850.66294487086
asS'Bacteria.Gemmatimonadota.Gemmatimonadetes'
p67
(lp68
F0.0
aF0.0
aF0.0
aF0.0
aF2846.790890269151
aF0.0
aF0.0
aF0.0
aF0.0
asS'Bacteria.Firmicutes.Clostridia.Clostridiales'
p69
(lp70
F402326.3059507736
aF18639.05325443787
aF16983.42094621917
aF658737.2891738474
aF12681.159420289856
aF10350.087158628705
aF15091.750986108731
aF1613.553852359823
aF0.0
asS'Bacteria.Acidobacteriota'
p71
(lp72
F0.0
aF0.0
aF0.0
aF0.0
aF0.0
aF0.0
aF685.9886811867605
aF0.0
aF0.0
asS'Bacteria.Firmicutes.Clostridia.Peptostreptococcales_Tissierellales'
p73
(lp74
F168241.76965416968
aF23668.639053254436
aF19167.00363930449
aF56315.596030546825
aF8281.573498964804
aF26202.062754212668
aF0.0
aF5109.58719913944
aF5233.7752965805985
asS'Bacteria.Actinobacteriota.Actinobacteria.Corynebacteriales'
p75
(lp76
F5919.617821165229
aF0.0
aF0.0
aF0.0
aF0.0
aF0.0
aF0.0
aF0.0
aF0.0
asS'Bacteria.Verrucomicrobiota'
p77
(lp78
F0.0
aF887.5739644970414
aF21188.839466235346
aF24400.702413525545
aF10093.167701863355
aF1071.3248111563046
aF914.6515749156806
aF55533.145085383905
aF142009.76971388693
asS'Bacteria.Firmicutes.Bacilli.Staphylococcales'
p79
(lp80
F5711.911932703291
aF0.0
aF1617.4686615446826
aF0.0
aF0.0
aF907.9023823358513
aF1943.6345966958213
aF0.0
aF0.0
asS'Bacteria.Chloroflexi.Anaerolineae.Anaerolineales'
p81
(lp82
F0.0
aF0.0
aF0.0
aF0.0
aF0.0
aF0.0
aF457.3257874578403
aF0.0
aF0.0
asS'Bacteria.Patescibacteria'
p83
(lp84
F3738.7059923148813
aF15088.757396449704
aF32511.120097048122
aF551.3129415608282
aF12681.159420289856
aF2415.020337013364
aF28468.53026925056
aF851.5978665232398
aF0.0
asS'Bacteria.Firmicutes.Clostridia.Clostridia_UCG_014'
p85
(lp86
F69996.88441167305
aF278476.33136094676
aF267852.8103517995
aF36488.74913219259
aF62111.801242236026
aF336214.4102266124
aF129366.03212713658
aF97530.36618708263
aF74319.6092114445
asS'Bacteria.Firmicutes.Clostridia.Christensenellales'
p87
(lp88
F41541.177692387566
aF29807.69230769231
aF3720.17792155277
aF3859.1905909257976
aF0.0
aF13872.748402091807
aF21437.146287086263
aF1568.7329120164945
aF0.0
asS'Bacteria.Bacteroidota.Bacteroidia.Bacteroidales'
p89
(lp90
F1973.2059403884095
aF210576.9230769231
aF32915.4872624343
aF20847.796790133543
aF569616.9772256728
aF89137.85589773387
aF510718.57314354327
aF115638.0260857873
aF90369.85345429168
asS'Bacteria.Cyanobacteria.Cyanobacteriia'
p91
(lp92
F0.0
aF0.0
aF0.0
aF0.0
aF0.0
aF0.0
aF457.3257874578403
aF0.0
aF0.0
asS'Bacteria.Actinobacteriota.Coriobacteriia'
p93
(lp94
F14020.147471180804
aF14940.828402366864
aF18924.38334007279
aF19193.857965451058
aF3364.3892339544514
aF21807.815223707148
aF7831.704110215516
aF22634.57487338085
aF23377.529658060008
asS'Bacteria.Firmicutes.Bacilli.Lactobacillales'
p95
(lp96
F33648.35393083393
aF16272.189349112426
aF1779.2155276991512
aF6268.632335524972
aF0.0
aF7299.535153980244
aF14520.093751786431
aF6185.289767379321
aF0.0
asS'Bacteria.Verrucomicrobiota.Verrucomicrobiae.Verrucomicrobiales'
p97
(lp98
F0.0
aF887.5739644970414
aF21188.839466235346
aF24400.702413525545
aF10093.167701863355
aF1071.3248111563046
aF914.6515749156806
aF55533.145085383905
aF142009.76971388693
asS'Bacteria.Cyanobacteria'
p99
(lp100
F519.2647211548447
aF0.0
aF0.0
aF0.0
aF0.0
aF1325.5374782103427
aF457.3257874578403
aF0.0
aF0.0
asS'Bacteria.Chloroflexi.Anaerolineae'
p101
(lp102
F0.0
aF0.0
aF0.0
aF0.0
aF0.0
aF0.0
aF457.3257874578403
aF0.0
aF0.0
asS'Bacteria.Proteobacteria.Alphaproteobacteria.Caulobacterales'
p103
(lp104
F0.0
aF961.5384615384615
aF0.0
aF632.9889329031732
aF0.0
aF0.0
aF0.0
aF0.0
aF0.0
asS'Bacteria.Proteobacteria'
p105
(lp106
F22847.647730813165
aF129068.04733727808
aF35988.67771936919
aF25339.97631396251
aF31832.298136645968
aF12692.4753050552
aF31784.142228319903
aF29492.1787459101
aF63503.140265177935
asS'Bacteria.Bacteroidota.Bacteroidia'
p107
(lp108
F1973.2059403884095
aF210576.9230769231
aF32915.4872624343
aF22093.3556581043
aF569616.9772256728
aF89392.06856478791
aF511576.05899502675
aF115638.0260857873
aF90369.85345429168
asS'Bacteria.Firmicutes.Clostridia.Lachnospirales'
p109
(lp110
F51926.47211548447
aF99778.10650887573
aF136352.60816821674
aF10413.688896148979
aF86956.52173913043
aF292108.5124927368
aF37958.04035900075
aF289408.8117968716
aF250523.37752965803
asS'Bacteria.Desulfobacterota.Desulfovibrionia'
p111
(lp112
F1869.3529961574407
aF4585.798816568047
aF0.0
aF0.0
aF0.0
aF12038.785589773388
aF14462.928028354201
aF0.0
aF0.0
asS'Bacteria.Campylobacterota.Campylobacteria.Campylobacterales'
p113
(lp114
F0.0
aF0.0
aF0.0
aF0.0
aF0.0
aF2306.0720511330624
aF0.0
aF0.0
aF0.0
asS'Bacteria.Desulfobacterota'
p115
(lp116
F1869.3529961574407
aF4585.798816568047
aF0.0
aF0.0
aF0.0
aF12038.785589773388
aF14462.928028354201
aF0.0
aF0.0
asS'Bacteria.Patescibacteria.Saccharimonadia'
p117
(lp118
F3738.7059923148813
aF15088.757396449704
aF32511.120097048122
aF551.3129415608282
aF12681.159420289856
aF2415.020337013364
aF28468.53026925056
aF851.5978665232398
aF0.0
asS'Bacteria.Campylobacterota'
p119
(lp120
F0.0
aF0.0
aF0.0
aF0.0
aF0.0
aF2306.0720511330624
aF0.0
aF0.0
aF0.0
asS'Bacteria.Actinobacteriota.Coriobacteriia.Coriobacteriales'
p121
(lp122
F14020.147471180804
aF14940.828402366864
aF18924.38334007279
aF19193.857965451058
aF3364.3892339544514
aF21807.815223707148
aF7831.704110215516
aF22634.57487338085
aF23377.529658060008
asS'Bacteria.Proteobacteria.Alphaproteobacteria.Rhodobacterales'
p123
(lp124
F0.0
aF0.0
aF0.0
aF0.0
aF0.0
aF0.0
aF1257.645915509061
aF0.0
aF0.0
asS'Bacteria.Firmicutes.Bacilli.Exiguobacterales'
p125
(lp126
F0.0
aF0.0
aF0.0
aF0.0
aF0.0
aF0.0
aF0.0
aF717.1350454932547
aF0.0
asS'Bacteria.Firmicutes.Clostridia.Eubacteriales'
p127
(lp128
F0.0
aF0.0
aF404.36716538617065
aF0.0
aF0.0
aF0.0
aF0.0
aF1703.1957330464795
aF0.0
asS'Bacteria.Cyanobacteria.Cyanobacteriia.Chloroplast'
p129
(lp130
F0.0
aF0.0
aF0.0
aF0.0
aF0.0
aF0.0
aF457.3257874578403
aF0.0
aF0.0
asS'Bacteria.Bacteroidota.Bacteroidia.Flavobacteriales'
p131
(lp132
F0.0
aF0.0
aF0.0
aF1245.5588679707603
aF0.0
aF254.21266705403832
aF0.0
aF0.0
aF0.0
asS'Bacteria.Proteobacteria.Gammaproteobacteria.Enterobacterales'
p133
(lp134
F15577.94163464534
aF9615.384615384615
aF29195.309340881522
aF6656.593294401112
aF18633.540372670806
aF5774.259151656013
aF21551.477733950724
aF12998.07269956524
aF30006.9783670621
asS'Bacteria.Gemmatimonadota'
p135
(lp136
F0.0
aF0.0
aF0.0
aF0.0
aF2846.790890269151
aF0.0
aF0.0
aF0.0
aF0.0
asS'Bacteria.Firmicutes.Clostridia.Monoglobales'
p137
(lp138
F2284.764773081316
aF0.0
aF79094.217549535
aF1960.223792216278
aF26397.515527950312
aF11566.676350958744
aF14405.762304921971
aF30343.776612433336
aF7327.285415212838
asS'Bacteria'
p139
(lp140
F1000000.0
aF1000000.0
aF1000000.0
aF1000000.0
aF1000000.0
aF1000000.0
aF1000000.0
aF1000000.0
aF1000000.0
asS'Bacteria.Cyanobacteria.Vampirivibrionia'
p141
(lp142
F519.2647211548447
aF0.0
aF0.0
aF0.0
aF0.0
aF1325.5374782103427
aF0.0
aF0.0
aF0.0
asS'Bacteria.Cyanobacteria.Vampirivibrionia.Gastranaerophilales'
p143
(lp144
F519.2647211548447
aF0.0
aF0.0
aF0.0
aF0.0
aF1325.5374782103427
aF0.0
aF0.0
aF0.0
asS'Bacteria.Verrucomicrobiota.Verrucomicrobiae'
p145
(lp146
F0.0
aF887.5739644970414
aF21188.839466235346
aF24400.702413525545
aF10093.167701863355
aF1071.3248111563046
aF914.6515749156806
aF55533.145085383905
aF142009.76971388693
asS'Bacteria.Actinobacteriota.Actinobacteria.Pseudonocardiales'
p147
(lp148
F0.0
aF0.0
aF0.0
aF0.0
aF0.0
aF0.0
aF0.0
aF32136.614226166475
aF5233.7752965805985
asS'Bacteria.Firmicutes.Clostridia.uncultured'
p149
(lp150
F0.0
aF0.0
aF0.0
aF0.0
aF0.0
aF599.2155723416619
aF0.0
aF717.1350454932547
aF0.0
asS'Bacteria.Firmicutes.Bacilli.Erysipelotrichales'
p151
(lp152
F132412.5038944854
aF72411.24260355029
aF38980.99474322686
aF89373.95352636094
aF5434.782608695652
aF18085.41545613016
aF49905.676556336824
aF29626.64156694008
aF71179.34403349613
asS'Bacteria.Acidobacteriota.Acidobacteriae.Bryobacterales'
p153
(lp154
F0.0
aF0.0
aF0.0
aF0.0
aF0.0
aF0.0
aF685.9886811867605
aF0.0
aF0.0
assS'subclass_sl'
p155
(dp156
g12
(I0
I5
tp157
sg10
(I5
I9
tp158
ssS'norm'
p159
F1000000.0
sS'cls'
p160
(dp161
S'class'
p162
(S'HSD-NC'
p163
S'HSD-NC'
p164
S'HSD-NC'
p165
S'HSD-NC'
p166
g5
S'HSD-NR'
p167
S'HSD-NR'
p168
S'HSD-NR'
p169
g3
tp170
sS'subclass'
p171
(lp172
S'HSD-NC_subcl'
p173
aS'HSD-NC_subcl'
p174
aS'HSD-NC_subcl'
p175
aS'HSD-NC_subcl'
p176
ag12
aS'HSD-NR_subcl'
p177
aS'HSD-NR_subcl'
p178
aS'HSD-NR_subcl'
p179
ag10
asS'subject'
p180
(S'S210421121698'
p181
S'S210421121699'
p182
S'S210421121700'
p183
S'S210421121701'
p184
S'S210421121702'
p185
S'S210421121707'
p186
S'S210421121708'
p187
S'S210421121709'
p188
S'S210421121710'
p189
tp190
ss.