(dp0
S'class_sl'
p1
(dp2
S'HSD-NR'
p3
(I5
I9
tp4
sS'HSD-NC'
p5
(I0
I5
tp6
ssS'class_hierarchy'
p7
(dp8
g3
(lp9
S'HSD-NR_subcl'
p10
asg5
(lp11
S'HSD-NC_subcl'
p12
assS'feats'
p13
(dp14
S'Bacteria.Firmicutes.Bacilli.Acholeplasmatales'
p15
(lp16
F0.0
aF295.8579881656805
aF0.0
aF61.25699350675867
aF0.0
aF254.21266705403832
aF0.0
aF0.0
aF0.0
asS'Bacteria.Firmicutes.Bacilli.Lactobacillales.Streptococcaceae'
p17
(lp18
F4050.264825007789
aF4215.976331360947
aF0.0
aF2225.6707640788986
aF0.0
aF998.6926205694364
aF0.0
aF627.4931648065977
aF0.0
asS'Bacteria.Firmicutes.Bacilli.Lactobacillales.Streptococcaceae.Streptococcus'
p19
(lp20
F4050.264825007789
aF4215.976331360947
aF0.0
aF2225.6707640788986
aF0.0
aF998.6926205694364
aF0.0
aF627.4931648065977
aF0.0
asS'Bacteria.Firmicutes.Clostridia.Oscillospirales.Ruminococcaceae.uncultured.uncultured_bacterium'
p21
(lp22
F0.0
aF0.0
aF0.0
aF245.02797402703467
aF0.0
aF1725.0145264381174
aF1143.3144686446
aF0.0
aF0.0
asS'Bacteria.Firmicutes.Clostridia.Clostridiales.Clostridiaceae.Candidatus_Arthromitus'
p23
(lp24
F0.0
aF0.0
aF0.0
aF0.0
aF0.0
aF599.2155723416619
aF0.0
aF0.0
aF0.0
asS'Bacteria.Acidobacteriota.Acidobacteriae.Bryobacterales'
p25
(lp26
F0.0
aF0.0
aF0.0
aF0.0
aF0.0
aF0.0
aF685.9886811867601
aF0.0
aF0.0
asS'Bacteria.Bacteroidota.Bacteroidia.Bacteroidales.Prevotellaceae.Prevotella_9'
p27
(lp28
F0.0
aF0.0
aF0.0
aF0.0
aF0.0
aF599.2155723416619
aF0.0
aF0.0
aF0.0
asS'Bacteria.Firmicutes.Clostridia.Lachnospirales.Lachnospiraceae.Lachnospiraceae_UCG_001'
p29
(lp30
F1557.7941634645342
aF0.0
aF0.0
aF0.0
aF0.0
aF0.0
aF0.0
aF0.0
aF0.0
asS'Bacteria.Actinobacteriota.Actinobacteria.Bifidobacteriales.Bifidobacteriaceae.Bifidobacterium.Bifidobacterium_animalis'
p31
(lp32
F7685.117873091703
aF10355.029585798819
aF4609.785685402344
aF163.3519826846898
aF0.0
aF0.0
aF0.0
aF49168.571556631265
aF5582.693649685972
asS'Bacteria.Verrucomicrobiota.Verrucomicrobiae.Verrucomicrobiales.Akkermansiaceae.Akkermansia'
p33
(lp34
F0.0
aF887.5739644970415
aF21188.83946623534
aF24400.702413525538
aF10093.16770186335
aF1071.3248111563046
aF914.6515749156802
aF55533.1450853839
aF142009.76971388693
asS'Bacteria.Firmicutes.Bacilli.Exiguobacterales.Exiguobacteraceae.Exiguobacterium'
p35
(lp36
F0.0
aF0.0
aF0.0
aF0.0
aF0.0
aF0.0
aF0.0
aF717.1350454932546
aF0.0
asS'Bacteria.Firmicutes.Clostridia.Oscillospirales.Ruminococcaceae.Negativibacillus.uncultured_bacterium'
p37
(lp38
F0.0
aF0.0
aF0.0
aF0.0
aF0.0
aF671.84776292853
aF0.0
aF0.0
aF0.0
asS'Bacteria.Firmicutes.Bacilli.Lactobacillales.Lactobacillaceae.Lactobacillus'
p39
(lp40
F5815.764876934261
aF0.0
aF0.0
aF0.0
aF0.0
aF0.0
aF800.3201280512202
aF1254.9863296131955
aF0.0
asS'Bacteria.Desulfobacterota.Desulfovibrionia'
p41
(lp42
F1869.352996157441
aF4585.798816568047
aF0.0
aF0.0
aF0.0
aF12038.785589773388
aF14462.928028354192
aF0.0
aF0.0
asS'Bacteria.Firmicutes.Bacilli.Erysipelotrichales.Erysipelotrichaceae.Faecalibaculum'
p43
(lp44
F0.0
aF0.0
aF0.0
aF1735.614816024829
aF0.0
aF635.5316676350959
aF0.0
aF0.0
aF0.0
asS'Bacteria.Firmicutes.Clostridia.Clostridiales.Clostridiaceae.Candidatus_Arthromitus.uncultured_bacterium'
p45
(lp46
F0.0
aF0.0
aF0.0
aF0.0
aF0.0
aF599.2155723416619
aF0.0
aF0.0
aF0.0
asS'Bacteria.Cyanobacteria.Vampirivibrionia'
p47
(lp48
F519.2647211548448
aF0.0
aF0.0
aF0.0
aF0.0
aF1325.5374782103427
aF0.0
aF0.0
aF0.0
asS'Bacteria.Firmicutes.Clostridia.Lachnospirales.Lachnospiraceae.Anaerostipes.Anaerostipes_sp_'
p49
(lp50
F0.0
aF0.0
aF0.0
aF0.0
aF0.0
aF3050.5520046484603
aF0.0
aF0.0
aF0.0
asS'Bacteria.Bacteroidota.Bacteroidia.Bacteroidales.Muribaculaceae.Muribaculaceae'
p51
(lp52
F0.0
aF24408.284023668642
aF0.0
aF2736.145709968554
aF8540.372670807452
aF5084.253341080767
aF25267.24975704566
aF0.0
aF0.0
asS'Bacteria.Firmicutes.Clostridia.Lachnospirales.Lachnospiraceae.Frisingicoccus'
p53
(lp54
F0.0
aF7174.556213017752
aF1213.1014961585117
aF0.0
aF0.0
aF0.0
aF0.0
aF0.0
aF0.0
asS'Bacteria.Firmicutes.Clostridia.Clostridia_UCG_014.Clostridia_UCG_014.Clostridia_UCG_014.uncultured_Acetivibrio'
p55
(lp56
F0.0
aF0.0
aF0.0
aF0.0
aF0.0
aF0.0
aF0.0
aF0.0
aF24424.28471737613
asS'Bacteria.Firmicutes.Clostridia.Oscillospirales.Ruminococcaceae.CAG_352'
p57
(lp58
F0.0
aF0.0
aF1617.4686615446822
aF1020.9498917793111
aF10610.766045548651
aF0.0
aF3772.9377465271805
aF8336.694903859085
aF4187.020237264479
asS'Bacteria.Proteobacteria.Gammaproteobacteria.Pseudomonadales.Moraxellaceae.Acinetobacter'
p59
(lp60
F0.0
aF0.0
aF0.0
aF2736.145709968554
aF0.0
aF0.0
aF0.0
aF0.0
aF0.0
asS'Bacteria.Firmicutes.Clostridia.Clostridia_vadinBB60_group'
p61
(lp62
F0.0
aF0.0
aF566.1140315406387
aF0.0
aF0.0
aF562.8994770482277
aF0.0
aF0.0
aF0.0
asS'Bacteria.Firmicutes.Clostridia.Oscillospirales.Oscillospiraceae.Oscillospira.uncultured_bacterium'
p63
(lp64
F0.0
aF5103.550295857989
aF0.0
aF0.0
aF0.0
aF0.0
aF0.0
aF0.0
aF0.0
asS'Bacteria.Firmicutes.Clostridia.Oscillospirales.Oscillospiraceae.Colidextribacter'
p65
(lp66
F0.0
aF0.0
aF0.0
aF0.0
aF0.0
aF2160.807669959326
aF857.4858514834501
aF0.0
aF0.0
asS'Bacteria.Bacteroidota.Bacteroidia.Bacteroidales.Tannerellaceae'
p67
(lp68
F0.0
aF1109.467455621302
aF0.0
aF0.0
aF0.0
aF217.8965717606043
aF0.0
aF5423.333781542738
aF0.0
asS'Bacteria.Bacteroidota.Bacteroidia.Bacteroidales.Muribaculaceae'
p69
(lp70
F1973.20594038841
aF165532.54437869825
aF30408.410837040024
aF19561.399926491606
aF569616.9772256727
aF78951.19116792562
aF465729.1488023779
aF82111.96270897765
aF70481.5073272854
asS'Bacteria.Proteobacteria.Alphaproteobacteria.Rhizobiales'
p71
(lp72
F934.6764980787206
aF6065.088757396451
aF646.9874646178729
aF1286.3968636419322
aF0.0
aF0.0
aF0.0
aF224.10470171664204
aF0.0
asS'Bacteria.Bacteroidota.Bacteroidia.Bacteroidales.Muribaculaceae.Muribaculaceae.uncultured_Bacteroidales'
p73
(lp74
F0.0
aF0.0
aF0.0
aF0.0
aF0.0
aF1380.011621150494
aF4401.760704281711
aF1882.4794944197931
aF0.0
asS'Bacteria.Firmicutes.Clostridia.Lachnospirales.Defluviitaleaceae.Defluviitaleaceae_UCG_011'
p75
(lp76
F0.0
aF0.0
aF0.0
aF0.0
aF0.0
aF1289.2213829169089
aF0.0
aF0.0
aF0.0
asS'Bacteria.Actinobacteriota.Actinobacteria.Corynebacteriales'
p77
(lp78
F5919.6178211652295
aF0.0
aF0.0
aF0.0
aF0.0
aF0.0
aF0.0
aF0.0
aF0.0
asS'Bacteria.Verrucomicrobiota'
p79
(lp80
F0.0
aF887.5739644970415
aF21188.83946623534
aF24400.702413525538
aF10093.16770186335
aF1071.3248111563046
aF914.6515749156802
aF55533.1450853839
aF142009.76971388693
asS'Bacteria.Bacteroidota.Bacteroidia.Bacteroidales.Muribaculaceae.Muribaculaceae.uncultured_Barnesiella'
p81
(lp82
F0.0
aF0.0
aF0.0
aF0.0
aF0.0
aF508.42533410807664
aF0.0
aF0.0
aF0.0
asS'Bacteria.Bacteroidota.Bacteroidia.Bacteroidales'
p83
(lp84
F1973.20594038841
aF210576.9230769231
aF32915.48726243428
aF20847.796790133536
aF569616.9772256727
aF89137.85589773388
aF510718.573143543
aF115638.0260857873
aF90369.85345429168
asS'Bacteria.Cyanobacteria'
p85
(lp86
F519.2647211548448
aF0.0
aF0.0
aF0.0
aF0.0
aF1325.5374782103427
aF457.3257874578401
aF0.0
aF0.0
asS'Bacteria.Cyanobacteria.Cyanobacteriia.Chloroplast.Chloroplast.Chloroplast'
p87
(lp88
F0.0
aF0.0
aF0.0
aF0.0
aF0.0
aF0.0
aF457.3257874578401
aF0.0
aF0.0
asS'Bacteria.Firmicutes.Bacilli.RF39.RF39.RF39.unidentified'
p89
(lp90
F0.0
aF0.0
aF0.0
aF0.0
aF0.0
aF254.21266705403832
aF0.0
aF0.0
aF0.0
asS'Bacteria.Firmicutes.Clostridia.Peptococcales'
p91
(lp92
F0.0
aF0.0
aF0.0
aF81.6759913423449
aF0.0
aF780.796048808832
aF0.0
aF851.5978665232398
aF0.0
asS'Bacteria.Proteobacteria.Gammaproteobacteria.Burkholderiales.Burkholderiaceae.Burkholderia_Caballeronia_Paraburkholderia.Burkholderia_multivorans'
p93
(lp94
F4777.235434624572
aF12869.822485207103
aF1617.4686615446822
aF4165.4755584595905
aF0.0
aF2560.2847181871
aF6116.732407248611
aF3809.7799291829147
aF10118.632240055824
asS'Bacteria.Firmicutes.Bacilli.Staphylococcales.Staphylococcaceae.Jeotgalicoccus'
p95
(lp96
F3946.41188077682
aF0.0
aF0.0
aF0.0
aF0.0
aF345.0029052876235
aF0.0
aF0.0
aF0.0
asS'Bacteria.Firmicutes.Clostridia.Oscillospirales.Ruminococcaceae.UBA1819'
p97
(lp98
F0.0
aF0.0
aF0.0
aF0.0
aF0.0
aF708.163858221964
aF0.0
aF672.314105149926
aF0.0
asS'Bacteria.Proteobacteria.Alphaproteobacteria.Rhodobacterales.Rhodobacteraceae.Rubellimicrobium'
p99
(lp100
F0.0
aF0.0
aF0.0
aF0.0
aF0.0
aF0.0
aF1257.6459155090604
aF0.0
aF0.0
asS'Bacteria.Proteobacteria.Gammaproteobacteria.Burkholderiales.Oxalobacteraceae'
p101
(lp102
F0.0
aF0.0
aF0.0
aF428.7989545473107
aF13198.757763975153
aF0.0
aF0.0
aF0.0
aF0.0
asS'Bacteria.Firmicutes.Clostridia.Oscillospirales._Eubacterium__coprostanoligenes_group._Eubacterium__coprostanoligenes_group.gut_metagenome'
p103
(lp104
F10073.735590403989
aF2736.686390532545
aF0.0
aF1531.4248376689668
aF28726.708074534152
aF24858.367228355608
aF1829.3031498313603
aF0.0
aF0.0
asS'Bacteria.Firmicutes.Clostridia.Clostridia_UCG_014.Clostridia_UCG_014.Clostridia_UCG_014.uncultured_bacterium'
p105
(lp106
F6335.029598089106
aF13461.538461538465
aF94541.04326728667
aF0.0
aF0.0
aF44233.004067402675
aF10346.99594123363
aF33212.316794406346
aF26168.876482902993
asS'Bacteria.Firmicutes.Clostridia.Oscillospirales.UCG_010'
p107
(lp108
F0.0
aF0.0
aF0.0
aF0.0
aF0.0
aF653.6897152818129
aF0.0
aF0.0
aF0.0
asS'Bacteria.Firmicutes.Clostridia.Eubacteriales.Anaerofustaceae'
p109
(lp110
F0.0
aF0.0
aF404.36716538617054
aF0.0
aF0.0
aF0.0
aF0.0
aF1703.1957330464795
aF0.0
asS'Bacteria.Proteobacteria.Gammaproteobacteria.Pseudomonadales.Pseudomonadaceae'
p111
(lp112
F0.0
aF27884.61538461539
aF970.4811969268093
aF2674.8887164617954
aF0.0
aF1634.224288204532
aF0.0
aF2106.5841961364354
aF15003.48918353105
asS'Bacteria.Firmicutes.Clostridia.Eubacteriales.Anaerofustaceae.Anaerofustis.Anaerofustis_stercorihominis'
p113
(lp114
F0.0
aF0.0
aF404.36716538617054
aF0.0
aF0.0
aF0.0
aF0.0
aF1703.1957330464795
aF0.0
asS'Bacteria.Proteobacteria.Gammaproteobacteria.Pseudomonadales.Pseudomonadaceae.Pseudomonas'
p115
(lp116
F0.0
aF27884.61538461539
aF970.4811969268093
aF2674.8887164617954
aF0.0
aF1634.224288204532
aF0.0
aF2106.5841961364354
aF15003.48918353105
asS'Bacteria.Firmicutes.Clostridia.uncultured.uncultured.uncultured.uncultured_bacterium'
p117
(lp118
F0.0
aF0.0
aF0.0
aF0.0
aF0.0
aF599.2155723416619
aF0.0
aF717.1350454932546
aF0.0
asS'Bacteria.Actinobacteriota.Actinobacteria.Micrococcales.Micrococcaceae'
p119
(lp120
F0.0
aF0.0
aF0.0
aF0.0
aF0.0
aF417.6350958744916
aF0.0
aF0.0
aF0.0
asS'Bacteria.Firmicutes.Clostridia.Lachnospirales.Defluviitaleaceae.Defluviitaleaceae_UCG_011.uncultured_organism'
p121
(lp122
F0.0
aF0.0
aF0.0
aF0.0
aF0.0
aF1143.9570017431727
aF0.0
aF0.0
aF0.0
asS'Bacteria.Actinobacteriota'
p123
(lp124
F27624.883165437743
aF25295.85798816568
aF23534.169025475123
aF19357.20994813574
aF3364.389233954451
aF22443.346891342244
aF21722.974904247403
aF103939.7606561786
aF37683.1821353803
asS'Bacteria.Firmicutes.Clostridia.Lachnospirales.Lachnospiraceae.Blautia.uncultured_bacterium'
p125
(lp126
F0.0
aF0.0
aF3396.6841892438324
aF0.0
aF0.0
aF0.0
aF0.0
aF1748.016673389808
aF0.0
asS'Bacteria.Proteobacteria.Gammaproteobacteria.Burkholderiales'
p127
(lp128
F6335.029598089106
aF84541.42011834322
aF5175.899716942983
aF11352.962796585942
aF13198.757763975153
aF5283.991865194654
aF8975.018578860112
aF13491.103043341851
aF18492.672714584784
asS'Bacteria.Firmicutes.Clostridia.Oscillospirales.Ruminococcaceae.Ruminococcus'
p129
(lp130
F2284.764773081317
aF2736.686390532545
aF4933.279417711281
aF12945.644627761667
aF0.0
aF11185.357350377686
aF6116.732407248611
aF10084.711577248892
aF4535.938590369852
asS'Bacteria.Firmicutes.Clostridia.Oscillospirales.Ruminococcaceae.CAG_352.uncultured_bacterium'
p131
(lp132
F0.0
aF0.0
aF1617.4686615446822
aF1020.9498917793111
aF10610.766045548651
aF0.0
aF3772.9377465271805
aF8336.694903859085
aF4187.020237264479
asS'Bacteria.Bacteroidota.Bacteroidia.Bacteroidales.Bacteroidaceae.Bacteroides.uncultured_bacterium'
p133
(lp134
F0.0
aF6434.911242603552
aF0.0
aF0.0
aF0.0
aF0.0
aF7260.046875893211
aF0.0
aF0.0
asS'Bacteria.Firmicutes.Clostridia.Christensenellales'
p135
(lp136
F41541.17769238757
aF29807.692307692312
aF3720.177921552769
aF3859.190590925796
aF0.0
aF13872.748402091807
aF21437.146287086252
aF1568.7329120164943
aF0.0
asS'Bacteria.Patescibacteria.Saccharimonadia.Saccharimonadales.Saccharimonadaceae.Candidatus_Saccharimonas.uncultured_bacterium'
p137
(lp138
F3738.705992314882
aF15088.757396449706
aF32511.120097048108
aF551.3129415608281
aF12681.159420289852
aF2306.0720511330624
aF28468.530269250547
aF851.5978665232398
aF0.0
asS'Bacteria.Firmicutes.Clostridia.Lachnospirales.Lachnospiraceae.Fusicatenibacter.uncultured_organism'
p139
(lp140
F0.0
aF0.0
aF0.0
aF0.0
aF0.0
aF15561.44683323649
aF0.0
aF16807.852628748155
aF0.0
asS'Bacteria.Firmicutes.Clostridia.Lachnospirales.Lachnospiraceae.Lachnospiraceae_NK4A136_group.Clostridiales_bacterium'
p141
(lp142
F0.0
aF0.0
aF0.0
aF1245.5588679707598
aF0.0
aF0.0
aF0.0
aF0.0
aF0.0
asS'Bacteria.Acidobacteriota.Acidobacteriae.Bryobacterales.Bryobacteraceae'
p143
(lp144
F0.0
aF0.0
aF0.0
aF0.0
aF0.0
aF0.0
aF685.9886811867601
aF0.0
aF0.0
asS'Bacteria.Cyanobacteria.Vampirivibrionia.Gastranaerophilales.Gastranaerophilales'
p145
(lp146
F519.2647211548448
aF0.0
aF0.0
aF0.0
aF0.0
aF1325.5374782103427
aF0.0
aF0.0
aF0.0
asS'Bacteria.Actinobacteriota.Actinobacteria.Streptomycetales.Streptomycetaceae.Streptomyces'
p147
(lp148
F0.0
aF0.0
aF0.0
aF0.0
aF0.0
aF0.0
aF0.0
aF0.0
aF3489.1835310537326
asS'Bacteria.Bacteroidota.Bacteroidia.Bacteroidales.Prevotellaceae'
p149
(lp150
F0.0
aF10059.171597633138
aF2507.0764253942575
aF898.4359047657939
aF0.0
aF6736.635676932016
aF13548.276453438511
aF19631.571870377844
aF17096.999302163287
asS'Bacteria.Firmicutes.Clostridia.Oscillospirales.Ruminococcaceae.Incertae_Sedis'
p151
(lp152
F0.0
aF0.0
aF0.0
aF530.8939437252419
aF19151.138716356105
aF1016.8506682161533
aF0.0
aF0.0
aF0.0
asS'Bacteria.Proteobacteria.Gammaproteobacteria.Burkholderiales.Burkholderiaceae'
p153
(lp154
F4777.235434624572
aF12869.822485207103
aF1617.4686615446822
aF4165.4755584595905
aF0.0
aF2560.2847181871
aF6116.732407248611
aF3809.7799291829147
aF10118.632240055824
asS'Bacteria.Firmicutes.Clostridia.Lachnospirales.Lachnospiraceae.Lachnospira'
p155
(lp156
F0.0
aF1701.1834319526629
aF0.0
aF0.0
aF0.0
aF0.0
aF0.0
aF0.0
aF0.0
asS'Bacteria.Proteobacteria.Gammaproteobacteria.Pseudomonadales'
p157
(lp158
F0.0
aF27884.61538461539
aF970.4811969268093
aF5411.034426430349
aF0.0
aF1634.224288204532
aF0.0
aF2778.8983012863614
aF15003.48918353105
asS'Bacteria.Firmicutes.Clostridia.Lachnospirales.Lachnospiraceae.Eisenbergiella'
p159
(lp160
F0.0
aF0.0
aF0.0
aF0.0
aF0.0
aF508.42533410807664
aF0.0
aF0.0
aF0.0
asS'Bacteria.Campylobacterota.Campylobacteria'
p161
(lp162
F0.0
aF0.0
aF0.0
aF0.0
aF0.0
aF2306.0720511330624
aF0.0
aF0.0
aF0.0
asS'Bacteria.Desulfobacterota.Desulfovibrionia.Desulfovibrionales.Desulfovibrionaceae'
p163
(lp164
F1869.352996157441
aF4585.798816568047
aF0.0
aF0.0
aF0.0
aF12038.785589773388
aF14462.928028354192
aF0.0
aF0.0
asS'Bacteria.Campylobacterota.Campylobacteria.Campylobacterales.Helicobacteraceae.Helicobacter'
p165
(lp166
F0.0
aF0.0
aF0.0
aF0.0
aF0.0
aF2306.0720511330624
aF0.0
aF0.0
aF0.0
asS'Bacteria.Firmicutes.Clostridia.Oscillospirales.Butyricicoccaceae.UCG_008'
p167
(lp168
F0.0
aF8505.917159763314
aF4205.418520016174
aF0.0
aF0.0
aF8497.966298663567
aF0.0
aF7216.171395275874
aF3489.1835310537326
asS'Bacteria.Firmicutes.Clostridia.Oscillospirales.Butyricicoccaceae.UCG_009'
p169
(lp170
F0.0
aF0.0
aF0.0
aF0.0
aF0.0
aF1107.6409064497384
aF0.0
aF0.0
aF0.0
asS'Bacteria.Actinobacteriota.Actinobacteria.Corynebacteriales.Corynebacteriaceae.Corynebacterium'
p171
(lp172
F5919.6178211652295
aF0.0
aF0.0
aF0.0
aF0.0
aF0.0
aF0.0
aF0.0
aF0.0
asS'Bacteria.Firmicutes.Clostridia.Monoglobales.Monoglobaceae.Monoglobus.uncultured_rumen'
p173
(lp174
F0.0
aF0.0
aF10917.913465426604
aF0.0
aF0.0
aF581.0575246949447
aF0.0
aF358.5675227466273
aF0.0
asS'Bacteria.Firmicutes.Clostridia.Oscillospirales.Oscillospiraceae.Colidextribacter.uncultured_bacterium'
p175
(lp176
F0.0
aF0.0
aF0.0
aF0.0
aF0.0
aF7136.112725159791
aF4801.92076830732
aF0.0
aF0.0
asS'Bacteria.Actinobacteriota.Actinobacteria.Micrococcales.Dermabacteraceae'
p177
(lp178
F0.0
aF0.0
aF0.0
aF0.0
aF0.0
aF217.8965717606043
aF0.0
aF0.0
aF0.0
asS'Bacteria.Firmicutes.Clostridia.Lachnospirales.Lachnospiraceae.Lachnospiraceae_NK4A136_group.uncultured_bacterium'
p179
(lp180
F0.0
aF2662.721893491125
aF12292.761827739585
aF1898.9667987095188
aF0.0
aF2887.1295758280066
aF6231.063854113071
aF5333.69190085608
aF0.0
asS'Bacteria.Verrucomicrobiota.Verrucomicrobiae.Verrucomicrobiales'
p181
(lp182
F0.0
aF887.5739644970415
aF21188.83946623534
aF24400.702413525538
aF10093.16770186335
aF1071.3248111563046
aF914.6515749156802
aF55533.1450853839
aF142009.76971388693
asS'Bacteria.Actinobacteriota.Actinobacteria.Micrococcales.Dermabacteraceae.Brachybacterium'
p183
(lp184
F0.0
aF0.0
aF0.0
aF0.0
aF0.0
aF217.8965717606043
aF0.0
aF0.0
aF0.0
asS'Bacteria.Firmicutes.Clostridia.Lachnospirales.Lachnospiraceae.Lachnospiraceae_UCG_001.uncultured_bacterium'
p185
(lp186
F1557.7941634645342
aF0.0
aF0.0
aF0.0
aF0.0
aF0.0
aF0.0
aF0.0
aF0.0
asS'Bacteria.Firmicutes.Clostridia.Lachnospirales.Lachnospiraceae.Blautia'
p187
(lp188
F3323.294215391006
aF54955.62130177516
aF14961.58511928831
aF0.0
aF0.0
aF43851.685066821614
aF1086.1487452123702
aF71892.78831069877
aF50942.079553384494
asS'Bacteria.Firmicutes.Clostridia.Oscillospirales.Oscillospiraceae.NK4A214_group.unidentified'
p189
(lp190
F0.0
aF0.0
aF808.7343307723411
aF0.0
aF0.0
aF2868.97152818129
aF2000.8003201280503
aF0.0
aF0.0
asS'Bacteria.Firmicutes.Clostridia.Monoglobales.Monoglobaceae.Monoglobus.uncultured_Clostridium'
p191
(lp192
F0.0
aF0.0
aF58228.87181560856
aF0.0
aF22515.527950310556
aF10204.822777454967
aF13891.270794031892
aF29985.209089686705
aF7327.285415212838
asS'Bacteria.Actinobacteriota.Coriobacteriia.Coriobacteriales.uncultured'
p193
(lp194
F5296.500155779417
aF5917.15976331361
aF7925.596441568943
aF3900.0285865969686
aF3364.389233954451
aF7245.061011040093
aF2400.96038415366
aF3182.286764376317
aF0.0
asS'Bacteria.Firmicutes.Clostridia.Oscillospirales.Oscillospiraceae.UCG_005'
p195
(lp196
F4154.117769238758
aF0.0
aF23453.29559239789
aF0.0
aF0.0
aF889.7443346891342
aF2686.7890013148103
aF0.0
aF0.0
asS'Bacteria.Firmicutes.Bacilli.Lactobacillales.Lactobacillaceae.Ligilactobacillus'
p197
(lp198
F0.0
aF9319.526627218936
aF0.0
aF837.1789112590352
aF0.0
aF1979.2271934921555
aF0.0
aF0.0
aF0.0
asS'Bacteria.Firmicutes.Clostridia.Clostridia_UCG_014.Clostridia_UCG_014.Clostridia_UCG_014.uncultured_Clostridiales'
p199
(lp200
F0.0
aF0.0
aF0.0
aF449.21795238289695
aF0.0
aF1616.0662405578153
aF0.0
aF0.0
aF0.0
asS'Bacteria.Firmicutes.Clostridia.Oscillospirales.UCG_010.UCG_010.metagenome'
p201
(lp202
F0.0
aF0.0
aF0.0
aF0.0
aF0.0
aF326.84485764090647
aF0.0
aF0.0
aF0.0
asS'Bacteria.Firmicutes.Clostridia.Peptostreptococcales_Tissierellales.Anaerovoracaceae'
p203
(lp204
F0.0
aF0.0
aF0.0
aF0.0
aF0.0
aF272.37071470075534
aF0.0
aF0.0
aF0.0
asS'Bacteria.Actinobacteriota.Actinobacteria.Streptomycetales'
p205
(lp206
F0.0
aF0.0
aF0.0
aF0.0
aF0.0
aF0.0
aF0.0
aF0.0
aF3489.1835310537326
asS'Bacteria.Firmicutes.Bacilli.RF39'
p207
(lp208
F4257.970713469726
aF26775.147928994087
aF12211.88839466235
aF2082.737779229795
aF2846.79089026915
aF3450.029052876235
aF14062.767964328581
aF1120.5235085832103
aF0.0
asS'Bacteria.Firmicutes.Clostridia.Oscillospirales.Oscillospiraceae.uncultured.uncultured_Clostridiales'
p209
(lp210
F0.0
aF4437.869822485208
aF0.0
aF0.0
aF0.0
aF0.0
aF5087.749385468471
aF0.0
aF0.0
asS'Bacteria.Firmicutes.Clostridia.Lachnospirales.Lachnospiraceae.Sellimonas'
p211
(lp212
F0.0
aF0.0
aF0.0
aF0.0
aF0.0
aF0.0
aF0.0
aF672.314105149926
aF0.0
asS'Bacteria.Bacteroidota.Bacteroidia.Chitinophagales.Chitinophagaceae'
p213
(lp214
F0.0
aF0.0
aF0.0
aF0.0
aF0.0
aF0.0
aF857.4858514834501
aF0.0
aF0.0
asS'Bacteria.Firmicutes.Clostridia.Peptostreptococcales_Tissierellales.Peptostreptococcaceae.Romboutsia'
p215
(lp216
F168241.7696541697
aF23668.63905325444
aF17873.02871006874
aF56111.40605219094
aF8281.573498964803
aF25294.160371876816
aF0.0
aF5109.587199139439
aF5233.7752965805985
asS'Bacteria.Firmicutes.Bacilli.Lactobacillales.Aerococcaceae'
p217
(lp218
F1246.2353307716273
aF813.6094674556214
aF0.0
aF0.0
aF0.0
aF272.37071470075534
aF0.0
aF0.0
aF0.0
asS'Bacteria.Firmicutes.Clostridia.Lachnospirales.Lachnospiraceae.Roseburia'
p219
(lp220
F0.0
aF0.0
aF0.0
aF0.0
aF0.0
aF907.9023823358513
aF0.0
aF0.0
aF0.0
asS'Bacteria.Firmicutes.Clostridia.Lachnospirales.Lachnospiraceae.Coprococcus.metagenome'
p221
(lp222
F0.0
aF0.0
aF0.0
aF0.0
aF0.0
aF0.0
aF0.0
aF1703.1957330464795
aF0.0
asS'Bacteria.Firmicutes.Clostridia.Lachnospirales.Lachnospiraceae.Roseburia.uncultured_bacterium'
p223
(lp224
F2077.058884619379
aF0.0
aF0.0
aF0.0
aF0.0
aF5193.2016269610685
aF0.0
aF358.5675227466273
aF0.0
asS'Bacteria.Proteobacteria'
p225
(lp226
F22847.64773081317
aF129068.04733727813
aF35988.67771936918
aF25339.976313962503
aF31832.29813664596
aF12692.475305055199
aF31784.142228319884
aF29492.178745910096
aF63503.140265177935
asS'Bacteria.Bacteroidota.Bacteroidia'
p227
(lp228
F1973.20594038841
aF210576.9230769231
aF32915.48726243428
aF22093.355658104294
aF569616.9772256727
aF89392.06856478793
aF511576.05899502634
aF115638.0260857873
aF90369.85345429168
asS'Bacteria.Firmicutes.Clostridia.Clostridia_vadinBB60_group.Clostridia_vadinBB60_group.Clostridia_vadinBB60_group.unidentified'
p229
(lp230
F0.0
aF0.0
aF0.0
aF0.0
aF0.0
aF308.6868099941894
aF0.0
aF0.0
aF0.0
asS'Bacteria.Proteobacteria.Alphaproteobacteria.Rhizobiales.Rhizobiaceae'
p231
(lp232
F934.6764980787206
aF6065.088757396451
aF646.9874646178729
aF1286.3968636419322
aF0.0
aF0.0
aF0.0
aF224.10470171664204
aF0.0
asS'Bacteria.Proteobacteria.Alphaproteobacteria.Rhodobacterales'
p233
(lp234
F0.0
aF0.0
aF0.0
aF0.0
aF0.0
aF0.0
aF1257.6459155090604
aF0.0
aF0.0
asS'Bacteria.Firmicutes.Bacilli.RF39.RF39.RF39.gut_metagenome'
p235
(lp236
F0.0
aF591.715976331361
aF0.0
aF0.0
aF0.0
aF0.0
aF0.0
aF0.0
aF0.0
asS'Bacteria.Firmicutes.Bacilli.Erysipelotrichales.Erysipelotrichaceae.Dubosiella.uncultured_bacterium'
p237
(lp238
F18485.82407311247
aF17085.79881656805
aF14152.850788515969
aF2327.7657532568296
aF0.0
aF2487.6525276002326
aF24066.769564968832
aF7081.7085742458885
aF11514.305652477318
asS'Bacteria.Firmicutes.Clostridia.Oscillospirales.Oscillospiraceae.NK4A214_group.uncultured_rumen'
p239
(lp240
F0.0
aF0.0
aF6389.0012131014955
aF0.0
aF0.0
aF0.0
aF1200.48019207683
aF1748.016673389808
aF0.0
asS'Bacteria.Firmicutes.Clostridia.Oscillospirales.Oscillospiraceae.NK4A214_group.uncultured_bacterium'
p241
(lp242
F0.0
aF0.0
aF0.0
aF0.0
aF0.0
aF0.0
aF0.0
aF627.4931648065977
aF0.0
asS'Bacteria.Proteobacteria.Alphaproteobacteria.Rhizobiales.Rhizobiaceae.Allorhizobium_Neorhizobium_Pararhizobium_Rhizobium'
p243
(lp244
F934.6764980787206
aF6065.088757396451
aF646.9874646178729
aF1286.3968636419322
aF0.0
aF0.0
aF0.0
aF224.10470171664204
aF0.0
asS'Bacteria.Bacteroidota.Bacteroidia.Bacteroidales.Bacteroidaceae.Bacteroides.Bacteroides_caecimuris'
p245
(lp246
F0.0
aF0.0
aF0.0
aF0.0
aF0.0
aF0.0
aF0.0
aF1120.5235085832103
aF0.0
asS'Bacteria.Firmicutes.Bacilli.Acholeplasmatales.Acholeplasmataceae.Anaeroplasma.uncultured_bacterium'
p247
(lp248
F0.0
aF295.8579881656805
aF0.0
aF61.25699350675867
aF0.0
aF254.21266705403832
aF0.0
aF0.0
aF0.0
asS'Bacteria.Firmicutes.Clostridia.Lachnospirales.Lachnospiraceae.Lachnoclostridium.Dorea_sp_'
p249
(lp250
F0.0
aF0.0
aF0.0
aF0.0
aF0.0
aF490.2672864613597
aF0.0
aF0.0
aF0.0
asS'Bacteria.Firmicutes.Bacilli.Erysipelotrichales.Erysipelotrichaceae.uncultured.uncultured_Allobaculum'
p251
(lp252
F2077.058884619379
aF20931.9526627219
aF0.0
aF530.8939437252419
aF0.0
aF0.0
aF13719.773623735202
aF0.0
aF0.0
asS'Bacteria.Bacteroidota.Bacteroidia.Chitinophagales.Chitinophagaceae.Sediminibacterium'
p253
(lp254
F0.0
aF0.0
aF0.0
aF0.0
aF0.0
aF0.0
aF857.4858514834501
aF0.0
aF0.0
asS'Bacteria.Firmicutes.Clostridia.Clostridia_UCG_014.Clostridia_UCG_014'
p255
(lp256
F69996.88441167306
aF278476.3313609468
aF267852.81035179936
aF36488.749132192585
aF62111.80124223601
aF336214.4102266124
aF129366.03212713651
aF97530.36618708262
aF74319.6092114445
asS'Bacteria.Firmicutes.Clostridia.Oscillospirales.Oscillospiraceae.UCG_005.uncultured_prokaryote'
p257
(lp258
F0.0
aF0.0
aF5095.026283865749
aF0.0
aF0.0
aF0.0
aF0.0
aF1030.8816278965535
aF0.0
asS'Bacteria.Firmicutes.Clostridia.Lachnospirales.Lachnospiraceae.uncultured.unidentified'
p259
(lp260
F0.0
aF0.0
aF889.6077638495752
aF0.0
aF0.0
aF0.0
aF0.0
aF0.0
aF0.0
asS'Bacteria.Firmicutes.Bacilli.RF39.RF39'
p261
(lp262
F4257.970713469726
aF26775.147928994087
aF12211.88839466235
aF2082.737779229795
aF2846.79089026915
aF3450.029052876235
aF14062.767964328581
aF1120.5235085832103
aF0.0
asS'Bacteria.Proteobacteria.Gammaproteobacteria.Burkholderiales.Alcaligenaceae.Achromobacter'
p263
(lp264
F0.0
aF3476.331360946746
aF0.0
aF714.6649242455179
aF0.0
aF0.0
aF0.0
aF896.4188068665682
aF0.0
asS'Bacteria.Firmicutes.Clostridia.Oscillospirales.Butyricicoccaceae'
p265
(lp266
F0.0
aF8505.917159763314
aF4205.418520016174
aF285.86596969820715
aF0.0
aF9605.607205113305
aF514.4915108900701
aF7216.171395275874
aF3489.1835310537326
asS'Bacteria.Firmicutes.Clostridia.Oscillospirales.Butyricicoccaceae.Butyricicoccus.uncultured_bacterium'
p267
(lp268
F0.0
aF0.0
aF0.0
aF285.86596969820715
aF0.0
aF0.0
aF514.4915108900701
aF0.0
aF0.0
asS'Bacteria.Firmicutes.Clostridia.Oscillospirales.Oscillospiraceae.uncultured'
p269
(lp270
F0.0
aF665.6804733727812
aF12211.88839466235
aF1143.4638787928286
aF12163.561076604552
aF12238.524113887275
aF0.0
aF0.0
aF0.0
asS'Bacteria.Firmicutes.Clostridia.Clostridia_vadinBB60_group.Clostridia_vadinBB60_group.Clostridia_vadinBB60_group.uncultured_bacterium'
p271
(lp272
F0.0
aF0.0
aF566.1140315406387
aF0.0
aF0.0
aF254.21266705403832
aF0.0
aF0.0
aF0.0
asS'Bacteria.Campylobacterota.Campylobacteria.Campylobacterales.Helicobacteraceae'
p273
(lp274
F0.0
aF0.0
aF0.0
aF0.0
aF0.0
aF2306.0720511330624
aF0.0
aF0.0
aF0.0
asS'Bacteria.Proteobacteria.Alphaproteobacteria.Rhodobacterales.Rhodobacteraceae'
p275
(lp276
F0.0
aF0.0
aF0.0
aF0.0
aF0.0
aF0.0
aF1257.6459155090604
aF0.0
aF0.0
asS'Bacteria.Patescibacteria'
p277
(lp278
F3738.705992314882
aF15088.757396449706
aF32511.120097048108
aF551.3129415608281
aF12681.159420289852
aF2415.0203370133645
aF28468.530269250547
aF851.5978665232398
aF0.0
asS'Bacteria.Firmicutes.Clostridia.Oscillospirales.Oscillospiraceae.Papillibacter.uncultured_bacterium'
p279
(lp280
F0.0
aF0.0
aF2345.329559239789
aF0.0
aF0.0
aF0.0
aF0.0
aF0.0
aF0.0
asS'Bacteria.Firmicutes.Clostridia.Oscillospirales.UCG_010.UCG_010'
p281
(lp282
F0.0
aF0.0
aF0.0
aF0.0
aF0.0
aF653.6897152818129
aF0.0
aF0.0
aF0.0
asS'Bacteria.Bacteroidota.Bacteroidia.Bacteroidales.Bacteroidaceae'
p283
(lp284
F0.0
aF33875.73964497042
aF0.0
aF183.77098052027603
aF0.0
aF2088.1754793724576
aF31441.147887726504
aF4168.347451929542
aF2791.346824842986
asS'Bacteria.Bacteroidota.Bacteroidia.Bacteroidales.Bacteroidaceae.Bacteroides.Bacteroides_fragilis'
p285
(lp286
F0.0
aF0.0
aF0.0
aF0.0
aF0.0
aF1289.2213829169089
aF0.0
aF0.0
aF0.0
asS'Bacteria.Firmicutes.Clostridia.Oscillospirales.Ruminococcaceae.Incertae_Sedis.uncultured_Clostridiales'
p287
(lp288
F0.0
aF0.0
aF0.0
aF0.0
aF3105.5900621118003
aF0.0
aF0.0
aF896.4188068665682
aF0.0
asS'Bacteria.Proteobacteria.Alphaproteobacteria'
p289
(lp290
F934.6764980787206
aF7026.627218934912
aF646.9874646178729
aF1919.385796545105
aF0.0
aF0.0
aF1257.6459155090604
aF224.10470171664204
aF0.0
asS'Bacteria.Firmicutes.Clostridia.Clostridia_UCG_014.Clostridia_UCG_014.Clostridia_UCG_014.uncultured_rumen'
p291
(lp292
F14747.11808079759
aF0.0
aF10351.799433885966
aF1225.1398701351736
aF44513.457556935806
aF18593.84079023823
aF0.0
aF0.0
aF0.0
asS'Bacteria.Firmicutes.Clostridia.Oscillospirales.Ruminococcaceae.Ruminococcus.uncultured_Ruminococcus'
p293
(lp294
F0.0
aF2958.579881656805
aF3962.7982207844716
aF19336.790950300154
aF7505.175983436851
aF0.0
aF5430.743726061851
aF0.0
aF0.0
asS'Bacteria.Firmicutes.Clostridia.uncultured'
p295
(lp296
F0.0
aF0.0
aF0.0
aF0.0
aF0.0
aF599.2155723416619
aF0.0
aF717.1350454932546
aF0.0
asS'Bacteria.Proteobacteria.Gammaproteobacteria.Burkholderiales.Oxalobacteraceae.Herminiimonas'
p297
(lp298
F0.0
aF0.0
aF0.0
aF428.7989545473107
aF0.0
aF0.0
aF0.0
aF0.0
aF0.0
asS'Bacteria.Firmicutes.Bacilli.Lactobacillales.Lactobacillaceae.Limosilactobacillus'
p299
(lp300
F934.6764980787206
aF0.0
aF0.0
aF1429.3298484910358
aF0.0
aF562.8994770482278
aF743.15440461899
aF851.5978665232398
aF0.0
asS'Bacteria.Gemmatimonadota.Gemmatimonadetes.Gemmatimonadales.Gemmatimonadaceae.uncultured'
p301
(lp302
F0.0
aF0.0
aF0.0
aF0.0
aF2846.79089026915
aF0.0
aF0.0
aF0.0
aF0.0
asS'Bacteria.Proteobacteria.Alphaproteobacteria.Caulobacterales.Caulobacteraceae'
p303
(lp304
F0.0
aF961.5384615384617
aF0.0
aF632.988932903173
aF0.0
aF0.0
aF0.0
aF0.0
aF0.0
asS'Bacteria.Firmicutes.Clostridia.Lachnospirales.Lachnospiraceae.Marvinbryantia'
p305
(lp306
F0.0
aF961.5384615384617
aF1213.1014961585117
aF0.0
aF0.0
aF0.0
aF0.0
aF1210.1653892698669
aF0.0
asS'Bacteria.Patescibacteria.Saccharimonadia.Saccharimonadales.Saccharimonadaceae'
p307
(lp308
F3738.705992314882
aF15088.757396449706
aF32511.120097048108
aF551.3129415608281
aF12681.159420289852
aF2306.0720511330624
aF28468.530269250547
aF851.5978665232398
aF0.0
asS'Bacteria.Firmicutes.Clostridia.Oscillospirales.UCG_010.UCG_010.uncultured_bacterium'
p309
(lp310
F0.0
aF0.0
aF0.0
aF0.0
aF0.0
aF326.84485764090647
aF0.0
aF0.0
aF0.0
asS'Bacteria.Firmicutes'
p311
(lp312
F941426.9394537336
aF614497.0414201185
aF853861.7064294376
aF908257.4427247111
aF369565.21739130426
aF856315.3689715281
aF389470.0737437831
aF694545.291560217
aF666434.0544312629
asS'Bacteria.Proteobacteria.Gammaproteobacteria.Burkholderiales.Alcaligenaceae.Alcaligenes'
p313
(lp314
F0.0
aF0.0
aF0.0
aF408.3799567117245
aF0.0
aF0.0
aF0.0
aF0.0
aF0.0
asS'Bacteria.Firmicutes.Clostridia.Oscillospirales'
p315
(lp316
F29078.824384671305
aF48372.78106508876
aF275131.4193287504
aF42614.44848286844
aF164855.07246376807
aF134060.86577571178
aF90779.16881038126
aF228048.9444668549
aF257850.66294487086
asS'Bacteria.Actinobacteriota.Coriobacteriia.Coriobacteriales.Atopobiaceae'
p317
(lp318
F3219.4412711600376
aF0.0
aF3801.051354630003
aF530.8939437252419
aF0.0
aF3577.135386403254
aF685.9886811867601
aF13042.893639908567
aF5582.693649685972
asS'Bacteria.Firmicutes.Bacilli.Erysipelotrichales.Erysipelatoclostridiaceae'
p319
(lp320
F1557.7941634645342
aF739.6449704142012
aF1213.1014961585117
aF0.0
aF0.0
aF6918.216153399187
aF0.0
aF0.0
aF0.0
asS'Bacteria.Firmicutes.Bacilli.Acholeplasmatales.Acholeplasmataceae.Anaeroplasma'
p321
(lp322
F0.0
aF295.8579881656805
aF0.0
aF61.25699350675867
aF0.0
aF254.21266705403832
aF0.0
aF0.0
aF0.0
asS'Bacteria.Firmicutes.Clostridia.Lachnospirales.Lachnospiraceae.uncultured'
p323
(lp324
F0.0
aF0.0
aF0.0
aF0.0
aF5175.983436853001
aF0.0
aF0.0
aF0.0
aF0.0
asS'Bacteria.Proteobacteria.Gammaproteobacteria.Burkholderiales.Sutterellaceae.Parasutterella'
p325
(lp326
F0.0
aF2810.6508875739646
aF0.0
aF0.0
aF0.0
aF472.10923881464265
aF0.0
aF8022.948321455785
aF0.0
asS'Bacteria.Firmicutes.Bacilli.Erysipelotrichales.Erysipelotrichaceae.Dubosiella'
p327
(lp328
F18485.82407311247
aF17085.79881656805
aF14152.850788515969
aF2327.7657532568296
aF0.0
aF2487.6525276002326
aF24066.769564968832
aF7081.7085742458885
aF11514.305652477318
asS'Bacteria.Firmicutes.Clostridia.Lachnospirales.Lachnospiraceae.Lachnospira.uncultured_bacterium'
p329
(lp330
F0.0
aF1701.1834319526629
aF0.0
aF0.0
aF0.0
aF0.0
aF0.0
aF0.0
aF0.0
asS'Bacteria.Proteobacteria.Alphaproteobacteria.Caulobacterales'
p331
(lp332
F0.0
aF961.5384615384617
aF0.0
aF632.988932903173
aF0.0
aF0.0
aF0.0
aF0.0
aF0.0
asS'Bacteria.Firmicutes.Bacilli.Exiguobacterales.Exiguobacteraceae'
p333
(lp334
F0.0
aF0.0
aF0.0
aF0.0
aF0.0
aF0.0
aF0.0
aF717.1350454932546
aF0.0
asS'Bacteria.Bacteroidota'
p335
(lp336
F1973.20594038841
aF210576.9230769231
aF32915.48726243428
aF22093.355658104294
aF569616.9772256727
aF89392.06856478793
aF511576.05899502634
aF115638.0260857873
aF90369.85345429168
asS'Bacteria.Firmicutes.Bacilli.Exiguobacterales'
p337
(lp338
F0.0
aF0.0
aF0.0
aF0.0
aF0.0
aF0.0
aF0.0
aF717.1350454932546
aF0.0
asS'Bacteria.Firmicutes.Clostridia.Lachnospirales.Lachnospiraceae.uncultured.uncultured_bacterium'
p339
(lp340
F0.0
aF0.0
aF0.0
aF102.09498917793113
aF0.0
aF236.05461940732133
aF0.0
aF0.0
aF0.0
asS'Bacteria.Gemmatimonadota'
p341
(lp342
F0.0
aF0.0
aF0.0
aF0.0
aF2846.79089026915
aF0.0
aF0.0
aF0.0
aF0.0
asS'Bacteria.Firmicutes.Clostridia.Oscillospirales.Ruminococcaceae.Negativibacillus'
p343
(lp344
F0.0
aF0.0
aF0.0
aF0.0
aF0.0
aF671.84776292853
aF0.0
aF0.0
aF0.0
asS'Bacteria.Verrucomicrobiota.Verrucomicrobiae'
p345
(lp346
F0.0
aF887.5739644970415
aF21188.83946623534
aF24400.702413525538
aF10093.16770186335
aF1071.3248111563046
aF914.6515749156802
aF55533.1450853839
aF142009.76971388693
asS'Bacteria.Gemmatimonadota.Gemmatimonadetes.Gemmatimonadales.Gemmatimonadaceae'
p347
(lp348
F0.0
aF0.0
aF0.0
aF0.0
aF2846.79089026915
aF0.0
aF0.0
aF0.0
aF0.0
asS'Bacteria.Actinobacteriota.Actinobacteria.Bifidobacteriales.Bifidobacteriaceae'
p349
(lp350
F7685.117873091703
aF10355.029585798819
aF4609.785685402344
aF163.3519826846898
aF0.0
aF0.0
aF13891.270794031892
aF49168.571556631265
aF5582.693649685972
asS'Bacteria.Firmicutes.Clostridia.Monoglobales.Monoglobaceae.Monoglobus.uncultured_bacterium'
p351
(lp352
F0.0
aF0.0
aF0.0
aF265.44697186262096
aF3881.9875776397507
aF0.0
aF514.4915108900701
aF0.0
aF0.0
asS'Bacteria.Firmicutes.Clostridia.Oscillospirales._Eubacterium__coprostanoligenes_group._Eubacterium__coprostanoligenes_group'
p353
(lp354
F0.0
aF0.0
aF0.0
aF0.0
aF0.0
aF0.0
aF0.0
aF537.8512841199408
aF0.0
asS'Bacteria.Bacteroidota.Bacteroidia.Bacteroidales.Prevotellaceae.Prevotellaceae_UCG_001.uncultured_bacterium'
p355
(lp356
F0.0
aF8653.846153846156
aF0.0
aF592.1509372320005
aF0.0
aF2560.2847181871
aF5087.749385468471
aF761.955985836583
aF0.0
asS'Bacteria.Firmicutes.Clostridia.Peptostreptococcales_Tissierellales.Anaerovoracaceae._Eubacterium__nodatum_group.uncultured_organism'
p357
(lp358
F0.0
aF0.0
aF0.0
aF0.0
aF0.0
aF417.6350958744916
aF0.0
aF0.0
aF0.0
asS'Bacteria.Firmicutes.Clostridia.Oscillospirales.Ruminococcaceae.Subdoligranulum'
p359
(lp360
F0.0
aF8210.059171597633
aF38414.8807116862
aF0.0
aF0.0
aF926.0604299825683
aF457.3257874578401
aF177401.28187889385
aF245638.52058618277
asS'Bacteria.Proteobacteria.Gammaproteobacteria.Enterobacterales.Enterobacteriaceae.Escherichia_Shigella'
p361
(lp362
F15577.941634645344
aF8949.704142011835
aF27820.460978568535
aF6656.593294401109
aF18633.540372670803
aF5774.259151656013
aF21551.477733950713
aF12325.758594415312
aF30006.9783670621
asS'Bacteria.Bacteroidota.Bacteroidia.Bacteroidales.Bacteroidaceae.Bacteroides'
p363
(lp364
F0.0
aF13165.680473372782
aF0.0
aF0.0
aF0.0
aF0.0
aF24181.101011833292
aF44.82094034332841
aF0.0
asS'Bacteria.Firmicutes.Clostridia.Lachnospirales.Lachnospiraceae.Lachnospiraceae_UCG_006.uncultured_bacterium'
p365
(lp366
F3219.4412711600376
aF0.0
aF0.0
aF0.0
aF0.0
aF4430.563625798954
aF0.0
aF0.0
aF0.0
asS'Bacteria.Actinobacteriota.Actinobacteria'
p367
(lp368
F13604.735694256933
aF10355.029585798819
aF4609.785685402344
aF163.3519826846898
aF0.0
aF635.5316676350959
aF13891.270794031892
aF81305.18578279772
aF14305.652477320304
asS'Bacteria.Firmicutes.Clostridia.uncultured.uncultured'
p369
(lp370
F0.0
aF0.0
aF0.0
aF0.0
aF0.0
aF599.2155723416619
aF0.0
aF717.1350454932546
aF0.0
asS'Bacteria.Firmicutes.Clostridia.Oscillospirales.Ruminococcaceae'
p371
(lp372
F0.0
aF0.0
aF0.0
aF0.0
aF0.0
aF0.0
aF0.0
aF448.2094034332841
aF0.0
asS'Bacteria.Bacteroidota.Bacteroidia.Flavobacteriales.Weeksellaceae'
p373
(lp374
F0.0
aF0.0
aF0.0
aF1245.5588679707598
aF0.0
aF254.21266705403832
aF0.0
aF0.0
aF0.0
asS'Bacteria.Acidobacteriota.Acidobacteriae.Bryobacterales.Bryobacteraceae.Bryobacter'
p375
(lp376
F0.0
aF0.0
aF0.0
aF0.0
aF0.0
aF0.0
aF685.9886811867601
aF0.0
aF0.0
asS'Bacteria.Gemmatimonadota.Gemmatimonadetes'
p377
(lp378
F0.0
aF0.0
aF0.0
aF0.0
aF2846.79089026915
aF0.0
aF0.0
aF0.0
aF0.0
asS'Bacteria.Firmicutes.Clostridia.Oscillospirales.Oscillospiraceae.Oscillibacter'
p379
(lp380
F0.0
aF0.0
aF0.0
aF0.0
aF0.0
aF526.5833817547938
aF0.0
aF0.0
aF0.0
asS'Bacteria.Actinobacteriota.Coriobacteriia.Coriobacteriales.Coriobacteriales_Incertae_Sedis.uncultured'
p381
(lp382
F0.0
aF443.78698224852076
aF0.0
aF387.96095887613825
aF0.0
aF508.42533410807664
aF0.0
aF0.0
aF1744.5917655268663
asS'Bacteria.Firmicutes.Clostridia.Clostridia_UCG_014.Clostridia_UCG_014.Clostridia_UCG_014.unidentified_rumen'
p383
(lp384
F0.0
aF31878.698224852076
aF0.0
aF0.0
aF5952.3809523809505
aF1525.2760023242301
aF4516.092151146171
aF22724.216754067504
aF0.0
asS'Bacteria.Firmicutes.Clostridia.Lachnospirales.Lachnospiraceae'
p385
(lp386
F8100.529650015578
aF27514.792899408287
aF51273.75657096643
aF3716.257606076693
aF23809.523809523802
aF29416.03718768158
aF17835.705710855764
aF12998.072699565239
aF25471.039776692247
asS'Bacteria.Verrucomicrobiota.Verrucomicrobiae.Verrucomicrobiales.Akkermansiaceae.Akkermansia.uncultured_bacterium'
p387
(lp388
F0.0
aF887.5739644970415
aF21188.83946623534
aF24400.702413525538
aF10093.16770186335
aF1071.3248111563046
aF914.6515749156802
aF55533.1450853839
aF142009.76971388693
asS'Bacteria.Firmicutes.Clostridia.Lachnospirales.Lachnospiraceae.Lachnospiraceae_UCG_006'
p389
(lp390
F3219.4412711600376
aF0.0
aF0.0
aF0.0
aF0.0
aF4430.563625798954
aF0.0
aF0.0
aF0.0
asS'Bacteria.Firmicutes.Clostridia.Peptostreptococcales_Tissierellales.Peptostreptococcaceae'
p391
(lp392
F168241.7696541697
aF23668.63905325444
aF17873.02871006874
aF56111.40605219094
aF8281.573498964803
aF25294.160371876816
aF0.0
aF5109.587199139439
aF5233.7752965805985
asS'Bacteria.Firmicutes.Bacilli.Erysipelotrichales.Erysipelotrichaceae.Holdemania'
p393
(lp394
F0.0
aF0.0
aF1213.1014961585117
aF0.0
aF0.0
aF0.0
aF0.0
aF1254.9863296131955
aF0.0
asS'Bacteria.Firmicutes.Clostridia.Clostridiales.Clostridiaceae'
p395
(lp396
F402326.3059507737
aF18639.053254437873
aF16983.420946219165
aF658737.2891738472
aF12681.159420289852
aF10350.087158628705
aF15091.750986108722
aF1613.5538523598227
aF0.0
asS'Bacteria.Firmicutes.Clostridia.Oscillospirales.Oscillospiraceae.Oscillibacter.uncultured_bacterium'
p397
(lp398
F0.0
aF0.0
aF0.0
aF0.0
aF0.0
aF308.6868099941894
aF0.0
aF493.0303437766125
aF0.0
asS'Bacteria.Firmicutes.Clostridia.Eubacteriales.Anaerofustaceae.Anaerofustis'
p399
(lp400
F0.0
aF0.0
aF404.36716538617054
aF0.0
aF0.0
aF0.0
aF0.0
aF1703.1957330464795
aF0.0
asS'Bacteria.Firmicutes.Bacilli.RF39.RF39.RF39.uncultured_bacterium'
p401
(lp402
F4257.970713469726
aF17381.656804733728
aF3558.431055398301
aF306.2849675337934
aF0.0
aF581.0575246949447
aF0.0
aF0.0
aF0.0
asS'Bacteria.Firmicutes.Clostridia.Oscillospirales.Oscillospiraceae.UCG_005.uncultured_bacterium'
p403
(lp404
F0.0
aF7026.627218934912
aF142498.98908208648
aF0.0
aF0.0
aF0.0
aF0.0
aF0.0
aF0.0
asS'Bacteria.Actinobacteriota.Coriobacteriia.Coriobacteriales.Eggerthellaceae.Adlercreutzia.uncultured_bacterium'
p405
(lp406
F5504.206044241354
aF3254.4378698224855
aF0.0
aF4512.598521664556
aF0.0
aF6718.4776292852985
aF0.0
aF5109.587199139439
aF16050.244242847171
asS'Bacteria.Actinobacteriota.Actinobacteria.Streptomycetales.Streptomycetaceae'
p407
(lp408
F0.0
aF0.0
aF0.0
aF0.0
aF0.0
aF0.0
aF0.0
aF0.0
aF3489.1835310537326
asS'Bacteria.Bacteroidota.Bacteroidia.Bacteroidales.Rikenellaceae.Alistipes.uncultured_bacterium'
p409
(lp410
F0.0
aF0.0
aF0.0
aF204.18997835586225
aF0.0
aF1143.9570017431727
aF0.0
aF717.1350454932546
aF0.0
asS'Bacteria.Desulfobacterota.Desulfovibrionia.Desulfovibrionales.Desulfovibrionaceae.Desulfovibrio'
p411
(lp412
F1869.352996157441
aF4585.798816568047
aF0.0
aF0.0
aF0.0
aF12038.785589773388
aF14462.928028354192
aF0.0
aF0.0
asS'Bacteria.Cyanobacteria.Vampirivibrionia.Gastranaerophilales.Gastranaerophilales.Gastranaerophilales.uncultured_bacterium'
p413
(lp414
F519.2647211548448
aF0.0
aF0.0
aF0.0
aF0.0
aF1325.5374782103427
aF0.0
aF0.0
aF0.0
asS'Bacteria.Actinobacteriota.Actinobacteria.Bifidobacteriales'
p415
(lp416
F7685.117873091703
aF10355.029585798819
aF4609.785685402344
aF163.3519826846898
aF0.0
aF0.0
aF13891.270794031892
aF49168.571556631265
aF5582.693649685972
asS'Bacteria.Bacteroidota.Bacteroidia.Bacteroidales.Prevotellaceae.Prevotellaceae_UCG_003'
p417
(lp418
F0.0
aF0.0
aF0.0
aF0.0
aF0.0
aF0.0
aF0.0
aF0.0
aF3140.2651779483595
asS'Bacteria.Bacteroidota.Bacteroidia.Bacteroidales.Prevotellaceae.Prevotellaceae_UCG_001'
p419
(lp420
F0.0
aF8653.846153846156
aF0.0
aF592.1509372320005
aF0.0
aF2560.2847181871
aF5087.749385468471
aF761.955985836583
aF0.0
asS'Bacteria.Proteobacteria.Gammaproteobacteria'
p421
(lp422
F21912.97123273445
aF122041.42011834322
aF35341.69025475131
aF23420.5905174174
aF31832.29813664596
aF12692.475305055199
aF30526.49631281082
aF29268.074044193458
aF63503.140265177935
asS'Bacteria.Bacteroidota.Bacteroidia.Bacteroidales.Rikenellaceae'
p423
(lp424
F0.0
aF0.0
aF0.0
aF204.18997835586225
aF0.0
aF1143.9570017431727
aF0.0
aF4302.8102729595275
aF0.0
asS'Bacteria.Acidobacteriota'
p425
(lp426
F0.0
aF0.0
aF0.0
aF0.0
aF0.0
aF0.0
aF685.9886811867601
aF0.0
aF0.0
asS'Bacteria.Actinobacteriota.Actinobacteria.Pseudonocardiales.Pseudonocardiaceae'
p427
(lp428
F0.0
aF0.0
aF0.0
aF0.0
aF0.0
aF0.0
aF0.0
aF32136.61422616647
aF5233.7752965805985
asS'Bacteria.Firmicutes.Clostridia.Oscillospirales.Butyricicoccaceae.UCG_009.uncultured_bacterium'
p429
(lp430
F0.0
aF0.0
aF0.0
aF0.0
aF0.0
aF1107.6409064497384
aF0.0
aF0.0
aF0.0
asS'Bacteria.Firmicutes.Clostridia.Clostridia_vadinBB60_group.Clostridia_vadinBB60_group.Clostridia_vadinBB60_group'
p431
(lp432
F0.0
aF0.0
aF566.1140315406387
aF0.0
aF0.0
aF562.8994770482277
aF0.0
aF0.0
aF0.0
asS'Bacteria.Bacteroidota.Bacteroidia.Bacteroidales.Rikenellaceae.Alistipes'
p433
(lp434
F0.0
aF0.0
aF0.0
aF0.0
aF0.0
aF0.0
aF0.0
aF3585.6752274662726
aF0.0
asS'Bacteria.Firmicutes.Clostridia.Lachnospirales.Lachnospiraceae.Lachnospiraceae_NK4A136_group'
p435
(lp436
F0.0
aF1553.2544378698226
aF0.0
aF0.0
aF14751.552795031053
aF1670.5403834979663
aF2115.13176699251
aF0.0
aF0.0
asS'Bacteria.Firmicutes.Clostridia.Lachnospirales.Lachnospiraceae._Eubacterium__ventriosum_group.uncultured_rumen'
p437
(lp438
F0.0
aF0.0
aF0.0
aF0.0
aF0.0
aF744.4799535153979
aF0.0
aF0.0
aF0.0
asS'Bacteria.Firmicutes.Clostridia.Lachnospirales.Lachnospiraceae.Anaerostipes'
p439
(lp440
F0.0
aF0.0
aF0.0
aF0.0
aF0.0
aF3050.5520046484603
aF0.0
aF0.0
aF0.0
asS'Bacteria.Firmicutes.Clostridia.Christensenellales.Christensenellaceae'
p441
(lp442
F41541.17769238757
aF29807.692307692312
aF3720.177921552769
aF3859.190590925796
aF0.0
aF13872.748402091807
aF21437.146287086252
aF1568.7329120164943
aF0.0
asS'Bacteria.Actinobacteriota.Actinobacteria.Bifidobacteriales.Bifidobacteriaceae.Bifidobacterium'
p443
(lp444
F0.0
aF0.0
aF0.0
aF0.0
aF0.0
aF0.0
aF13891.270794031892
aF0.0
aF0.0
asS'Bacteria.Campylobacterota.Campylobacteria.Campylobacterales'
p445
(lp446
F0.0
aF0.0
aF0.0
aF0.0
aF0.0
aF2306.0720511330624
aF0.0
aF0.0
aF0.0
asS'Bacteria.Firmicutes.Bacilli.Erysipelotrichales.Erysipelotrichaceae.Allobaculum'
p447
(lp448
F0.0
aF7914.201183431954
aF17064.294379296396
aF0.0
aF0.0
aF1307.3794305636259
aF1714.9717029669002
aF20214.244094841113
aF55826.93649685972
asS'Bacteria.Firmicutes.Clostridia.Christensenellales.Christensenellaceae.Christensenellaceae_R_7_group.uncultured_bacterium'
p449
(lp450
F0.0
aF0.0
aF0.0
aF3001.592681831175
aF0.0
aF0.0
aF571.6572343223
aF0.0
aF0.0
asS'Bacteria.Desulfobacterota'
p451
(lp452
F1869.352996157441
aF4585.798816568047
aF0.0
aF0.0
aF0.0
aF12038.785589773388
aF14462.928028354192
aF0.0
aF0.0
asS'Bacteria.Actinobacteriota.Coriobacteriia.Coriobacteriales.uncultured.uncultured'
p453
(lp454
F5296.500155779417
aF5917.15976331361
aF7925.596441568943
aF3900.0285865969686
aF3364.389233954451
aF7245.061011040093
aF2400.96038415366
aF3182.286764376317
aF0.0
asS'Bacteria.Actinobacteriota.Coriobacteriia.Coriobacteriales.Eggerthellaceae.Gordonibacter'
p455
(lp456
F0.0
aF0.0
aF0.0
aF0.0
aF0.0
aF0.0
aF1200.48019207683
aF0.0
aF0.0
asS'Bacteria.Firmicutes.Bacilli.Staphylococcales.Staphylococcaceae'
p457
(lp458
F5711.911932703292
aF0.0
aF1617.4686615446822
aF0.0
aF0.0
aF907.9023823358513
aF1943.6345966958202
aF0.0
aF0.0
asS'Bacteria.Firmicutes.Bacilli.Erysipelotrichales'
p459
(lp460
F132412.50389448542
aF72411.2426035503
aF38980.99474322684
aF89373.9535263609
aF5434.782608695651
aF18085.41545613016
aF49905.676556336795
aF29626.641566940078
aF71179.34403349613
asS'Bacteria.Bacteroidota.Bacteroidia.Bacteroidales.Prevotellaceae.Prevotellaceae_NK3B31_group'
p461
(lp462
F0.0
aF1405.3254437869823
aF2507.0764253942575
aF306.2849675337934
aF0.0
aF3577.135386403254
aF8460.52706797004
aF18869.61588454126
aF13956.73412421493
asS'Bacteria.Proteobacteria.Alphaproteobacteria.Caulobacterales.Caulobacteraceae.Brevundimonas'
p463
(lp464
F0.0
aF961.5384615384617
aF0.0
aF632.988932903173
aF0.0
aF0.0
aF0.0
aF0.0
aF0.0
asS'Bacteria.Actinobacteriota.Coriobacteriia.Coriobacteriales.Eggerthellaceae.Enterorhabdus.uncultured_bacterium'
p465
(lp466
F0.0
aF4437.869822485208
aF2749.6967246259596
aF9862.375954588148
aF0.0
aF1924.7530505520047
aF3544.2748527982603
aF941.2397472098966
aF0.0
asS'Bacteria.Firmicutes.Clostridia.Lachnospirales.Lachnospiraceae.Eisenbergiella.uncultured_organism'
p467
(lp468
F0.0
aF0.0
aF0.0
aF0.0
aF0.0
aF508.42533410807664
aF0.0
aF0.0
aF0.0
asS'Bacteria.Proteobacteria.Gammaproteobacteria.Burkholderiales.Oxalobacteraceae.Herminiimonas.uncultured_bacterium'
p469
(lp470
F0.0
aF0.0
aF0.0
aF428.7989545473107
aF0.0
aF0.0
aF0.0
aF0.0
aF0.0
asS'Bacteria.Firmicutes.Clostridia.Lachnospirales.Lachnospiraceae._Eubacterium__xylanophilum_group.uncultured_bacterium'
p471
(lp472
F0.0
aF2218.934911242604
aF14233.724221593204
aF2205.2517662433124
aF16304.347826086952
aF3613.451481696688
aF1486.30880923798
aF0.0
aF10467.550593161197
asS'Bacteria.Proteobacteria.Gammaproteobacteria.Burkholderiales.Sutterellaceae'
p473
(lp474
F0.0
aF2810.6508875739646
aF0.0
aF0.0
aF0.0
aF472.10923881464265
aF0.0
aF8022.948321455785
aF0.0
asS'Bacteria.Patescibacteria.Saccharimonadia.Saccharimonadales'
p475
(lp476
F0.0
aF0.0
aF0.0
aF0.0
aF0.0
aF108.94828588030215
aF0.0
aF0.0
aF0.0
asS'Bacteria.Firmicutes.Clostridia.Peptostreptococcales_Tissierellales.Anaerovoracaceae.Anaerovorax'
p477
(lp478
F0.0
aF0.0
aF0.0
aF204.18997835586225
aF0.0
aF0.0
aF0.0
aF0.0
aF0.0
asS'Bacteria.Firmicutes.Clostridia.Oscillospirales.Ruminococcaceae._Eubacterium__siraeum_group.uncultured_bacterium'
p479
(lp480
F0.0
aF0.0
aF0.0
aF1551.843835504553
aF14751.552795031053
aF236.05461940732133
aF23552.278054078764
aF1568.7329120164943
aF0.0
asS'Bacteria.Firmicutes.Clostridia.Lachnospirales.Lachnospiraceae.Sellimonas.uncultured_Blautia'
p481
(lp482
F0.0
aF0.0
aF0.0
aF0.0
aF0.0
aF0.0
aF0.0
aF672.314105149926
aF0.0
asS'Bacteria.Firmicutes.Bacilli.Staphylococcales'
p483
(lp484
F5711.911932703292
aF0.0
aF1617.4686615446822
aF0.0
aF0.0
aF907.9023823358513
aF1943.6345966958202
aF0.0
aF0.0
asS'Bacteria.Firmicutes.Clostridia.Christensenellales.Christensenellaceae.Christensenellaceae_R_7_group'
p485
(lp486
F41541.17769238757
aF29807.692307692312
aF3720.177921552769
aF0.0
aF0.0
aF13636.693782684484
aF19207.68307322928
aF1568.7329120164943
aF0.0
asS'Bacteria.Proteobacteria.Gammaproteobacteria.Pseudomonadales.Moraxellaceae'
p487
(lp488
F0.0
aF0.0
aF0.0
aF2736.145709968554
aF0.0
aF0.0
aF0.0
aF672.314105149926
aF0.0
asS'Bacteria.Firmicutes.Clostridia.Oscillospirales.Butyricicoccaceae.UCG_008.uncultured_bacterium'
p489
(lp490
F0.0
aF8505.917159763314
aF4205.418520016174
aF0.0
aF0.0
aF8497.966298663567
aF0.0
aF7216.171395275874
aF3489.1835310537326
asS'Bacteria.Firmicutes.Clostridia.Lachnospirales.Defluviitaleaceae'
p491
(lp492
F0.0
aF0.0
aF0.0
aF0.0
aF0.0
aF1289.2213829169089
aF0.0
aF0.0
aF0.0
asS'Bacteria.Cyanobacteria.Cyanobacteriia.Chloroplast'
p493
(lp494
F0.0
aF0.0
aF0.0
aF0.0
aF0.0
aF0.0
aF457.3257874578401
aF0.0
aF0.0
asS'Bacteria.Firmicutes.Clostridia.Oscillospirales.Oscillospiraceae.uncultured.unidentified'
p495
(lp496
F0.0
aF0.0
aF0.0
aF0.0
aF0.0
aF835.2701917489832
aF0.0
aF0.0
aF0.0
asS'Bacteria.Firmicutes.Bacilli.Staphylococcales.Staphylococcaceae.Staphylococcus.Staphylococcus_sciuri'
p497
(lp498
F1765.5000519264722
aF0.0
aF0.0
aF0.0
aF0.0
aF0.0
aF0.0
aF0.0
aF0.0
asS'Bacteria.Actinobacteriota.Coriobacteriia.Coriobacteriales.uncultured.uncultured.uncultured_bacterium'
p499
(lp500
F5296.500155779417
aF5917.15976331361
aF7925.596441568943
aF3900.0285865969686
aF3364.389233954451
aF7245.061011040093
aF2400.96038415366
aF3182.286764376317
aF0.0
asS'Bacteria.Firmicutes.Clostridia.Oscillospirales._Eubacterium__coprostanoligenes_group._Eubacterium__coprostanoligenes_group.uncultured_bacterium'
p501
(lp502
F0.0
aF1775.147928994083
aF13263.243024666393
aF632.988932903173
aF41407.86749482401
aF690.005810575247
aF4916.25221517178
aF13087.714580251895
aF0.0
asS'Bacteria.Firmicutes.Bacilli.Acholeplasmatales.Acholeplasmataceae'
p503
(lp504
F0.0
aF295.8579881656805
aF0.0
aF61.25699350675867
aF0.0
aF254.21266705403832
aF0.0
aF0.0
aF0.0
asS'Bacteria.Firmicutes.Clostridia.Peptococcales.Peptococcaceae'
p505
(lp506
F0.0
aF0.0
aF0.0
aF81.6759913423449
aF0.0
aF780.796048808832
aF0.0
aF851.5978665232398
aF0.0
asS'Bacteria.Firmicutes.Clostridia.Oscillospirales.uncultured.uncultured'
p507
(lp508
F0.0
aF0.0
aF0.0
aF0.0
aF0.0
aF326.84485764090647
aF0.0
aF0.0
aF0.0
asS'Bacteria.Firmicutes.Clostridia.Clostridia_UCG_014.Clostridia_UCG_014.Clostridia_UCG_014'
p509
(lp510
F43722.089521237926
aF219674.5562130178
aF132308.936514355
aF33242.12847633438
aF0.0
aF243626.52527600233
aF95123.76379123073
aF41593.832638608765
aF23726.448011165383
asS'Bacteria.Actinobacteriota.Coriobacteriia.Coriobacteriales.Atopobiaceae.Coriobacteriaceae_UCG_002'
p511
(lp512
F3219.4412711600376
aF0.0
aF3801.051354630003
aF0.0
aF0.0
aF3577.135386403254
aF685.9886811867601
aF13042.893639908567
aF5582.693649685972
asS'Bacteria.Firmicutes.Clostridia.Oscillospirales.Oscillospiraceae.uncultured.uncultured_bacterium'
p513
(lp514
F0.0
aF0.0
aF0.0
aF347.1229632049658
aF0.0
aF1289.2213829169089
aF1772.1374263991302
aF0.0
aF0.0
asS'Bacteria.Actinobacteriota.Coriobacteriia.Coriobacteriales.Atopobiaceae.uncultured.uncultured_bacterium'
p515
(lp516
F0.0
aF0.0
aF0.0
aF530.8939437252419
aF0.0
aF0.0
aF0.0
aF0.0
aF0.0
asS'Bacteria.Proteobacteria.Gammaproteobacteria.Enterobacterales.Pasteurellaceae'
p517
(lp518
F0.0
aF665.6804733727812
aF1374.8483623129798
aF0.0
aF0.0
aF0.0
aF0.0
aF672.314105149926
aF0.0
asS'Bacteria.Firmicutes.Clostridia.Lachnospirales.Lachnospiraceae._Bacteroides__pectinophilus_group'
p519
(lp520
F0.0
aF1035.5029585798818
aF1132.2280630812775
aF0.0
aF0.0
aF0.0
aF0.0
aF0.0
aF0.0
asS'Bacteria.Firmicutes.Clostridia.Monoglobales.Monoglobaceae.Monoglobus'
p521
(lp522
F0.0
aF0.0
aF9947.432268499795
aF1694.7768203536566
aF0.0
aF0.0
aF0.0
aF0.0
aF0.0
asS'Bacteria.Firmicutes.Bacilli.RF39.RF39.RF39.uncultured_Paenibacillaceae'
p523
(lp524
F0.0
aF0.0
aF0.0
aF0.0
aF0.0
aF0.0
aF457.3257874578401
aF0.0
aF0.0
asS'Bacteria.Firmicutes.Clostridia.Oscillospirales.Ruminococcaceae.UBA1819.uncultured_bacterium'
p525
(lp526
F0.0
aF0.0
aF0.0
aF0.0
aF0.0
aF708.163858221964
aF0.0
aF672.314105149926
aF0.0
asS'Bacteria.Actinobacteriota.Coriobacteriia.Coriobacteriales.Eggerthellaceae'
p527
(lp528
F0.0
aF887.5739644970415
aF0.0
aF0.0
aF0.0
aF0.0
aF0.0
aF358.5675227466273
aF0.0
asS'Bacteria.Proteobacteria.Gammaproteobacteria.Burkholderiales.Sutterellaceae.Parasutterella.uncultured_organism'
p529
(lp530
F0.0
aF2810.6508875739646
aF0.0
aF0.0
aF0.0
aF472.10923881464265
aF0.0
aF8022.948321455785
aF0.0
asS'Bacteria.Proteobacteria.Gammaproteobacteria.Burkholderiales.Comamonadaceae.Comamonas'
p531
(lp532
F0.0
aF19896.449704142015
aF0.0
aF0.0
aF0.0
aF326.84485764090647
aF0.0
aF0.0
aF0.0
asS'Bacteria.Proteobacteria.Gammaproteobacteria.Burkholderiales.Alcaligenaceae'
p533
(lp534
F0.0
aF3476.331360946746
aF0.0
aF1123.0448809572424
aF0.0
aF0.0
aF0.0
aF896.4188068665682
aF0.0
asS'Bacteria.Firmicutes.Clostridia.Christensenellales.Christensenellaceae.Christensenellaceae_R_7_group.uncultured_prokaryote'
p535
(lp536
F0.0
aF0.0
aF0.0
aF857.5979090946214
aF0.0
aF236.05461940732133
aF0.0
aF0.0
aF0.0
asS'Bacteria.Firmicutes.Bacilli.Erysipelotrichales.Erysipelotrichaceae.Holdemania.uncultured_bacterium'
p537
(lp538
F0.0
aF0.0
aF1213.1014961585117
aF0.0
aF0.0
aF0.0
aF0.0
aF1254.9863296131955
aF0.0
asS'Bacteria.Bacteroidota.Bacteroidia.Flavobacteriales'
p539
(lp540
F0.0
aF0.0
aF0.0
aF1245.5588679707598
aF0.0
aF254.21266705403832
aF0.0
aF0.0
aF0.0
asS'Bacteria.Firmicutes.Bacilli'
p541
(lp542
F176030.74047149238
aF115754.43786982249
aF54589.56732713302
aF97786.58063462243
aF8281.573498964803
aF29997.09471237652
aF80432.17286914762
aF37649.589888395865
aF71179.34403349613
asS'Bacteria.Firmicutes.Clostridia.Peptostreptococcales_Tissierellales.Anaerovoracaceae._Eubacterium__nodatum_group'
p543
(lp544
F0.0
aF0.0
aF0.0
aF0.0
aF0.0
aF417.6350958744916
aF0.0
aF0.0
aF0.0
asS'Bacteria.Proteobacteria.Gammaproteobacteria.Burkholderiales.Oxalobacteraceae.Massilia'
p545
(lp546
F0.0
aF0.0
aF0.0
aF0.0
aF13198.757763975153
aF0.0
aF0.0
aF0.0
aF0.0
asS'Bacteria.Firmicutes.Clostridia.Oscillospirales.Oscillospiraceae.UCG_005.gut_metagenome'
p547
(lp548
F0.0
aF0.0
aF0.0
aF0.0
aF0.0
aF254.21266705403832
aF0.0
aF0.0
aF0.0
asS'Bacteria.Actinobacteriota.Coriobacteriia.Coriobacteriales.Eggerthellaceae.Gordonibacter.uncultured_bacterium'
p549
(lp550
F0.0
aF0.0
aF0.0
aF0.0
aF0.0
aF0.0
aF1200.48019207683
aF0.0
aF0.0
asS'Bacteria.Actinobacteriota.Coriobacteriia.Coriobacteriales.Atopobiaceae.Coriobacteriaceae_UCG_002.uncultured_bacterium'
p551
(lp552
F3219.4412711600376
aF0.0
aF3801.051354630003
aF0.0
aF0.0
aF3577.135386403254
aF685.9886811867601
aF13042.893639908567
aF5582.693649685972
asS'Bacteria.Firmicutes.Bacilli.Erysipelotrichales.Erysipelotrichaceae.Faecalibaculum.uncultured_bacterium'
p553
(lp554
F0.0
aF0.0
aF0.0
aF1735.614816024829
aF0.0
aF635.5316676350959
aF0.0
aF0.0
aF0.0
asS'Bacteria.Bacteroidota.Bacteroidia.Flavobacteriales.Weeksellaceae.Chryseobacterium'
p555
(lp556
F0.0
aF0.0
aF0.0
aF1245.5588679707598
aF0.0
aF254.21266705403832
aF0.0
aF0.0
aF0.0
asS'Bacteria.Firmicutes.Clostridia.Clostridiales'
p557
(lp558
F402326.3059507737
aF18639.053254437873
aF16983.420946219165
aF658737.2891738472
aF12681.159420289852
aF10350.087158628705
aF15091.750986108722
aF1613.5538523598227
aF0.0
asS'Bacteria.Actinobacteriota.Actinobacteria.Pseudonocardiales.Pseudonocardiaceae.Saccharopolyspora'
p559
(lp560
F0.0
aF0.0
aF0.0
aF0.0
aF0.0
aF0.0
aF0.0
aF32136.61422616647
aF0.0
asS'Bacteria.Firmicutes.Clostridia.Lachnospirales.Lachnospiraceae.Coprococcus'
p561
(lp562
F0.0
aF0.0
aF0.0
aF0.0
aF0.0
aF0.0
aF0.0
aF2554.7935995697194
aF4884.856943475225
asS'Bacteria.Firmicutes.Clostridia.Peptococcales.Peptococcaceae.Peptococcus'
p563
(lp564
F0.0
aF0.0
aF0.0
aF81.6759913423449
aF0.0
aF0.0
aF0.0
aF0.0
aF0.0
asS'Bacteria.Firmicutes.Bacilli.Erysipelotrichales.Erysipelotrichaceae.uncultured'
p565
(lp566
F519.2647211548448
aF0.0
aF0.0
aF0.0
aF0.0
aF0.0
aF0.0
aF0.0
aF0.0
asS'Bacteria.Proteobacteria.Gammaproteobacteria.Burkholderiales.Burkholderiaceae.Burkholderia_Caballeronia_Paraburkholderia'
p567
(lp568
F4777.235434624572
aF12869.822485207103
aF1617.4686615446822
aF4165.4755584595905
aF0.0
aF2560.2847181871
aF6116.732407248611
aF3809.7799291829147
aF10118.632240055824
asS'Bacteria.Firmicutes.Clostridia.Oscillospirales.Ruminococcaceae.Incertae_Sedis.uncultured_bacterium'
p569
(lp570
F8827.500259632361
aF2736.686390532545
aF4609.785685402344
aF2940.3356883244164
aF6469.979296066252
aF18303.312027890763
aF8689.189961698961
aF1075.7025682398817
aF0.0
asS'Bacteria.Firmicutes.Bacilli.Erysipelotrichales.Erysipelotrichaceae.uncultured.uncultured_bacterium'
p571
(lp572
F0.0
aF5103.550295857989
aF0.0
aF0.0
aF0.0
aF2396.8622893666475
aF743.15440461899
aF0.0
aF0.0
asS'Bacteria.Firmicutes.Clostridia.Lachnospirales'
p573
(lp574
F51926.472115484474
aF99778.10650887576
aF136352.6081682167
aF10413.688896148973
aF86956.52173913043
aF292108.5124927368
aF37958.040359000726
aF289408.81179687154
aF250523.37752965797
asS'Bacteria.Firmicutes.Clostridia.Peptococcales.Peptococcaceae.uncultured'
p575
(lp576
F0.0
aF0.0
aF0.0
aF0.0
aF0.0
aF780.796048808832
aF0.0
aF851.5978665232398
aF0.0
asS'Bacteria.Actinobacteriota.Actinobacteria.Corynebacteriales.Corynebacteriaceae.Corynebacterium.Corynebacterium_stationis'
p577
(lp578
F5919.6178211652295
aF0.0
aF0.0
aF0.0
aF0.0
aF0.0
aF0.0
aF0.0
aF0.0
asS'Bacteria.Firmicutes.Clostridia.Oscillospirales.Oscillospiraceae.uncultured.Clostridium_sp_'
p579
(lp580
F0.0
aF1479.2899408284025
aF0.0
aF0.0
aF20962.732919254653
aF581.0575246949447
aF3601.4405762304905
aF0.0
aF0.0
asS'Bacteria.Firmicutes.Clostridia.Peptococcales.Peptococcaceae.uncultured.unidentified'
p581
(lp582
F0.0
aF0.0
aF0.0
aF0.0
aF0.0
aF453.95119116792563
aF0.0
aF0.0
aF0.0
asS'Bacteria.Actinobacteriota.Coriobacteriia.Coriobacteriales.Atopobiaceae.uncultured'
p583
(lp584
F0.0
aF0.0
aF0.0
aF530.8939437252419
aF0.0
aF0.0
aF0.0
aF0.0
aF0.0
asS'Bacteria.Actinobacteriota.Actinobacteria.Corynebacteriales.Corynebacteriaceae'
p585
(lp586
F5919.6178211652295
aF0.0
aF0.0
aF0.0
aF0.0
aF0.0
aF0.0
aF0.0
aF0.0
asS'Bacteria.Actinobacteriota.Coriobacteriia.Coriobacteriales.Eggerthellaceae.Adlercreutzia'
p587
(lp588
F0.0
aF0.0
aF4448.038819247876
aF0.0
aF0.0
aF1833.9628123184195
aF0.0
aF0.0
aF0.0
asS'Bacteria.Actinobacteriota.Actinobacteria.Pseudonocardiales'
p589
(lp590
F0.0
aF0.0
aF0.0
aF0.0
aF0.0
aF0.0
aF0.0
aF32136.61422616647
aF5233.7752965805985
asS'Bacteria.Firmicutes.Clostridia.Peptostreptococcales_Tissierellales.Anaerovoracaceae._Eubacterium__brachy_group.uncultured_bacterium'
p591
(lp592
F0.0
aF0.0
aF1293.9749292357458
aF0.0
aF0.0
aF0.0
aF0.0
aF0.0
aF0.0
asS'Bacteria.Firmicutes.Clostridia.Peptococcales.Peptococcaceae.uncultured.uncultured_bacterium'
p593
(lp594
F0.0
aF0.0
aF0.0
aF0.0
aF0.0
aF326.84485764090647
aF0.0
aF851.5978665232398
aF0.0
asS'Bacteria.Firmicutes.Clostridia.Oscillospirales.uncultured'
p595
(lp596
F0.0
aF0.0
aF0.0
aF0.0
aF0.0
aF326.84485764090647
aF0.0
aF0.0
aF0.0
asS'Bacteria.Firmicutes.Bacilli.Lactobacillales.Lactobacillaceae.Lactobacillus.Lactobacillus_johnsonii'
p597
(lp598
F21601.412400041543
aF1923.0769230769233
aF1779.2155276991505
aF1776.4528116960016
aF0.0
aF3486.345148169669
aF12976.619219116212
aF3451.2124064362874
aF0.0
asS'Bacteria.Desulfobacterota.Desulfovibrionia.Desulfovibrionales.Desulfovibrionaceae.Desulfovibrio.uncultured_bacterium'
p599
(lp600
F1869.352996157441
aF4585.798816568047
aF0.0
aF0.0
aF0.0
aF12038.785589773388
aF14462.928028354192
aF0.0
aF0.0
asS'Bacteria.Actinobacteriota.Actinobacteria.Micrococcales.Micrococcaceae.Rothia'
p601
(lp602
F0.0
aF0.0
aF0.0
aF0.0
aF0.0
aF417.6350958744916
aF0.0
aF0.0
aF0.0
asS'Bacteria.Firmicutes.Bacilli.Erysipelotrichales.Erysipelatoclostridiaceae.Erysipelotrichaceae_UCG_003'
p603
(lp604
F1557.7941634645342
aF0.0
aF0.0
aF0.0
aF0.0
aF5483.730389308541
aF0.0
aF0.0
aF0.0
asS'Bacteria.Firmicutes.Bacilli.RF39.RF39.RF39.uncultured_Lachnospiraceae'
p605
(lp606
F0.0
aF7766.272189349113
aF0.0
aF1388.4918528198632
aF2846.79089026915
aF0.0
aF11318.813239581541
aF0.0
aF0.0
asS'Bacteria.Bacteroidota.Bacteroidia.Bacteroidales.Bacteroidaceae.Bacteroides.Bacteroides_sartorii'
p607
(lp608
F0.0
aF0.0
aF0.0
aF0.0
aF0.0
aF326.84485764090647
aF0.0
aF0.0
aF0.0
asS'Bacteria.Firmicutes.Clostridia.Lachnospirales.Defluviitaleaceae.Defluviitaleaceae_UCG_011.uncultured_bacterium'
p609
(lp610
F0.0
aF0.0
aF0.0
aF0.0
aF0.0
aF145.26438117373618
aF0.0
aF0.0
aF0.0
asS'Bacteria.Cyanobacteria.Cyanobacteriia.Chloroplast.Chloroplast'
p611
(lp612
F0.0
aF0.0
aF0.0
aF0.0
aF0.0
aF0.0
aF457.3257874578401
aF0.0
aF0.0
asS'Bacteria.Firmicutes.Bacilli.Erysipelotrichales.Erysipelatoclostridiaceae.Erysipelotrichaceae_UCG_003.uncultured_bacterium'
p613
(lp614
F1557.7941634645342
aF0.0
aF0.0
aF0.0
aF0.0
aF5483.730389308541
aF0.0
aF0.0
aF0.0
asS'Bacteria.Firmicutes.Bacilli.Staphylococcales.Staphylococcaceae.Staphylococcus'
p615
(lp616
F0.0
aF0.0
aF1617.4686615446822
aF0.0
aF0.0
aF562.8994770482278
aF1943.6345966958202
aF0.0
aF0.0
asS'Bacteria.Firmicutes.Bacilli.RF39.RF39.RF39'
p617
(lp618
F0.0
aF1035.5029585798818
aF8653.45733926405
aF0.0
aF0.0
aF2614.7588611272517
aF2286.6289372892
aF1120.5235085832103
aF0.0
asS'Bacteria.Firmicutes.Clostridia.Monoglobales.Monoglobaceae.Monoglobus.uncultured_Clostridiaceae'
p619
(lp620
F2284.764773081317
aF0.0
aF0.0
aF0.0
aF0.0
aF181.58047646717026
aF0.0
aF0.0
aF0.0
asS'Bacteria.Firmicutes.Bacilli.Lactobacillales.Aerococcaceae.Aerococcus'
p621
(lp622
F1246.2353307716273
aF813.6094674556214
aF0.0
aF0.0
aF0.0
aF272.37071470075534
aF0.0
aF0.0
aF0.0
asS'Bacteria.Firmicutes.Clostridia.Monoglobales'
p623
(lp624
F2284.764773081317
aF0.0
aF79094.21754953497
aF1960.2237922162774
aF26397.515527950305
aF11566.676350958744
aF14405.762304921962
aF30343.776612433332
aF7327.285415212838
asS'Bacteria.Firmicutes.Clostridia.Lachnospirales.Lachnospiraceae._Bacteroides__pectinophilus_group.uncultured_bacterium'
p625
(lp626
F0.0
aF1035.5029585798818
aF1132.2280630812775
aF0.0
aF0.0
aF0.0
aF0.0
aF0.0
aF0.0
asS'Bacteria.Firmicutes.Clostridia.Monoglobales.Monoglobaceae.Monoglobus.unidentified'
p627
(lp628
F0.0
aF0.0
aF0.0
aF0.0
aF0.0
aF599.2155723416619
aF0.0
aF0.0
aF0.0
asS'Bacteria.Actinobacteriota.Actinobacteria.Micrococcales'
p629
(lp630
F0.0
aF0.0
aF0.0
aF0.0
aF0.0
aF635.5316676350959
aF0.0
aF0.0
aF0.0
asS'Bacteria.Chloroflexi.Anaerolineae.Anaerolineales.Anaerolineaceae.uncultured'
p631
(lp632
F0.0
aF0.0
aF0.0
aF0.0
aF0.0
aF0.0
aF457.3257874578401
aF0.0
aF0.0
asS'Bacteria.Bacteroidota.Bacteroidia.Bacteroidales.Prevotellaceae.Prevotellaceae_UCG_003.uncultured_bacterium'
p633
(lp634
F0.0
aF0.0
aF0.0
aF0.0
aF0.0
aF0.0
aF0.0
aF0.0
aF3140.2651779483595
asS'Bacteria.Firmicutes.Clostridia.Oscillospirales.Oscillospiraceae.NK4A214_group'
p635
(lp636
F0.0
aF0.0
aF0.0
aF0.0
aF0.0
aF2433.1783846600815
aF0.0
aF0.0
aF0.0
asS'Bacteria.Desulfobacterota.Desulfovibrionia.Desulfovibrionales'
p637
(lp638
F1869.352996157441
aF4585.798816568047
aF0.0
aF0.0
aF0.0
aF12038.785589773388
aF14462.928028354192
aF0.0
aF0.0
asS'Bacteria.Bacteroidota.Bacteroidia.Chitinophagales'
p639
(lp640
F0.0
aF0.0
aF0.0
aF0.0
aF0.0
aF0.0
aF857.4858514834501
aF0.0
aF0.0
asS'Bacteria.Firmicutes.Clostridia.Clostridiales.Clostridiaceae.Clostridium_sensu_stricto_1'
p641
(lp642
F402326.3059507737
aF18639.053254437873
aF16983.420946219165
aF658737.2891738472
aF12681.159420289852
aF9750.871586287043
aF15091.750986108722
aF1613.5538523598227
aF0.0
asS'Bacteria.Bacteroidota.Bacteroidia.Bacteroidales.Prevotellaceae.Prevotellaceae_NK3B31_group.uncultured_bacterium'
p643
(lp644
F0.0
aF1405.3254437869823
aF2507.0764253942575
aF306.2849675337934
aF0.0
aF3577.135386403254
aF8460.52706797004
aF18869.61588454126
aF13956.73412421493
asS'Bacteria.Firmicutes.Clostridia.Peptostreptococcales_Tissierellales'
p645
(lp646
F0.0
aF0.0
aF0.0
aF0.0
aF0.0
aF217.8965717606043
aF0.0
aF0.0
aF0.0
asS'Bacteria.Proteobacteria.Gammaproteobacteria.Enterobacterales.Pasteurellaceae.Rodentibacter.Pasteurellaceae_bacterium'
p647
(lp648
F0.0
aF665.6804733727812
aF1374.8483623129798
aF0.0
aF0.0
aF0.0
aF0.0
aF672.314105149926
aF0.0
asS'Bacteria.Cyanobacteria.Vampirivibrionia.Gastranaerophilales'
p649
(lp650
F519.2647211548448
aF0.0
aF0.0
aF0.0
aF0.0
aF1325.5374782103427
aF0.0
aF0.0
aF0.0
asS'Bacteria.Actinobacteriota.Coriobacteriia'
p651
(lp652
F14020.147471180808
aF14940.828402366868
aF18924.38334007278
aF19193.85796545105
aF3364.389233954451
aF21807.815223707148
aF7831.70411021551
aF22634.574873380847
aF23377.52965806001
asS'Bacteria.Firmicutes.Bacilli.Lactobacillales'
p653
(lp654
F33648.353930833946
aF16272.189349112428
aF1779.2155276991505
aF6268.6323355249715
aF0.0
aF7299.535153980244
aF14520.093751786422
aF6185.2897673793195
aF0.0
asS'Bacteria.Firmicutes.Clostridia.Lachnospirales.Lachnospiraceae._Eubacterium__ventriosum_group'
p655
(lp656
F0.0
aF0.0
aF1374.8483623129798
aF0.0
aF4917.184265010351
aF236.05461940732133
aF0.0
aF0.0
aF0.0
asS'Bacteria.Firmicutes.Clostridia.Lachnospirales.Lachnospiraceae.Lachnoclostridium'
p657
(lp658
F0.0
aF0.0
aF0.0
aF714.6649242455179
aF21997.929606625254
aF0.0
aF9203.68147258903
aF0.0
aF0.0
asS'Bacteria.Actinobacteriota.Coriobacteriia.Coriobacteriales'
p659
(lp660
F14020.147471180808
aF14940.828402366868
aF18924.38334007278
aF19193.85796545105
aF3364.389233954451
aF21807.815223707148
aF7831.70411021551
aF22634.574873380847
aF23377.52965806001
asS'Bacteria.Firmicutes.Clostridia.Oscillospirales.Ruminococcaceae.uncultured.metagenome'
p661
(lp662
F0.0
aF0.0
aF0.0
aF0.0
aF0.0
aF254.21266705403832
aF0.0
aF0.0
aF0.0
asS'Bacteria.Gemmatimonadota.Gemmatimonadetes.Gemmatimonadales'
p663
(lp664
F0.0
aF0.0
aF0.0
aF0.0
aF2846.79089026915
aF0.0
aF0.0
aF0.0
aF0.0
asS'Bacteria.Cyanobacteria.Vampirivibrionia.Gastranaerophilales.Gastranaerophilales.Gastranaerophilales'
p665
(lp666
F519.2647211548448
aF0.0
aF0.0
aF0.0
aF0.0
aF1325.5374782103427
aF0.0
aF0.0
aF0.0
asS'Bacteria.Proteobacteria.Gammaproteobacteria.Enterobacterales.Enterobacteriaceae'
p667
(lp668
F15577.941634645344
aF8949.704142011835
aF27820.460978568535
aF6656.593294401109
aF18633.540372670803
aF5774.259151656013
aF21551.477733950713
aF12325.758594415312
aF30006.9783670621
asS'Bacteria.Firmicutes.Clostridia.Oscillospirales.Oscillospiraceae.Oscillospira'
p669
(lp670
F0.0
aF5103.550295857989
aF0.0
aF0.0
aF0.0
aF0.0
aF0.0
aF0.0
aF0.0
asS'Bacteria.Chloroflexi.Anaerolineae.Anaerolineales'
p671
(lp672
F0.0
aF0.0
aF0.0
aF0.0
aF0.0
aF0.0
aF457.3257874578401
aF0.0
aF0.0
asS'Bacteria.Firmicutes.Clostridia.Monoglobales.Monoglobaceae'
p673
(lp674
F2284.764773081317
aF0.0
aF79094.21754953497
aF1960.2237922162774
aF26397.515527950305
aF11566.676350958744
aF14405.762304921962
aF30343.776612433332
aF7327.285415212838
asS'Bacteria.Cyanobacteria.Cyanobacteriia'
p675
(lp676
F0.0
aF0.0
aF0.0
aF0.0
aF0.0
aF0.0
aF457.3257874578401
aF0.0
aF0.0
asS'Bacteria.Chloroflexi.Anaerolineae.Anaerolineales.Anaerolineaceae'
p677
(lp678
F0.0
aF0.0
aF0.0
aF0.0
aF0.0
aF0.0
aF457.3257874578401
aF0.0
aF0.0
asS'Bacteria.Firmicutes.Bacilli.Lactobacillales.Lactobacillaceae'
p679
(lp680
F28351.853775054526
aF11242.603550295858
aF1779.2155276991505
aF4042.961571446073
aF0.0
aF6028.4718187100525
aF14520.093751786422
aF5557.796602572722
aF0.0
asS'Bacteria.Chloroflexi'
p681
(lp682
F0.0
aF0.0
aF0.0
aF0.0
aF0.0
aF0.0
aF457.3257874578401
aF0.0
aF0.0
asS'Bacteria.Proteobacteria.Gammaproteobacteria.Pseudomonadales.Moraxellaceae.Acinetobacter.Acinetobacter_lwoffii'
p683
(lp684
F0.0
aF0.0
aF0.0
aF0.0
aF0.0
aF0.0
aF0.0
aF672.314105149926
aF0.0
asS'Bacteria.Firmicutes.Bacilli.RF39.RF39.RF39.human_gut'
p685
(lp686
F0.0
aF0.0
aF0.0
aF387.96095887613825
aF0.0
aF0.0
aF0.0
aF0.0
aF0.0
asS'Bacteria.Firmicutes.Clostridia.Lachnospirales.Lachnospiraceae._Eubacterium__xylanophilum_group'
p687
(lp688
F0.0
aF2218.934911242604
aF14233.724221593204
aF2205.2517662433124
aF16304.347826086952
aF3613.451481696688
aF1486.30880923798
aF0.0
aF10467.550593161197
asS'Bacteria.Firmicutes.Clostridia.Lachnospirales.Lachnospiraceae.GCA_900066575.uncultured_bacterium'
p689
(lp690
F0.0
aF0.0
aF0.0
aF0.0
aF0.0
aF853.4282393957002
aF0.0
aF0.0
aF0.0
asS'Bacteria.Actinobacteriota.Actinobacteria.Micrococcales.Micrococcaceae.Rothia.Rothia_sp_'
p691
(lp692
F0.0
aF0.0
aF0.0
aF0.0
aF0.0
aF417.6350958744916
aF0.0
aF0.0
aF0.0
asS'Bacteria.Firmicutes.Clostridia.Peptostreptococcales_Tissierellales.Anaerovoracaceae.Anaerovorax.uncultured_bacterium'
p693
(lp694
F0.0
aF0.0
aF0.0
aF204.18997835586225
aF0.0
aF0.0
aF0.0
aF0.0
aF0.0
asS'Bacteria.Firmicutes.Clostridia'
p695
(lp696
F765396.1989822413
aF498742.6035502959
aF799272.1391023046
aF810470.8620900885
aF361283.6438923395
aF826318.2742591518
aF309037.9008746354
aF656895.7016718212
aF595254.7103977668
asS'Bacteria.Proteobacteria.Alphaproteobacteria.Rhodobacterales.Rhodobacteraceae.Rubellimicrobium.uncultured_bacterium'
p697
(lp698
F0.0
aF0.0
aF0.0
aF0.0
aF0.0
aF0.0
aF1257.6459155090604
aF0.0
aF0.0
asS'Bacteria.Firmicutes.Clostridia.Lachnospirales.Lachnospiraceae.GCA_900066575'
p699
(lp700
F0.0
aF0.0
aF0.0
aF0.0
aF0.0
aF853.4282393957002
aF0.0
aF0.0
aF0.0
asS'Bacteria.Firmicutes.Bacilli.Erysipelotrichales.Erysipelotrichaceae'
p701
(lp702
F130854.70973102086
aF71671.59763313612
aF37767.89324706833
aF89373.9535263609
aF5434.782608695651
aF11167.19930273097
aF49905.676556336795
aF29626.641566940078
aF71179.34403349613
asS'Bacteria.Actinobacteriota.Coriobacteriia.Coriobacteriales.Eggerthellaceae.Enterorhabdus'
p703
(lp704
F0.0
aF4437.869822485208
aF2749.6967246259596
aF9862.375954588148
aF0.0
aF1924.7530505520047
aF3544.2748527982603
aF941.2397472098966
aF0.0
asS'Bacteria.Bacteroidota.Bacteroidia.Chitinophagales.Chitinophagaceae.Sediminibacterium.Sediminibacterium_sp_'
p705
(lp706
F0.0
aF0.0
aF0.0
aF0.0
aF0.0
aF0.0
aF857.4858514834501
aF0.0
aF0.0
asS'Bacteria.Proteobacteria.Gammaproteobacteria.Burkholderiales.Comamonadaceae'
p707
(lp708
F1557.7941634645342
aF65384.6153846154
aF3558.431055398301
aF5635.6434026217985
aF0.0
aF2251.5979081929113
aF2858.2861716115003
aF761.955985836583
aF8374.040474528958
asS'Bacteria.Bacteroidota.Bacteroidia.Bacteroidales.Bacteroidaceae.Bacteroides.Bacteroides_acidifaciens'
p709
(lp710
F0.0
aF14275.147928994085
aF0.0
aF183.77098052027603
aF0.0
aF472.10923881464265
aF0.0
aF3003.0030030030034
aF2791.346824842986
asS'Bacteria.Firmicutes.Clostridia.Oscillospirales._Eubacterium__coprostanoligenes_group'
p711
(lp712
F10073.735590403989
aF4511.834319526628
aF13263.243024666393
aF2164.41377057214
aF70134.57556935816
aF25548.373038930855
aF6745.555365003141
aF13625.565864371836
aF0.0
asS'Bacteria.Proteobacteria.Gammaproteobacteria.Enterobacterales.Pasteurellaceae.Rodentibacter'
p713
(lp714
F0.0
aF665.6804733727812
aF1374.8483623129798
aF0.0
aF0.0
aF0.0
aF0.0
aF672.314105149926
aF0.0
asS'Bacteria.Firmicutes.Clostridia.uncultured.uncultured.uncultured'
p715
(lp716
F0.0
aF0.0
aF0.0
aF0.0
aF0.0
aF599.2155723416619
aF0.0
aF717.1350454932546
aF0.0
asS'Bacteria.Bacteroidota.Bacteroidia.Bacteroidales.Muribaculaceae.Muribaculaceae.uncultured_bacterium'
p717
(lp718
F1973.20594038841
aF141124.2603550296
aF30408.410837040024
aF16825.25421652305
aF561076.6045548653
aF71978.5008715863
aF436060.13834105054
aF80229.48321455785
aF70481.5073272854
asS'Bacteria.Firmicutes.Clostridia.Clostridia_UCG_014'
p719
(lp720
F69996.88441167306
aF278476.3313609468
aF267852.81035179936
aF36488.749132192585
aF62111.80124223601
aF336214.4102266124
aF129366.03212713651
aF97530.36618708262
aF74319.6092114445
asS'Bacteria.Firmicutes.Clostridia.Oscillospirales.Ruminococcaceae._Eubacterium__siraeum_group'
p721
(lp722
F0.0
aF0.0
aF0.0
aF1551.843835504553
aF14751.552795031053
aF236.05461940732133
aF23552.278054078764
aF1568.7329120164943
aF0.0
asS'Bacteria.Firmicutes.Clostridia.Lachnospirales.Lachnospiraceae.Fusicatenibacter'
p723
(lp724
F33648.35393083394
aF0.0
aF16740.80064698746
aF0.0
aF0.0
aF174262.7832655433
aF0.0
aF171619.3805746045
aF158757.85066294484
asS'Bacteria.Firmicutes.Bacilli.Erysipelotrichales.Erysipelatoclostridiaceae.Erysipelatoclostridium.uncultured_bacterium'
p725
(lp726
F0.0
aF739.6449704142012
aF0.0
aF0.0
aF0.0
aF1434.485764090645
aF0.0
aF0.0
aF0.0
asS'Bacteria.Actinobacteriota.Actinobacteria.Pseudonocardiales.Pseudonocardiaceae.Pseudonocardia'
p727
(lp728
F0.0
aF0.0
aF0.0
aF0.0
aF0.0
aF0.0
aF0.0
aF0.0
aF5233.7752965805985
asS'Bacteria.Firmicutes.Clostridia.Peptococcales.Peptococcaceae.Peptococcus.uncultured_bacterium'
p729
(lp730
F0.0
aF0.0
aF0.0
aF81.6759913423449
aF0.0
aF0.0
aF0.0
aF0.0
aF0.0
asS'Bacteria.Firmicutes.Clostridia.Eubacteriales'
p731
(lp732
F0.0
aF0.0
aF404.36716538617054
aF0.0
aF0.0
aF0.0
aF0.0
aF1703.1957330464795
aF0.0
asS'Bacteria.Acidobacteriota.Acidobacteriae'
p733
(lp734
F0.0
aF0.0
aF0.0
aF0.0
aF0.0
aF0.0
aF685.9886811867601
aF0.0
aF0.0
asS'Bacteria.Chloroflexi.Anaerolineae.Anaerolineales.Anaerolineaceae.uncultured.uncultured_sludge'
p735
(lp736
F0.0
aF0.0
aF0.0
aF0.0
aF0.0
aF0.0
aF457.3257874578401
aF0.0
aF0.0
asS'Bacteria.Firmicutes.Clostridia.Oscillospirales.Oscillospiraceae.Papillibacter'
p737
(lp738
F0.0
aF0.0
aF2345.329559239789
aF0.0
aF0.0
aF0.0
aF0.0
aF0.0
aF0.0
asS'Bacteria.Proteobacteria.Gammaproteobacteria.Enterobacterales'
p739
(lp740
F15577.941634645344
aF9615.384615384615
aF29195.309340881515
aF6656.593294401109
aF18633.540372670803
aF5774.259151656013
aF21551.477733950713
aF12998.072699565239
aF30006.9783670621
asS'Bacteria.Firmicutes.Bacilli.Erysipelotrichales.Erysipelotrichaceae.uncultured.unidentified'
p741
(lp742
F0.0
aF0.0
aF0.0
aF0.0
aF0.0
aF272.37071470075534
aF0.0
aF0.0
aF0.0
asS'Bacteria.Verrucomicrobiota.Verrucomicrobiae.Verrucomicrobiales.Akkermansiaceae'
p743
(lp744
F0.0
aF887.5739644970415
aF21188.83946623534
aF24400.702413525538
aF10093.16770186335
aF1071.3248111563046
aF914.6515749156802
aF55533.1450853839
aF142009.76971388693
asS'Bacteria.Firmicutes.Clostridia.Clostridia_vadinBB60_group.Clostridia_vadinBB60_group'
p745
(lp746
F0.0
aF0.0
aF566.1140315406387
aF0.0
aF0.0
aF562.8994770482277
aF0.0
aF0.0
aF0.0
asS'Bacteria.Firmicutes.Clostridia.Christensenellales.Christensenellaceae.Christensenellaceae_R_7_group.uncultured_Clostridia'
p747
(lp748
F0.0
aF0.0
aF0.0
aF0.0
aF0.0
aF0.0
aF1657.8059795346703
aF0.0
aF0.0
asS'Bacteria.Actinobacteriota.Coriobacteriia.Coriobacteriales.Coriobacteriales_Incertae_Sedis.uncultured.gut_metagenome'
p749
(lp750
F0.0
aF443.78698224852076
aF0.0
aF387.96095887613825
aF0.0
aF508.42533410807664
aF0.0
aF0.0
aF1744.5917655268663
asS'Bacteria.Firmicutes.Clostridia.Oscillospirales.Butyricicoccaceae.Butyricicoccus'
p751
(lp752
F0.0
aF0.0
aF0.0
aF285.86596969820715
aF0.0
aF0.0
aF514.4915108900701
aF0.0
aF0.0
asS'Bacteria.Proteobacteria.Gammaproteobacteria.Burkholderiales.Comamonadaceae.Comamonas.Comamonas_testosteroni'
p753
(lp754
F0.0
aF19896.449704142015
aF0.0
aF0.0
aF0.0
aF326.84485764090647
aF0.0
aF0.0
aF0.0
asS'Bacteria.Firmicutes.Clostridia.Clostridia_UCG_014.Clostridia_UCG_014.Clostridia_UCG_014.unidentified'
p755
(lp756
F5192.647211548447
aF13461.538461538465
aF30651.03113627173
aF1572.2628333401392
aF11645.962732919252
aF26619.69785008716
aF19379.180243525974
aF0.0
aF0.0
asS'Bacteria.Firmicutes.Clostridia.Peptostreptococcales_Tissierellales.Anaerovoracaceae._Eubacterium__brachy_group'
p757
(lp758
F0.0
aF0.0
aF1293.9749292357458
aF0.0
aF0.0
aF0.0
aF0.0
aF0.0
aF0.0
asS'Bacteria.Firmicutes.Clostridia.Oscillospirales.Ruminococcaceae.Ruminococcus.unidentified'
p759
(lp760
F0.0
aF0.0
aF0.0
aF102.09498917793113
aF0.0
aF0.0
aF0.0
aF0.0
aF0.0
asS'Bacteria.Firmicutes.Bacilli.Erysipelotrichales.Erysipelotrichaceae.Allobaculum.uncultured_Allobaculum'
p761
(lp762
F0.0
aF0.0
aF0.0
aF1041.3688896148976
aF0.0
aF0.0
aF0.0
aF0.0
aF0.0
asS'Bacteria.Firmicutes.Clostridia.Oscillospirales.Ruminococcaceae.uncultured'
p763
(lp764
F0.0
aF0.0
aF0.0
aF0.0
aF0.0
aF345.0029052876235
aF0.0
aF0.0
aF0.0
asS'Bacteria.Patescibacteria.Saccharimonadia.Saccharimonadales.Saccharimonadaceae.Candidatus_Saccharimonas'
p765
(lp766
F3738.705992314882
aF15088.757396449706
aF32511.120097048108
aF551.3129415608281
aF12681.159420289852
aF2306.0720511330624
aF28468.530269250547
aF851.5978665232398
aF0.0
asS'Bacteria.Firmicutes.Bacilli.Erysipelotrichales.Erysipelotrichaceae.Turicibacter'
p767
(lp768
F109772.56205213418
aF20636.094674556218
aF5337.646583097451
aF83738.31012373911
aF5434.782608695651
aF4067.402672864613
aF9661.007260046872
aF1075.7025682398817
aF3838.101884159106
asS'Bacteria.Firmicutes.Bacilli.Erysipelotrichales.Erysipelatoclostridiaceae.Erysipelatoclostridium'
p769
(lp770
F0.0
aF0.0
aF1213.1014961585117
aF0.0
aF0.0
aF0.0
aF0.0
aF0.0
aF0.0
asS'Bacteria.Patescibacteria.Saccharimonadia'
p771
(lp772
F3738.705992314882
aF15088.757396449706
aF32511.120097048108
aF551.3129415608281
aF12681.159420289852
aF2415.0203370133645
aF28468.530269250547
aF851.5978665232398
aF0.0
asS'Bacteria.Firmicutes.Clostridia.Oscillospirales.Oscillospiraceae'
p773
(lp774
F3738.705992314882
aF0.0
aF11322.280630812775
aF0.0
aF0.0
aF31032.103428239396
aF12347.796261361682
aF2823.71924162969
aF0.0
asS'Bacteria.Campylobacterota'
p775
(lp776
F0.0
aF0.0
aF0.0
aF0.0
aF0.0
aF2306.0720511330624
aF0.0
aF0.0
aF0.0
asS'Bacteria.Firmicutes.Clostridia.Lachnospirales.Lachnospiraceae.Marvinbryantia.uncultured_bacterium'
p777
(lp778
F0.0
aF0.0
aF17630.408410837037
aF530.8939437252419
aF0.0
aF2905.287623474724
aF0.0
aF2509.972659226391
aF0.0
asS'Bacteria.Gemmatimonadota.Gemmatimonadetes.Gemmatimonadales.Gemmatimonadaceae.uncultured.uncultured_bacterium'
p779
(lp780
F0.0
aF0.0
aF0.0
aF0.0
aF2846.79089026915
aF0.0
aF0.0
aF0.0
aF0.0
asS'Bacteria.Actinobacteriota.Coriobacteriia.Coriobacteriales.Coriobacteriales_Incertae_Sedis'
p781
(lp782
F0.0
aF443.78698224852076
aF0.0
aF387.96095887613825
aF0.0
aF508.42533410807664
aF0.0
aF0.0
aF1744.5917655268663
asS'Bacteria'
p783
(lp784
F1000000.0
aF1000000.0
aF1000000.0
aF1000000.0
aF1000000.0
aF1000000.0
aF1000000.0
aF1000000.0
aF1000000.0
asS'Bacteria.Proteobacteria.Gammaproteobacteria.Burkholderiales.Comamonadaceae.Delftia'
p785
(lp786
F1557.7941634645342
aF45488.16568047338
aF3558.431055398301
aF5635.6434026217985
aF0.0
aF1924.7530505520047
aF2858.2861716115003
aF761.955985836583
aF8374.040474528958
asS'Bacteria.Chloroflexi.Anaerolineae'
p787
(lp788
F0.0
aF0.0
aF0.0
aF0.0
aF0.0
aF0.0
aF457.3257874578401
aF0.0
aF0.0
assS'subclass_sl'
p789
(dp790
g12
(I0
I5
tp791
sg10
(I5
I9
tp792
ssS'norm'
p793
F1000000.0
sS'cls'
p794
(dp795
S'class'
p796
(S'HSD-NC'
p797
S'HSD-NC'
p798
S'HSD-NC'
p799
S'HSD-NC'
p800
g5
S'HSD-NR'
p801
S'HSD-NR'
p802
S'HSD-NR'
p803
g3
tp804
sS'subclass'
p805
(lp806
S'HSD-NC_subcl'
p807
aS'HSD-NC_subcl'
p808
aS'HSD-NC_subcl'
p809
aS'HSD-NC_subcl'
p810
ag12
aS'HSD-NR_subcl'
p811
aS'HSD-NR_subcl'
p812
aS'HSD-NR_subcl'
p813
ag10
asS'subject'
p814
(S'S210421121698'
p815
S'S210421121699'
p816
S'S210421121700'
p817
S'S210421121701'
p818
S'S210421121702'
p819
S'S210421121707'
p820
S'S210421121708'
p821
S'S210421121709'
p822
S'S210421121710'
p823
tp824
ss.