(dp0
S'class_sl'
p1
(dp2
S'HSD-NR'
p3
(I5
I9
tp4
sS'HSD-NC'
p5
(I0
I5
tp6
ssS'class_hierarchy'
p7
(dp8
g3
(lp9
S'HSD-NR_subcl'
p10
asg5
(lp11
S'HSD-NC_subcl'
p12
assS'feats'
p13
(dp14
S'Bacteria.Firmicutes.Bacilli.Acholeplasmatales'
p15
(lp16
F0.0
aF295.8579881656805
aF0.0
aF61.25699350675867
aF0.0
aF254.21266705403826
aF0.0
aF0.0
aF0.0
asS'Bacteria.Firmicutes.Clostridia.Peptostreptococcales_Tissierellales.Anaerovoracaceae'
p17
(lp18
F0.0
aF0.0
aF0.0
aF0.0
aF0.0
aF272.3707147007553
aF0.0
aF0.0
aF0.0
asS'Bacteria.Firmicutes.Clostridia.Oscillospirales.UCG_010'
p19
(lp20
F0.0
aF0.0
aF0.0
aF0.0
aF0.0
aF653.6897152818127
aF0.0
aF0.0
aF0.0
asS'Bacteria.Desulfobacterota.Desulfovibrionia.Desulfovibrionales.Desulfovibrionaceae.Desulfovibrio'
p21
(lp22
F1869.3529961574402
aF4585.798816568048
aF0.0
aF0.0
aF0.0
aF12038.785589773384
aF14462.928028354192
aF0.0
aF0.0
asS'Bacteria.Actinobacteriota.Actinobacteria.Bifidobacteriales'
p23
(lp24
F7685.117873091699
aF10355.02958579882
aF4609.785685402345
aF163.3519826846898
aF0.0
aF0.0
aF13891.270794031892
aF49168.571556631265
aF5582.6936496859735
asS'Bacteria.Cyanobacteria.Vampirivibrionia.Gastranaerophilales.Gastranaerophilales'
p25
(lp26
F519.2647211548446
aF0.0
aF0.0
aF0.0
aF0.0
aF1325.5374782103424
aF0.0
aF0.0
aF0.0
asS'Bacteria.Firmicutes.Clostridia.Clostridiales.Clostridiaceae.Candidatus_Arthromitus'
p27
(lp28
F0.0
aF0.0
aF0.0
aF0.0
aF0.0
aF599.2155723416618
aF0.0
aF0.0
aF0.0
asS'Bacteria.Firmicutes.Clostridia.Oscillospirales.uncultured'
p29
(lp30
F0.0
aF0.0
aF0.0
aF0.0
aF0.0
aF326.84485764090635
aF0.0
aF0.0
aF0.0
asS'Bacteria.Acidobacteriota.Acidobacteriae.Bryobacterales'
p31
(lp32
F0.0
aF0.0
aF0.0
aF0.0
aF0.0
aF0.0
aF685.9886811867601
aF0.0
aF0.0
asS'Bacteria.Proteobacteria.Alphaproteobacteria.Caulobacterales.Caulobacteraceae.Brevundimonas'
p33
(lp34
F0.0
aF961.5384615384618
aF0.0
aF632.988932903173
aF0.0
aF0.0
aF0.0
aF0.0
aF0.0
asS'Bacteria.Actinobacteriota.Actinobacteria.Streptomycetales'
p35
(lp36
F0.0
aF0.0
aF0.0
aF0.0
aF0.0
aF0.0
aF0.0
aF0.0
aF3489.1835310537335
asS'Bacteria.Firmicutes.Clostridia.Lachnospirales.Lachnospiraceae.Lachnospiraceae_UCG_006'
p37
(lp38
F3219.441271160036
aF0.0
aF0.0
aF0.0
aF0.0
aF4430.563625798953
aF0.0
aF0.0
aF0.0
asS'Bacteria.Firmicutes.Clostridia.Peptostreptococcales_Tissierellales.Anaerovoracaceae.Anaerovorax'
p39
(lp40
F0.0
aF0.0
aF0.0
aF204.18997835586225
aF0.0
aF0.0
aF0.0
aF0.0
aF0.0
asS'Bacteria.Bacteroidota.Bacteroidia.Bacteroidales.Prevotellaceae.Prevotellaceae_UCG_003'
p41
(lp42
F0.0
aF0.0
aF0.0
aF0.0
aF0.0
aF0.0
aF0.0
aF0.0
aF3140.2651779483604
asS'Bacteria.Bacteroidota.Bacteroidia.Bacteroidales.Prevotellaceae.Prevotellaceae_UCG_001'
p43
(lp44
F0.0
aF8653.846153846156
aF0.0
aF592.1509372320005
aF0.0
aF2560.2847181870998
aF5087.749385468471
aF761.955985836583
aF0.0
asS'Bacteria.Firmicutes.Clostridia.Lachnospirales.Lachnospiraceae.Lachnospiraceae_UCG_001'
p45
(lp46
F1557.7941634645335
aF0.0
aF0.0
aF0.0
aF0.0
aF0.0
aF0.0
aF0.0
aF0.0
asS'Bacteria.Proteobacteria.Gammaproteobacteria'
p47
(lp48
F21912.97123273444
aF122041.42011834323
aF35341.69025475132
aF23420.5905174174
aF31832.298136645968
aF12692.475305055199
aF30526.49631281082
aF29268.074044193454
aF63503.14026517795
asS'Bacteria.Firmicutes.Clostridia.Clostridia_vadinBB60_group.Clostridia_vadinBB60_group'
p49
(lp50
F0.0
aF0.0
aF566.1140315406388
aF0.0
aF0.0
aF562.8994770482277
aF0.0
aF0.0
aF0.0
asS'Bacteria.Actinobacteriota.Actinobacteria.Micrococcales.Micrococcaceae.Rothia'
p51
(lp52
F0.0
aF0.0
aF0.0
aF0.0
aF0.0
aF417.63509587449147
aF0.0
aF0.0
aF0.0
asS'Bacteria.Bacteroidota.Bacteroidia.Bacteroidales.Prevotellaceae'
p53
(lp54
F0.0
aF10059.171597633138
aF2507.076425394258
aF898.4359047657939
aF0.0
aF6736.6356769320155
aF13548.276453438511
aF19631.571870377844
aF17096.99930216329
asS'Bacteria.Firmicutes.Bacilli.Erysipelotrichales.Erysipelatoclostridiaceae.Erysipelotrichaceae_UCG_003'
p55
(lp56
F1557.7941634645335
aF0.0
aF0.0
aF0.0
aF0.0
aF5483.73038930854
aF0.0
aF0.0
aF0.0
asS'Bacteria.Bacteroidota.Bacteroidia.Chitinophagales.Chitinophagaceae'
p57
(lp58
F0.0
aF0.0
aF0.0
aF0.0
aF0.0
aF0.0
aF857.4858514834501
aF0.0
aF0.0
asS'Bacteria.Bacteroidota.Bacteroidia.Bacteroidales.Rikenellaceae'
p59
(lp60
F0.0
aF0.0
aF0.0
aF204.18997835586225
aF0.0
aF1143.9570017431722
aF0.0
aF4302.810272959527
aF0.0
asS'Bacteria.Acidobacteriota'
p61
(lp62
F0.0
aF0.0
aF0.0
aF0.0
aF0.0
aF0.0
aF685.9886811867601
aF0.0
aF0.0
asS'Bacteria.Verrucomicrobiota.Verrucomicrobiae.Verrucomicrobiales.Akkermansiaceae.Akkermansia'
p63
(lp64
F0.0
aF887.5739644970416
aF21188.839466235342
aF24400.702413525538
aF10093.167701863355
aF1071.3248111563041
aF914.6515749156802
aF55533.1450853839
aF142009.76971388696
asS'Bacteria.Firmicutes.Clostridia.Peptostreptococcales_Tissierellales.Peptostreptococcaceae.Romboutsia'
p65
(lp66
F168241.76965416962
aF23668.639053254443
aF17873.028710068742
aF56111.40605219094
aF8281.573498964804
aF25294.160371876813
aF0.0
aF5109.587199139439
aF5233.7752965806
asS'Bacteria.Bacteroidota.Bacteroidia.Bacteroidales.Rikenellaceae.Alistipes'
p67
(lp68
F0.0
aF0.0
aF0.0
aF204.18997835586225
aF0.0
aF1143.9570017431722
aF0.0
aF4302.810272959527
aF0.0
asS'Bacteria.Firmicutes.Clostridia.Lachnospirales.Lachnospiraceae.Lachnospiraceae_NK4A136_group'
p69
(lp70
F0.0
aF4215.976331360948
aF12292.761827739589
aF3144.5256666802784
aF14751.552795031055
aF4557.669959325972
aF8346.19562110558
aF5333.69190085608
aF0.0
asS'Bacteria.Firmicutes.Bacilli.Exiguobacterales.Exiguobacteraceae.Exiguobacterium'
p71
(lp72
F0.0
aF0.0
aF0.0
aF0.0
aF0.0
aF0.0
aF0.0
aF717.1350454932546
aF0.0
asS'Bacteria.Firmicutes.Clostridia.Lachnospirales.Lachnospiraceae.Roseburia'
p73
(lp74
F2077.058884619378
aF0.0
aF0.0
aF0.0
aF0.0
aF6101.104009296919
aF0.0
aF358.5675227466273
aF0.0
asS'Bacteria.Firmicutes.Clostridia.Lachnospirales.Lachnospiraceae.Anaerostipes'
p75
(lp76
F0.0
aF0.0
aF0.0
aF0.0
aF0.0
aF3050.5520046484594
aF0.0
aF0.0
aF0.0
asS'Bacteria.Firmicutes.Clostridia.Peptococcales.Peptococcaceae.Peptococcus'
p77
(lp78
F0.0
aF0.0
aF0.0
aF81.6759913423449
aF0.0
aF0.0
aF0.0
aF0.0
aF0.0
asS'Bacteria.Firmicutes.Bacilli.Erysipelotrichales.Erysipelotrichaceae.uncultured'
p79
(lp80
F2596.3236057742224
aF26035.502958579887
aF0.0
aF530.8939437252419
aF0.0
aF2669.233004067402
aF14462.928028354192
aF0.0
aF0.0
asS'Bacteria.Cyanobacteria.Cyanobacteriia.Chloroplast.Chloroplast'
p81
(lp82
F0.0
aF0.0
aF0.0
aF0.0
aF0.0
aF0.0
aF457.3257874578401
aF0.0
aF0.0
asS'Bacteria.Actinobacteriota.Actinobacteria.Bifidobacteriales.Bifidobacteriaceae.Bifidobacterium'
p83
(lp84
F7685.117873091699
aF10355.02958579882
aF4609.785685402345
aF163.3519826846898
aF0.0
aF0.0
aF13891.270794031892
aF49168.571556631265
aF5582.6936496859735
asS'Bacteria.Bacteroidota.Bacteroidia.Bacteroidales.Prevotellaceae.Prevotella_9'
p85
(lp86
F0.0
aF0.0
aF0.0
aF0.0
aF0.0
aF599.2155723416618
aF0.0
aF0.0
aF0.0
asS'Bacteria.Bacteroidota.Bacteroidia'
p87
(lp88
F1973.205940388409
aF210576.9230769231
aF32915.48726243429
aF22093.355658104294
aF569616.9772256728
aF89392.0685647879
aF511576.05899502634
aF115638.02608578729
aF90369.85345429169
asS'Bacteria.Firmicutes.Bacilli.Lactobacillales.Lactobacillaceae.Lactobacillus'
p89
(lp90
F27417.177276975788
aF1923.0769230769235
aF1779.215527699151
aF1776.4528116960016
aF0.0
aF3486.345148169668
aF13776.939347167432
aF4706.198736049483
aF0.0
asS'Bacteria.Firmicutes.Bacilli.Staphylococcales.Staphylococcaceae.Staphylococcus'
p91
(lp92
F1765.5000519264713
aF0.0
aF1617.4686615446824
aF0.0
aF0.0
aF562.8994770482277
aF1943.6345966958202
aF0.0
aF0.0
asS'Bacteria.Firmicutes.Bacilli.RF39.RF39.RF39'
p93
(lp94
F4257.970713469725
aF26775.147928994087
aF12211.888394662354
aF2082.7377792297953
aF2846.790890269151
aF3450.0290528762343
aF14062.767964328581
aF1120.5235085832103
aF0.0
asS'Bacteria.Campylobacterota.Campylobacteria.Campylobacterales'
p95
(lp96
F0.0
aF0.0
aF0.0
aF0.0
aF0.0
aF2306.072051133062
aF0.0
aF0.0
aF0.0
asS'Bacteria.Firmicutes.Bacilli.Erysipelotrichales.Erysipelotrichaceae.Allobaculum'
p97
(lp98
F0.0
aF7914.201183431955
aF17064.2943792964
aF1041.3688896148976
aF0.0
aF1307.3794305636254
aF1714.9717029669002
aF20214.244094841113
aF55826.93649685974
asS'Bacteria.Proteobacteria.Alphaproteobacteria.Rhizobiales.Rhizobiaceae'
p99
(lp100
F934.6764980787201
aF6065.088757396451
aF646.987464617873
aF1286.3968636419322
aF0.0
aF0.0
aF0.0
aF224.10470171664204
aF0.0
asS'Bacteria.Proteobacteria.Alphaproteobacteria.Rhodobacterales'
p101
(lp102
F0.0
aF0.0
aF0.0
aF0.0
aF0.0
aF0.0
aF1257.6459155090604
aF0.0
aF0.0
asS'Bacteria.Desulfobacterota'
p103
(lp104
F1869.3529961574402
aF4585.798816568048
aF0.0
aF0.0
aF0.0
aF12038.785589773384
aF14462.928028354192
aF0.0
aF0.0
asS'Bacteria.Firmicutes.Bacilli.Lactobacillales.Aerococcaceae.Aerococcus'
p105
(lp106
F1246.2353307716269
aF813.6094674556215
aF0.0
aF0.0
aF0.0
aF272.3707147007553
aF0.0
aF0.0
aF0.0
asS'Bacteria.Actinobacteriota.Coriobacteriia.Coriobacteriales.uncultured.uncultured'
p107
(lp108
F5296.500155779414
aF5917.159763313611
aF7925.596441568945
aF3900.0285865969686
aF3364.3892339544514
aF7245.061011040091
aF2400.96038415366
aF3182.286764376317
aF0.0
asS'Bacteria.Firmicutes.Bacilli.Erysipelotrichales.Erysipelotrichaceae.Faecalibaculum'
p109
(lp110
F0.0
aF0.0
aF0.0
aF1735.614816024829
aF0.0
aF635.5316676350958
aF0.0
aF0.0
aF0.0
asS'Bacteria.Firmicutes.Clostridia.Monoglobales'
p111
(lp112
F2284.7647730813155
aF0.0
aF79094.21754953498
aF1960.2237922162774
aF26397.515527950312
aF11566.676350958742
aF14405.762304921962
aF30343.776612433332
aF7327.28541521284
asS'Bacteria.Cyanobacteria.Vampirivibrionia'
p113
(lp114
F519.2647211548446
aF0.0
aF0.0
aF0.0
aF0.0
aF1325.5374782103424
aF0.0
aF0.0
aF0.0
asS'Bacteria.Actinobacteriota.Coriobacteriia.Coriobacteriales.Eggerthellaceae.Gordonibacter'
p115
(lp116
F0.0
aF0.0
aF0.0
aF0.0
aF0.0
aF0.0
aF1200.48019207683
aF0.0
aF0.0
asS'Bacteria.Cyanobacteria.Vampirivibrionia.Gastranaerophilales'
p117
(lp118
F519.2647211548446
aF0.0
aF0.0
aF0.0
aF0.0
aF1325.5374782103424
aF0.0
aF0.0
aF0.0
asS'Bacteria.Bacteroidota.Bacteroidia.Bacteroidales.Muribaculaceae.Muribaculaceae'
p119
(lp120
F1973.205940388409
aF165532.54437869825
aF30408.41083704003
aF19561.399926491606
aF569616.9772256728
aF78951.1911679256
aF465729.14880237787
aF82111.96270897765
aF70481.50732728542
asS'Bacteria.Actinobacteriota.Coriobacteriia.Coriobacteriales'
p121
(lp122
F14020.1474711808
aF14940.82840236687
aF18924.383340072785
aF19193.85796545105
aF3364.3892339544514
aF21807.815223707144
aF7831.704110215512
aF22634.574873380847
aF23377.529658060015
asS'Bacteria.Proteobacteria.Alphaproteobacteria.Rhizobiales.Rhizobiaceae.Allorhizobium_Neorhizobium_Pararhizobium_Rhizobium'
p123
(lp124
F934.6764980787201
aF6065.088757396451
aF646.987464617873
aF1286.3968636419322
aF0.0
aF0.0
aF0.0
aF224.10470171664204
aF0.0
asS'Bacteria.Bacteroidota.Bacteroidia.Bacteroidales.Prevotellaceae.Prevotellaceae_NK3B31_group'
p125
(lp126
F0.0
aF1405.3254437869825
aF2507.076425394258
aF306.2849675337934
aF0.0
aF3577.135386403253
aF8460.52706797004
aF18869.61588454126
aF13956.734124214934
asS'Bacteria.Bacteroidota.Bacteroidia.Chitinophagales.Chitinophagaceae.Sediminibacterium'
p127
(lp128
F0.0
aF0.0
aF0.0
aF0.0
aF0.0
aF0.0
aF857.4858514834501
aF0.0
aF0.0
asS'Bacteria.Chloroflexi.Anaerolineae.Anaerolineales.Anaerolineaceae.uncultured'
p129
(lp130
F0.0
aF0.0
aF0.0
aF0.0
aF0.0
aF0.0
aF457.3257874578401
aF0.0
aF0.0
asS'Bacteria.Firmicutes.Clostridia.Lachnospirales.Lachnospiraceae.Frisingicoccus'
p131
(lp132
F0.0
aF7174.556213017753
aF1213.101496158512
aF0.0
aF0.0
aF0.0
aF0.0
aF0.0
aF0.0
asS'Bacteria.Desulfobacterota.Desulfovibrionia'
p133
(lp134
F1869.3529961574402
aF4585.798816568048
aF0.0
aF0.0
aF0.0
aF12038.785589773384
aF14462.928028354192
aF0.0
aF0.0
asS'Bacteria.Firmicutes.Clostridia.Clostridia_UCG_014.Clostridia_UCG_014'
p135
(lp136
F69996.88441167303
aF278476.3313609468
aF267852.8103517994
aF36488.749132192585
aF62111.801242236026
aF336214.41022661235
aF129366.03212713651
aF97530.36618708262
aF74319.60921144452
asS'Bacteria.Actinobacteriota.Coriobacteriia.Coriobacteriales.Coriobacteriales_Incertae_Sedis'
p137
(lp138
F0.0
aF443.7869822485208
aF0.0
aF387.96095887613825
aF0.0
aF508.4253341080765
aF0.0
aF0.0
aF1744.5917655268668
asS'Bacteria.Firmicutes.Clostridia.Oscillospirales.Oscillospiraceae.NK4A214_group'
p139
(lp140
F0.0
aF0.0
aF7197.735543873838
aF0.0
aF0.0
aF5302.14991284137
aF3201.280512204881
aF2375.509838196406
aF0.0
asS'Bacteria.Firmicutes.Clostridia.Oscillospirales.Ruminococcaceae.CAG_352'
p141
(lp142
F0.0
aF0.0
aF1617.4686615446824
aF1020.9498917793111
aF10610.766045548655
aF0.0
aF3772.9377465271805
aF8336.694903859085
aF4187.02023726448
asS'Bacteria.Desulfobacterota.Desulfovibrionia.Desulfovibrionales'
p143
(lp144
F1869.3529961574402
aF4585.798816568048
aF0.0
aF0.0
aF0.0
aF12038.785589773384
aF14462.928028354192
aF0.0
aF0.0
asS'Bacteria.Actinobacteriota.Coriobacteriia.Coriobacteriales.Coriobacteriales_Incertae_Sedis.uncultured'
p145
(lp146
F0.0
aF443.7869822485208
aF0.0
aF387.96095887613825
aF0.0
aF508.4253341080765
aF0.0
aF0.0
aF1744.5917655268668
asS'Bacteria.Firmicutes.Bacilli.RF39.RF39'
p147
(lp148
F4257.970713469725
aF26775.147928994087
aF12211.888394662354
aF2082.7377792297953
aF2846.790890269151
aF3450.0290528762343
aF14062.767964328581
aF1120.5235085832103
aF0.0
asS'Bacteria.Proteobacteria.Gammaproteobacteria.Pseudomonadales.Moraxellaceae.Acinetobacter'
p149
(lp150
F0.0
aF0.0
aF0.0
aF2736.145709968554
aF0.0
aF0.0
aF0.0
aF672.314105149926
aF0.0
asS'Bacteria.Firmicutes.Bacilli'
p151
(lp152
F176030.7404714923
aF115754.43786982252
aF54589.56732713304
aF97786.58063462243
aF8281.573498964804
aF29997.094712376518
aF80432.17286914763
aF37649.58988839587
aF71179.34403349615
asS'Bacteria.Firmicutes.Clostridia.Clostridia_vadinBB60_group'
p153
(lp154
F0.0
aF0.0
aF566.1140315406388
aF0.0
aF0.0
aF562.8994770482277
aF0.0
aF0.0
aF0.0
asS'Bacteria.Bacteroidota.Bacteroidia.Chitinophagales'
p155
(lp156
F0.0
aF0.0
aF0.0
aF0.0
aF0.0
aF0.0
aF857.4858514834501
aF0.0
aF0.0
asS'Bacteria.Proteobacteria.Gammaproteobacteria.Burkholderiales.Alcaligenaceae.Achromobacter'
p157
(lp158
F0.0
aF3476.3313609467464
aF0.0
aF714.6649242455179
aF0.0
aF0.0
aF0.0
aF896.4188068665682
aF0.0
asS'Bacteria.Firmicutes.Clostridia.Oscillospirales.Oscillospiraceae.Colidextribacter'
p159
(lp160
F0.0
aF0.0
aF0.0
aF0.0
aF0.0
aF9296.920395119114
aF5659.4066197907705
aF0.0
aF0.0
asS'Bacteria.Bacteroidota.Bacteroidia.Bacteroidales.Tannerellaceae'
p161
(lp162
F0.0
aF1109.467455621302
aF0.0
aF0.0
aF0.0
aF217.89657176060425
aF0.0
aF5423.333781542738
aF0.0
asS'Bacteria.Proteobacteria.Gammaproteobacteria.Burkholderiales.Sutterellaceae'
p163
(lp164
F0.0
aF2810.650887573965
aF0.0
aF0.0
aF0.0
aF472.10923881464254
aF0.0
aF8022.948321455785
aF0.0
asS'Bacteria.Firmicutes.Clostridia.Clostridiales.Clostridiaceae.Clostridium_sensu_stricto_1'
p165
(lp166
F402326.3059507735
aF18639.053254437873
aF16983.42094621917
aF658737.2891738472
aF12681.159420289856
aF9750.871586287041
aF15091.750986108722
aF1613.5538523598227
aF0.0
asS'Bacteria.Patescibacteria.Saccharimonadia.Saccharimonadales.Saccharimonadaceae'
p167
(lp168
F3738.7059923148804
aF15088.757396449708
aF32511.12009704812
aF551.3129415608281
aF12681.159420289856
aF2306.072051133062
aF28468.530269250547
aF851.5978665232398
aF0.0
asS'Bacteria.Firmicutes.Clostridia.Lachnospirales.Lachnospiraceae.GCA_900066575'
p169
(lp170
F0.0
aF0.0
aF0.0
aF0.0
aF0.0
aF853.4282393957
aF0.0
aF0.0
aF0.0
asS'Bacteria.Proteobacteria.Alphaproteobacteria.Rhizobiales'
p171
(lp172
F934.6764980787201
aF6065.088757396451
aF646.987464617873
aF1286.3968636419322
aF0.0
aF0.0
aF0.0
aF224.10470171664204
aF0.0
asS'Bacteria.Firmicutes.Clostridia.Lachnospirales.Defluviitaleaceae.Defluviitaleaceae_UCG_011'
p173
(lp174
F0.0
aF0.0
aF0.0
aF0.0
aF0.0
aF1289.2213829169084
aF0.0
aF0.0
aF0.0
asS'Bacteria.Firmicutes.Bacilli.RF39'
p175
(lp176
F4257.970713469725
aF26775.147928994087
aF12211.888394662354
aF2082.7377792297953
aF2846.790890269151
aF3450.0290528762343
aF14062.767964328581
aF1120.5235085832103
aF0.0
asS'Bacteria.Firmicutes.Clostridia.Peptostreptococcales_Tissierellales'
p177
(lp178
F0.0
aF0.0
aF0.0
aF0.0
aF0.0
aF217.89657176060425
aF0.0
aF0.0
aF0.0
asS'Bacteria.Actinobacteriota.Actinobacteria.Corynebacteriales'
p179
(lp180
F5919.617821165227
aF0.0
aF0.0
aF0.0
aF0.0
aF0.0
aF0.0
aF0.0
aF0.0
asS'Bacteria.Verrucomicrobiota'
p181
(lp182
F0.0
aF887.5739644970416
aF21188.839466235342
aF24400.702413525538
aF10093.167701863355
aF1071.3248111563041
aF914.6515749156802
aF55533.1450853839
aF142009.76971388696
asS'Bacteria.Firmicutes.Bacilli.Staphylococcales'
p183
(lp184
F5711.9119327032895
aF0.0
aF1617.4686615446824
aF0.0
aF0.0
aF907.902382335851
aF1943.6345966958202
aF0.0
aF0.0
asS'Bacteria.Firmicutes.Clostridia.Christensenellales.Christensenellaceae.Christensenellaceae_R_7_group'
p185
(lp186
F41541.17769238756
aF29807.692307692316
aF3720.17792155277
aF3859.190590925796
aF0.0
aF13872.748402091804
aF21437.146287086252
aF1568.7329120164943
aF0.0
asS'Bacteria.Verrucomicrobiota.Verrucomicrobiae.Verrucomicrobiales'
p187
(lp188
F0.0
aF887.5739644970416
aF21188.839466235342
aF24400.702413525538
aF10093.167701863355
aF1071.3248111563041
aF914.6515749156802
aF55533.1450853839
aF142009.76971388696
asS'Bacteria.Actinobacteriota.Actinobacteria.Micrococcales.Dermabacteraceae'
p189
(lp190
F0.0
aF0.0
aF0.0
aF0.0
aF0.0
aF217.89657176060425
aF0.0
aF0.0
aF0.0
asS'Bacteria.Bacteroidota.Bacteroidia.Bacteroidales'
p191
(lp192
F1973.205940388409
aF210576.9230769231
aF32915.48726243429
aF20847.796790133536
aF569616.9772256728
aF89137.85589773385
aF510718.573143543
aF115638.02608578729
aF90369.85345429169
asS'Bacteria.Proteobacteria.Gammaproteobacteria.Pseudomonadales'
p193
(lp194
F0.0
aF27884.615384615394
aF970.4811969268095
aF5411.034426430349
aF0.0
aF1634.2242882045318
aF0.0
aF2778.8983012863614
aF15003.489183531054
asS'Bacteria.Actinobacteriota.Coriobacteriia'
p195
(lp196
F14020.1474711808
aF14940.82840236687
aF18924.383340072785
aF19193.85796545105
aF3364.3892339544514
aF21807.815223707144
aF7831.704110215512
aF22634.574873380847
aF23377.529658060015
asS'Bacteria.Firmicutes.Bacilli.Lactobacillales'
p197
(lp198
F33648.353930833924
aF16272.18934911243
aF1779.215527699151
aF6268.6323355249715
aF0.0
aF7299.535153980242
aF14520.093751786422
aF6185.28976737932
aF0.0
asS'Bacteria.Proteobacteria.Gammaproteobacteria.Pseudomonadales.Moraxellaceae'
p199
(lp200
F0.0
aF0.0
aF0.0
aF2736.145709968554
aF0.0
aF0.0
aF0.0
aF672.314105149926
aF0.0
asS'Bacteria.Actinobacteriota.Actinobacteria.Corynebacteriales.Corynebacteriaceae'
p201
(lp202
F5919.617821165227
aF0.0
aF0.0
aF0.0
aF0.0
aF0.0
aF0.0
aF0.0
aF0.0
asS'Bacteria.Firmicutes.Clostridia.Oscillospirales.Oscillospiraceae.uncultured'
p203
(lp204
F0.0
aF6582.840236686392
aF12211.888394662354
aF1490.5868419977944
aF33126.29399585922
aF14944.073213248108
aF10461.327388098092
aF0.0
aF0.0
asS'Bacteria.Cyanobacteria.Cyanobacteriia.Chloroplast.Chloroplast.Chloroplast'
p205
(lp206
F0.0
aF0.0
aF0.0
aF0.0
aF0.0
aF0.0
aF457.3257874578401
aF0.0
aF0.0
asS'Bacteria.Firmicutes.Clostridia.Lachnospirales.Lachnospiraceae._Eubacterium__ventriosum_group'
p207
(lp208
F0.0
aF0.0
aF1374.84836231298
aF0.0
aF4917.184265010352
aF980.5345729227191
aF0.0
aF0.0
aF0.0
asS'Bacteria.Firmicutes.Clostridia.Lachnospirales.Lachnospiraceae.Lachnoclostridium'
p209
(lp210
F0.0
aF0.0
aF0.0
aF714.6649242455179
aF21997.92960662526
aF490.26728646135956
aF9203.68147258903
aF0.0
aF0.0
asS'Bacteria.Proteobacteria.Alphaproteobacteria.Rhodobacterales.Rhodobacteraceae'
p211
(lp212
F0.0
aF0.0
aF0.0
aF0.0
aF0.0
aF0.0
aF1257.6459155090604
aF0.0
aF0.0
asS'Bacteria.Patescibacteria'
p213
(lp214
F3738.7059923148804
aF15088.757396449708
aF32511.12009704812
aF551.3129415608281
aF12681.159420289856
aF2415.020337013364
aF28468.530269250547
aF851.5978665232398
aF0.0
asS'Bacteria.Firmicutes.Clostridia.Lachnospirales.Defluviitaleaceae'
p215
(lp216
F0.0
aF0.0
aF0.0
aF0.0
aF0.0
aF1289.2213829169084
aF0.0
aF0.0
aF0.0
asS'Bacteria.Actinobacteriota.Actinobacteria.Streptomycetales.Streptomycetaceae.Streptomyces'
p217
(lp218
F0.0
aF0.0
aF0.0
aF0.0
aF0.0
aF0.0
aF0.0
aF0.0
aF3489.1835310537335
asS'Bacteria.Actinobacteriota'
p219
(lp220
F27624.883165437728
aF25295.857988165684
aF23534.169025475127
aF19357.20994813574
aF3364.3892339544514
aF22443.346891342237
aF21722.974904247407
aF103939.7606561786
aF37683.18213538032
asS'Bacteria.Firmicutes.Clostridia.Oscillospirales.UCG_010.UCG_010'
p221
(lp222
F0.0
aF0.0
aF0.0
aF0.0
aF0.0
aF653.6897152818127
aF0.0
aF0.0
aF0.0
asS'Bacteria.Bacteroidota.Bacteroidia.Bacteroidales.Bacteroidaceae'
p223
(lp224
F0.0
aF33875.73964497042
aF0.0
aF183.77098052027603
aF0.0
aF2088.175479372457
aF31441.147887726504
aF4168.347451929542
aF2791.3468248429867
asS'Bacteria.Firmicutes.Bacilli.Staphylococcales.Staphylococcaceae.Jeotgalicoccus'
p225
(lp226
F3946.411880776818
aF0.0
aF0.0
aF0.0
aF0.0
aF345.0029052876234
aF0.0
aF0.0
aF0.0
asS'Bacteria.Gemmatimonadota.Gemmatimonadetes.Gemmatimonadales.Gemmatimonadaceae'
p227
(lp228
F0.0
aF0.0
aF0.0
aF0.0
aF2846.790890269151
aF0.0
aF0.0
aF0.0
aF0.0
asS'Bacteria.Firmicutes.Clostridia.Oscillospirales.Ruminococcaceae.UBA1819'
p229
(lp230
F0.0
aF0.0
aF0.0
aF0.0
aF0.0
aF708.1638582219639
aF0.0
aF672.314105149926
aF0.0
asS'Bacteria.Cyanobacteria.Vampirivibrionia.Gastranaerophilales.Gastranaerophilales.Gastranaerophilales'
p231
(lp232
F519.2647211548446
aF0.0
aF0.0
aF0.0
aF0.0
aF1325.5374782103424
aF0.0
aF0.0
aF0.0
asS'Bacteria.Proteobacteria.Gammaproteobacteria.Enterobacterales.Enterobacteriaceae'
p233
(lp234
F15577.941634645336
aF8949.704142011837
aF27820.46097856854
aF6656.593294401109
aF18633.540372670806
aF5774.259151656012
aF21551.477733950713
aF12325.758594415312
aF30006.978367062107
asS'Bacteria.Firmicutes.Bacilli.Erysipelotrichales'
p235
(lp236
F132412.50389448536
aF72411.24260355032
aF38980.994743226845
aF89373.95352636091
aF5434.782608695652
aF18085.41545613015
aF49905.676556336795
aF29626.641566940078
aF71179.34403349615
asS'Bacteria.Proteobacteria.Alphaproteobacteria.Rhodobacterales.Rhodobacteraceae.Rubellimicrobium'
p237
(lp238
F0.0
aF0.0
aF0.0
aF0.0
aF0.0
aF0.0
aF1257.6459155090604
aF0.0
aF0.0
asS'Bacteria.Firmicutes.Clostridia.Oscillospirales.Oscillospiraceae.Oscillospira'
p239
(lp240
F0.0
aF5103.55029585799
aF0.0
aF0.0
aF0.0
aF0.0
aF0.0
aF0.0
aF0.0
asS'Bacteria.Proteobacteria.Gammaproteobacteria.Burkholderiales.Oxalobacteraceae'
p241
(lp242
F0.0
aF0.0
aF0.0
aF428.7989545473107
aF13198.757763975156
aF0.0
aF0.0
aF0.0
aF0.0
asS'Bacteria.Chloroflexi.Anaerolineae.Anaerolineales'
p243
(lp244
F0.0
aF0.0
aF0.0
aF0.0
aF0.0
aF0.0
aF457.3257874578401
aF0.0
aF0.0
asS'Bacteria.Firmicutes.Clostridia.Monoglobales.Monoglobaceae'
p245
(lp246
F2284.7647730813155
aF0.0
aF79094.21754953498
aF1960.2237922162774
aF26397.515527950312
aF11566.676350958742
aF14405.762304921962
aF30343.776612433332
aF7327.28541521284
asS'Bacteria.Firmicutes.Clostridia.Christensenellales.Christensenellaceae'
p247
(lp248
F41541.17769238756
aF29807.692307692316
aF3720.17792155277
aF3859.190590925796
aF0.0
aF13872.748402091804
aF21437.146287086252
aF1568.7329120164943
aF0.0
asS'Bacteria.Firmicutes.Clostridia.Oscillospirales.Oscillospiraceae.Papillibacter'
p249
(lp250
F0.0
aF0.0
aF2345.3295592397894
aF0.0
aF0.0
aF0.0
aF0.0
aF0.0
aF0.0
asS'Bacteria.Chloroflexi.Anaerolineae.Anaerolineales.Anaerolineaceae'
p251
(lp252
F0.0
aF0.0
aF0.0
aF0.0
aF0.0
aF0.0
aF457.3257874578401
aF0.0
aF0.0
asS'Bacteria.Firmicutes.Clostridia.Peptococcales.Peptococcaceae'
p253
(lp254
F0.0
aF0.0
aF0.0
aF81.6759913423449
aF0.0
aF780.7960488088319
aF0.0
aF851.5978665232398
aF0.0
asS'Bacteria.Firmicutes.Clostridia.Oscillospirales.uncultured.uncultured'
p255
(lp256
F0.0
aF0.0
aF0.0
aF0.0
aF0.0
aF326.84485764090635
aF0.0
aF0.0
aF0.0
asS'Bacteria.Chloroflexi'
p257
(lp258
F0.0
aF0.0
aF0.0
aF0.0
aF0.0
aF0.0
aF457.3257874578401
aF0.0
aF0.0
asS'Bacteria.Firmicutes.Clostridia.Clostridia_UCG_014.Clostridia_UCG_014.Clostridia_UCG_014'
p259
(lp260
F69996.88441167303
aF278476.3313609468
aF267852.8103517994
aF36488.749132192585
aF62111.801242236026
aF336214.41022661235
aF129366.03212713651
aF97530.36618708262
aF74319.60921144452
asS'Bacteria.Proteobacteria.Gammaproteobacteria.Burkholderiales.Oxalobacteraceae.Herminiimonas'
p261
(lp262
F0.0
aF0.0
aF0.0
aF428.7989545473107
aF0.0
aF0.0
aF0.0
aF0.0
aF0.0
asS'Bacteria.Firmicutes.Bacilli.Lactobacillales.Lactobacillaceae.Limosilactobacillus'
p263
(lp264
F934.6764980787201
aF0.0
aF0.0
aF1429.3298484910358
aF0.0
aF562.8994770482277
aF743.15440461899
aF851.5978665232398
aF0.0
asS'Bacteria.Gemmatimonadota.Gemmatimonadetes.Gemmatimonadales.Gemmatimonadaceae.uncultured'
p265
(lp266
F0.0
aF0.0
aF0.0
aF0.0
aF2846.790890269151
aF0.0
aF0.0
aF0.0
aF0.0
asS'Bacteria.Actinobacteriota.Actinobacteria.Bifidobacteriales.Bifidobacteriaceae'
p267
(lp268
F7685.117873091699
aF10355.02958579882
aF4609.785685402345
aF163.3519826846898
aF0.0
aF0.0
aF13891.270794031892
aF49168.571556631265
aF5582.6936496859735
asS'Bacteria.Firmicutes.Clostridia.Lachnospirales.Lachnospiraceae._Eubacterium__xylanophilum_group'
p269
(lp270
F0.0
aF2218.934911242604
aF14233.724221593207
aF2205.2517662433124
aF16304.347826086956
aF3613.451481696687
aF1486.30880923798
aF0.0
aF10467.5505931612
asS'Bacteria.Firmicutes.Clostridia.Eubacteriales.Anaerofustaceae'
p271
(lp272
F0.0
aF0.0
aF404.3671653861706
aF0.0
aF0.0
aF0.0
aF0.0
aF1703.1957330464795
aF0.0
asS'Bacteria.Firmicutes.Clostridia.Lachnospirales.Lachnospiraceae.Sellimonas'
p273
(lp274
F0.0
aF0.0
aF0.0
aF0.0
aF0.0
aF0.0
aF0.0
aF672.314105149926
aF0.0
asS'Bacteria.Actinobacteriota.Coriobacteriia.Coriobacteriales.Atopobiaceae.Coriobacteriaceae_UCG_002'
p275
(lp276
F3219.441271160036
aF0.0
aF3801.051354630004
aF0.0
aF0.0
aF3577.135386403253
aF685.9886811867601
aF13042.893639908567
aF5582.6936496859735
asS'Bacteria.Proteobacteria.Gammaproteobacteria.Pseudomonadales.Pseudomonadaceae'
p277
(lp278
F0.0
aF27884.615384615394
aF970.4811969268095
aF2674.8887164617954
aF0.0
aF1634.2242882045318
aF0.0
aF2106.5841961364354
aF15003.489183531054
asS'Bacteria.Proteobacteria.Alphaproteobacteria.Caulobacterales.Caulobacteraceae'
p279
(lp280
F0.0
aF961.5384615384618
aF0.0
aF632.988932903173
aF0.0
aF0.0
aF0.0
aF0.0
aF0.0
asS'Bacteria.Firmicutes.Clostridia.Peptococcales'
p281
(lp282
F0.0
aF0.0
aF0.0
aF81.6759913423449
aF0.0
aF780.7960488088319
aF0.0
aF851.5978665232398
aF0.0
asS'Bacteria.Proteobacteria.Gammaproteobacteria.Pseudomonadales.Pseudomonadaceae.Pseudomonas'
p283
(lp284
F0.0
aF27884.615384615394
aF970.4811969268095
aF2674.8887164617954
aF0.0
aF1634.2242882045318
aF0.0
aF2106.5841961364354
aF15003.489183531054
asS'Bacteria.Firmicutes.Clostridia'
p285
(lp286
F765396.1989822411
aF498742.6035502959
aF799272.1391023048
aF810470.8620900885
aF361283.6438923396
aF826318.2742591517
aF309037.9008746353
aF656895.7016718212
aF595254.7103977669
asS'Bacteria.Firmicutes.Clostridia.Lachnospirales.Lachnospiraceae.Marvinbryantia'
p287
(lp288
F0.0
aF961.5384615384618
aF18843.509906995554
aF530.8939437252419
aF0.0
aF2905.287623474723
aF0.0
aF3720.138048496258
aF0.0
asS'Bacteria.Actinobacteriota.Actinobacteria.Micrococcales'
p289
(lp290
F0.0
aF0.0
aF0.0
aF0.0
aF0.0
aF635.5316676350958
aF0.0
aF0.0
aF0.0
asS'Bacteria.Firmicutes.Bacilli.Erysipelotrichales.Erysipelotrichaceae'
p291
(lp292
F130854.7097310208
aF71671.5976331361
aF37767.893247068336
aF89373.95352636091
aF5434.782608695652
aF11167.199302730967
aF49905.676556336795
aF29626.641566940078
aF71179.34403349615
asS'Bacteria.Cyanobacteria.Cyanobacteriia.Chloroplast'
p293
(lp294
F0.0
aF0.0
aF0.0
aF0.0
aF0.0
aF0.0
aF457.3257874578401
aF0.0
aF0.0
asS'Bacteria.Gemmatimonadota.Gemmatimonadetes.Gemmatimonadales'
p295
(lp296
F0.0
aF0.0
aF0.0
aF0.0
aF2846.790890269151
aF0.0
aF0.0
aF0.0
aF0.0
asS'Bacteria.Proteobacteria.Gammaproteobacteria.Enterobacterales.Pasteurellaceae'
p297
(lp298
F0.0
aF665.6804733727812
aF1374.84836231298
aF0.0
aF0.0
aF0.0
aF0.0
aF672.314105149926
aF0.0
asS'Bacteria.Actinobacteriota.Coriobacteriia.Coriobacteriales.Eggerthellaceae.Enterorhabdus'
p299
(lp300
F0.0
aF4437.869822485208
aF2749.69672462596
aF9862.375954588148
aF0.0
aF1924.7530505520042
aF3544.2748527982603
aF941.2397472098966
aF0.0
asS'Bacteria.Firmicutes.Clostridia.Lachnospirales.Lachnospiraceae._Bacteroides__pectinophilus_group'
p301
(lp302
F0.0
aF1035.502958579882
aF1132.2280630812777
aF0.0
aF0.0
aF0.0
aF0.0
aF0.0
aF0.0
asS'Bacteria.Proteobacteria.Gammaproteobacteria.Burkholderiales'
p303
(lp304
F6335.029598089103
aF84541.42011834322
aF5175.899716942984
aF11352.962796585942
aF13198.757763975156
aF5283.991865194653
aF8975.018578860112
aF13491.10304334185
aF18492.672714584787
asS'Bacteria.Firmicutes'
p305
(lp306
F941426.9394537334
aF614497.0414201184
aF853861.7064294381
aF908257.4427247111
aF369565.2173913043
aF856315.3689715283
aF389470.073743783
aF694545.2915602169
aF666434.0544312631
asS'Bacteria.Firmicutes.Clostridia.Oscillospirales.Ruminococcaceae.Ruminococcus'
p307
(lp308
F2284.7647730813155
aF5695.26627218935
aF8896.077638495753
aF32384.530567239748
aF7505.175983436853
aF11185.357350377684
aF11547.476133310462
aF10084.711577248892
aF4535.938590369853
asS'Bacteria.Firmicutes.Clostridia.Monoglobales.Monoglobaceae.Monoglobus'
p309
(lp310
F2284.7647730813155
aF0.0
aF79094.21754953498
aF1960.2237922162774
aF26397.515527950312
aF11566.676350958742
aF14405.762304921962
aF30343.776612433332
aF7327.28541521284
asS'Bacteria.Proteobacteria'
p311
(lp312
F22847.64773081316
aF129068.04733727814
aF35988.677719369196
aF25339.976313962503
aF31832.298136645968
aF12692.475305055199
aF31784.142228319884
aF29492.178745910096
aF63503.14026517795
asS'Bacteria.Proteobacteria.Gammaproteobacteria.Burkholderiales.Alcaligenaceae.Alcaligenes'
p313
(lp314
F0.0
aF0.0
aF0.0
aF408.3799567117245
aF0.0
aF0.0
aF0.0
aF0.0
aF0.0
asS'Bacteria.Firmicutes.Clostridia.Oscillospirales'
p315
(lp316
F29078.82438467129
aF48372.78106508877
aF275131.4193287505
aF42614.44848286844
aF164855.07246376813
aF134060.86577571175
aF90779.16881038126
aF228048.9444668549
aF257850.6629448709
asS'Bacteria.Actinobacteriota.Coriobacteriia.Coriobacteriales.Atopobiaceae'
p317
(lp318
F3219.441271160036
aF0.0
aF3801.051354630004
aF530.8939437252419
aF0.0
aF3577.135386403253
aF685.9886811867601
aF13042.893639908567
aF5582.6936496859735
asS'Bacteria.Campylobacterota.Campylobacteria'
p319
(lp320
F0.0
aF0.0
aF0.0
aF0.0
aF0.0
aF2306.072051133062
aF0.0
aF0.0
aF0.0
asS'Bacteria.Proteobacteria.Gammaproteobacteria.Burkholderiales.Comamonadaceae'
p321
(lp322
F1557.7941634645335
aF65384.615384615405
aF3558.431055398302
aF5635.6434026217985
aF0.0
aF2251.597908192911
aF2858.2861716115003
aF761.955985836583
aF8374.04047452896
asS'Bacteria.Firmicutes.Bacilli.Erysipelotrichales.Erysipelatoclostridiaceae'
p323
(lp324
F1557.7941634645335
aF739.6449704142013
aF1213.101496158512
aF0.0
aF0.0
aF6918.216153399185
aF0.0
aF0.0
aF0.0
asS'Bacteria.Firmicutes.Clostridia.Oscillospirales._Eubacterium__coprostanoligenes_group'
p325
(lp326
F10073.735590403983
aF4511.834319526629
aF13263.243024666397
aF2164.41377057214
aF70134.57556935817
aF25548.373038930848
aF6745.555365003142
aF13625.565864371836
aF0.0
asS'Bacteria.Firmicutes.Bacilli.Acholeplasmatales.Acholeplasmataceae.Anaeroplasma'
p327
(lp328
F0.0
aF295.8579881656805
aF0.0
aF61.25699350675867
aF0.0
aF254.21266705403826
aF0.0
aF0.0
aF0.0
asS'Bacteria.Actinobacteriota.Coriobacteriia.Coriobacteriales.Eggerthellaceae'
p329
(lp330
F0.0
aF887.5739644970416
aF0.0
aF0.0
aF0.0
aF0.0
aF0.0
aF358.5675227466273
aF0.0
asS'Bacteria.Proteobacteria.Gammaproteobacteria.Enterobacterales.Pasteurellaceae.Rodentibacter'
p331
(lp332
F0.0
aF665.6804733727812
aF1374.84836231298
aF0.0
aF0.0
aF0.0
aF0.0
aF672.314105149926
aF0.0
asS'Bacteria.Firmicutes.Clostridia.Lachnospirales.Lachnospiraceae.uncultured'
p333
(lp334
F0.0
aF0.0
aF889.6077638495755
aF102.09498917793113
aF5175.983436853002
aF236.05461940732127
aF0.0
aF0.0
aF0.0
asS'Bacteria.Firmicutes.Clostridia.Christensenellales'
p335
(lp336
F41541.17769238756
aF29807.692307692316
aF3720.17792155277
aF3859.190590925796
aF0.0
aF13872.748402091804
aF21437.146287086252
aF1568.7329120164943
aF0.0
asS'Bacteria.Proteobacteria.Gammaproteobacteria.Burkholderiales.Sutterellaceae.Parasutterella'
p337
(lp338
F0.0
aF2810.650887573965
aF0.0
aF0.0
aF0.0
aF472.10923881464254
aF0.0
aF8022.948321455785
aF0.0
asS'Bacteria.Firmicutes.Clostridia.uncultured.uncultured.uncultured'
p339
(lp340
F0.0
aF0.0
aF0.0
aF0.0
aF0.0
aF599.2155723416618
aF0.0
aF717.1350454932546
aF0.0
asS'Bacteria.Firmicutes.Bacilli.Erysipelotrichales.Erysipelotrichaceae.Dubosiella'
p341
(lp342
F18485.824073112464
aF17085.79881656805
aF14152.850788515972
aF2327.7657532568296
aF0.0
aF2487.652527600232
aF24066.769564968832
aF7081.7085742458885
aF11514.305652477322
asS'Bacteria.Proteobacteria.Gammaproteobacteria.Burkholderiales.Comamonadaceae.Comamonas'
p343
(lp344
F0.0
aF19896.449704142018
aF0.0
aF0.0
aF0.0
aF326.84485764090635
aF0.0
aF0.0
aF0.0
asS'Bacteria.Firmicutes.Clostridia.Clostridia_UCG_014'
p345
(lp346
F69996.88441167303
aF278476.3313609468
aF267852.8103517994
aF36488.749132192585
aF62111.801242236026
aF336214.41022661235
aF129366.03212713651
aF97530.36618708262
aF74319.60921144452
asS'Bacteria.Chloroflexi.Anaerolineae'
p347
(lp348
F0.0
aF0.0
aF0.0
aF0.0
aF0.0
aF0.0
aF457.3257874578401
aF0.0
aF0.0
asS'Bacteria.Firmicutes.Clostridia.Oscillospirales.Ruminococcaceae._Eubacterium__siraeum_group'
p349
(lp350
F0.0
aF0.0
aF0.0
aF1551.843835504553
aF14751.552795031055
aF236.05461940732127
aF23552.278054078764
aF1568.7329120164943
aF0.0
asS'Bacteria.Firmicutes.Clostridia.Lachnospirales.Lachnospiraceae.Fusicatenibacter'
p351
(lp352
F33648.353930833924
aF0.0
aF16740.800646987464
aF0.0
aF0.0
aF189824.23009877972
aF0.0
aF188427.23320335263
aF158757.85066294487
asS'Bacteria.Firmicutes.Bacilli.Exiguobacterales.Exiguobacteraceae'
p353
(lp354
F0.0
aF0.0
aF0.0
aF0.0
aF0.0
aF0.0
aF0.0
aF717.1350454932546
aF0.0
asS'Bacteria.Firmicutes.Bacilli.Erysipelotrichales.Erysipelotrichaceae.Turicibacter'
p355
(lp356
F109772.56205213412
aF20636.094674556218
aF5337.646583097453
aF83738.31012373911
aF5434.782608695652
aF4067.402672864612
aF9661.007260046872
aF1075.7025682398817
aF3838.1018841591067
asS'Bacteria.Acidobacteriota.Acidobacteriae.Bryobacterales.Bryobacteraceae'
p357
(lp358
F0.0
aF0.0
aF0.0
aF0.0
aF0.0
aF0.0
aF685.9886811867601
aF0.0
aF0.0
asS'Bacteria.Actinobacteriota.Actinobacteria.Pseudonocardiales.Pseudonocardiaceae'
p359
(lp360
F0.0
aF0.0
aF0.0
aF0.0
aF0.0
aF0.0
aF0.0
aF32136.61422616647
aF5233.7752965806
asS'Bacteria.Firmicutes.Bacilli.Lactobacillales.Streptococcaceae.Streptococcus'
p361
(lp362
F4050.2648250077873
aF4215.976331360948
aF0.0
aF2225.6707640788986
aF0.0
aF998.6926205694361
aF0.0
aF627.4931648065977
aF0.0
asS'Bacteria.Actinobacteriota.Actinobacteria.Pseudonocardiales.Pseudonocardiaceae.Pseudonocardia'
p363
(lp364
F0.0
aF0.0
aF0.0
aF0.0
aF0.0
aF0.0
aF0.0
aF0.0
aF5233.7752965806
asS'Bacteria.Firmicutes.Bacilli.Lactobacillales.Streptococcaceae'
p365
(lp366
F4050.2648250077873
aF4215.976331360948
aF0.0
aF2225.6707640788986
aF0.0
aF998.6926205694361
aF0.0
aF627.4931648065977
aF0.0
asS'Bacteria.Bacteroidota'
p367
(lp368
F1973.205940388409
aF210576.9230769231
aF32915.48726243429
aF22093.355658104294
aF569616.9772256728
aF89392.0685647879
aF511576.05899502634
aF115638.02608578729
aF90369.85345429169
asS'Bacteria.Proteobacteria.Gammaproteobacteria.Burkholderiales.Alcaligenaceae'
p369
(lp370
F0.0
aF3476.3313609467464
aF0.0
aF1123.0448809572424
aF0.0
aF0.0
aF0.0
aF896.4188068665682
aF0.0
asS'Bacteria.Bacteroidota.Bacteroidia.Bacteroidales.Muribaculaceae'
p371
(lp372
F1973.205940388409
aF165532.54437869825
aF30408.41083704003
aF19561.399926491606
aF569616.9772256728
aF78951.1911679256
aF465729.14880237787
aF82111.96270897765
aF70481.50732728542
asS'Bacteria.Firmicutes.Bacilli.Exiguobacterales'
p373
(lp374
F0.0
aF0.0
aF0.0
aF0.0
aF0.0
aF0.0
aF0.0
aF717.1350454932546
aF0.0
asS'Bacteria.Firmicutes.Clostridia.Eubacteriales'
p375
(lp376
F0.0
aF0.0
aF404.3671653861706
aF0.0
aF0.0
aF0.0
aF0.0
aF1703.1957330464795
aF0.0
asS'Bacteria.Firmicutes.Clostridia.Oscillospirales.Ruminococcaceae.Incertae_Sedis'
p377
(lp378
F8827.500259632357
aF2736.6863905325454
aF4609.785685402345
aF3471.229632049658
aF28726.70807453416
aF19320.16269610691
aF8689.189961698961
aF1972.12137510645
aF0.0
asS'Bacteria.Firmicutes.Clostridia.Clostridia_vadinBB60_group.Clostridia_vadinBB60_group.Clostridia_vadinBB60_group'
p379
(lp380
F0.0
aF0.0
aF566.1140315406388
aF0.0
aF0.0
aF562.8994770482277
aF0.0
aF0.0
aF0.0
asS'Bacteria.Bacteroidota.Bacteroidia.Flavobacteriales'
p381
(lp382
F0.0
aF0.0
aF0.0
aF1245.5588679707598
aF0.0
aF254.21266705403826
aF0.0
aF0.0
aF0.0
asS'Bacteria.Gemmatimonadota'
p383
(lp384
F0.0
aF0.0
aF0.0
aF0.0
aF2846.790890269151
aF0.0
aF0.0
aF0.0
aF0.0
asS'Bacteria.Proteobacteria.Gammaproteobacteria.Burkholderiales.Burkholderiaceae'
p385
(lp386
F4777.235434624569
aF12869.822485207105
aF1617.4686615446824
aF4165.4755584595905
aF0.0
aF2560.2847181870998
aF6116.732407248611
aF3809.7799291829147
aF10118.632240055827
asS'Bacteria.Firmicutes.Clostridia.Lachnospirales.Lachnospiraceae.Lachnospira'
p387
(lp388
F0.0
aF1701.183431952663
aF0.0
aF0.0
aF0.0
aF0.0
aF0.0
aF0.0
aF0.0
asS'Bacteria.Acidobacteriota.Acidobacteriae'
p389
(lp390
F0.0
aF0.0
aF0.0
aF0.0
aF0.0
aF0.0
aF685.9886811867601
aF0.0
aF0.0
asS'Bacteria.Firmicutes.Clostridia.Oscillospirales.Ruminococcaceae.Negativibacillus'
p391
(lp392
F0.0
aF0.0
aF0.0
aF0.0
aF0.0
aF671.8477629285298
aF0.0
aF0.0
aF0.0
asS'Bacteria.Verrucomicrobiota.Verrucomicrobiae'
p393
(lp394
F0.0
aF887.5739644970416
aF21188.839466235342
aF24400.702413525538
aF10093.167701863355
aF1071.3248111563041
aF914.6515749156802
aF55533.1450853839
aF142009.76971388696
asS'Bacteria.Firmicutes.Clostridia.Peptostreptococcales_Tissierellales.Anaerovoracaceae._Eubacterium__nodatum_group'
p395
(lp396
F0.0
aF0.0
aF0.0
aF0.0
aF0.0
aF417.63509587449147
aF0.0
aF0.0
aF0.0
asS'Bacteria.Proteobacteria.Gammaproteobacteria.Burkholderiales.Oxalobacteraceae.Massilia'
p397
(lp398
F0.0
aF0.0
aF0.0
aF0.0
aF13198.757763975156
aF0.0
aF0.0
aF0.0
aF0.0
asS'Bacteria.Firmicutes.Clostridia.Lachnospirales.Lachnospiraceae.Eisenbergiella'
p399
(lp400
F0.0
aF0.0
aF0.0
aF0.0
aF0.0
aF508.4253341080765
aF0.0
aF0.0
aF0.0
asS'Bacteria.Proteobacteria.Gammaproteobacteria.Enterobacterales'
p401
(lp402
F15577.941634645336
aF9615.384615384617
aF29195.30934088152
aF6656.593294401109
aF18633.540372670806
aF5774.259151656012
aF21551.477733950713
aF12998.072699565239
aF30006.978367062107
asS'Bacteria.Gemmatimonadota.Gemmatimonadetes'
p403
(lp404
F0.0
aF0.0
aF0.0
aF0.0
aF2846.790890269151
aF0.0
aF0.0
aF0.0
aF0.0
asS'Bacteria.Proteobacteria.Gammaproteobacteria.Enterobacterales.Enterobacteriaceae.Escherichia_Shigella'
p405
(lp406
F15577.941634645336
aF8949.704142011837
aF27820.46097856854
aF6656.593294401109
aF18633.540372670806
aF5774.259151656012
aF21551.477733950713
aF12325.758594415312
aF30006.978367062107
asS'Bacteria.Verrucomicrobiota.Verrucomicrobiae.Verrucomicrobiales.Akkermansiaceae'
p407
(lp408
F0.0
aF887.5739644970416
aF21188.839466235342
aF24400.702413525538
aF10093.167701863355
aF1071.3248111563041
aF914.6515749156802
aF55533.1450853839
aF142009.76971388696
asS'Bacteria.Firmicutes.Clostridia.Oscillospirales._Eubacterium__coprostanoligenes_group._Eubacterium__coprostanoligenes_group'
p409
(lp410
F10073.735590403983
aF4511.834319526629
aF13263.243024666397
aF2164.41377057214
aF70134.57556935817
aF25548.373038930848
aF6745.555365003142
aF13625.565864371836
aF0.0
asS'Bacteria.Campylobacterota.Campylobacteria.Campylobacterales.Helicobacteraceae'
p411
(lp412
F0.0
aF0.0
aF0.0
aF0.0
aF0.0
aF2306.072051133062
aF0.0
aF0.0
aF0.0
asS'Bacteria.Desulfobacterota.Desulfovibrionia.Desulfovibrionales.Desulfovibrionaceae'
p413
(lp414
F1869.3529961574402
aF4585.798816568048
aF0.0
aF0.0
aF0.0
aF12038.785589773384
aF14462.928028354192
aF0.0
aF0.0
asS'Bacteria.Campylobacterota.Campylobacteria.Campylobacterales.Helicobacteraceae.Helicobacter'
p415
(lp416
F0.0
aF0.0
aF0.0
aF0.0
aF0.0
aF2306.072051133062
aF0.0
aF0.0
aF0.0
asS'Bacteria.Firmicutes.Clostridia.Oscillospirales.Butyricicoccaceae.UCG_008'
p417
(lp418
F0.0
aF8505.917159763316
aF4205.418520016175
aF0.0
aF0.0
aF8497.966298663565
aF0.0
aF7216.171395275874
aF3489.1835310537335
asS'Bacteria.Firmicutes.Clostridia.Oscillospirales.Butyricicoccaceae.UCG_009'
p419
(lp420
F0.0
aF0.0
aF0.0
aF0.0
aF0.0
aF1107.6409064497382
aF0.0
aF0.0
aF0.0
asS'Bacteria.Firmicutes.Clostridia.Oscillospirales.Butyricicoccaceae.Butyricicoccus'
p421
(lp422
F0.0
aF0.0
aF0.0
aF285.86596969820715
aF0.0
aF0.0
aF514.4915108900701
aF0.0
aF0.0
asS'Bacteria.Actinobacteriota.Actinobacteria.Corynebacteriales.Corynebacteriaceae.Corynebacterium'
p423
(lp424
F5919.617821165227
aF0.0
aF0.0
aF0.0
aF0.0
aF0.0
aF0.0
aF0.0
aF0.0
asS'Bacteria.Bacteroidota.Bacteroidia.Bacteroidales.Bacteroidaceae.Bacteroides'
p425
(lp426
F0.0
aF33875.73964497042
aF0.0
aF183.77098052027603
aF0.0
aF2088.175479372457
aF31441.147887726504
aF4168.347451929542
aF2791.3468248429867
asS'Bacteria.Proteobacteria.Alphaproteobacteria'
p427
(lp428
F934.6764980787201
aF7026.627218934913
aF646.987464617873
aF1919.385796545105
aF0.0
aF0.0
aF1257.6459155090604
aF224.10470171664204
aF0.0
asS'Bacteria.Firmicutes.Clostridia.Lachnospirales'
p429
(lp430
F51926.47211548445
aF99778.10650887576
aF136352.60816821677
aF10413.688896148975
aF86956.52173913045
aF292108.51249273674
aF37958.040359000726
aF289408.81179687154
aF250523.37752965803
asS'Bacteria.Firmicutes.Clostridia.Clostridiales'
p431
(lp432
F402326.3059507735
aF18639.053254437873
aF16983.42094621917
aF658737.2891738472
aF12681.159420289856
aF10350.087158628703
aF15091.750986108722
aF1613.5538523598227
aF0.0
asS'Bacteria.Firmicutes.Clostridia.Eubacteriales.Anaerofustaceae.Anaerofustis'
p433
(lp434
F0.0
aF0.0
aF404.3671653861706
aF0.0
aF0.0
aF0.0
aF0.0
aF1703.1957330464795
aF0.0
asS'Bacteria'
p435
(lp436
F1000000.0
aF1000000.0
aF1000000.0
aF1000000.0
aF1000000.0
aF1000000.0
aF1000000.0
aF1000000.0
aF1000000.0
asS'Bacteria.Firmicutes.Bacilli.Acholeplasmatales.Acholeplasmataceae'
p437
(lp438
F0.0
aF295.8579881656805
aF0.0
aF61.25699350675867
aF0.0
aF254.21266705403826
aF0.0
aF0.0
aF0.0
asS'Bacteria.Actinobacteriota.Actinobacteria'
p439
(lp440
F13604.735694256926
aF10355.02958579882
aF4609.785685402345
aF163.3519826846898
aF0.0
aF635.5316676350958
aF13891.270794031892
aF81305.18578279772
aF14305.652477320307
asS'Bacteria.Firmicutes.Clostridia.Clostridiales.Clostridiaceae'
p441
(lp442
F402326.3059507735
aF18639.053254437873
aF16983.42094621917
aF658737.2891738472
aF12681.159420289856
aF10350.087158628703
aF15091.750986108722
aF1613.5538523598227
aF0.0
asS'Bacteria.Firmicutes.Clostridia.Peptostreptococcales_Tissierellales.Anaerovoracaceae._Eubacterium__brachy_group'
p443
(lp444
F0.0
aF0.0
aF1293.974929235746
aF0.0
aF0.0
aF0.0
aF0.0
aF0.0
aF0.0
asS'Bacteria.Actinobacteriota.Coriobacteriia.Coriobacteriales.uncultured'
p445
(lp446
F5296.500155779414
aF5917.159763313611
aF7925.596441568945
aF3900.0285865969686
aF3364.3892339544514
aF7245.061011040091
aF2400.96038415366
aF3182.286764376317
aF0.0
asS'Bacteria.Bacteroidota.Bacteroidia.Flavobacteriales.Weeksellaceae.Chryseobacterium'
p447
(lp448
F0.0
aF0.0
aF0.0
aF1245.5588679707598
aF0.0
aF254.21266705403826
aF0.0
aF0.0
aF0.0
asS'Bacteria.Firmicutes.Clostridia.uncultured.uncultured'
p449
(lp450
F0.0
aF0.0
aF0.0
aF0.0
aF0.0
aF599.2155723416618
aF0.0
aF717.1350454932546
aF0.0
asS'Bacteria.Firmicutes.Clostridia.Oscillospirales.Ruminococcaceae'
p451
(lp452
F0.0
aF0.0
aF0.0
aF0.0
aF0.0
aF0.0
aF0.0
aF448.2094034332841
aF0.0
asS'Bacteria.Bacteroidota.Bacteroidia.Flavobacteriales.Weeksellaceae'
p453
(lp454
F0.0
aF0.0
aF0.0
aF1245.5588679707598
aF0.0
aF254.21266705403826
aF0.0
aF0.0
aF0.0
asS'Bacteria.Acidobacteriota.Acidobacteriae.Bryobacterales.Bryobacteraceae.Bryobacter'
p455
(lp456
F0.0
aF0.0
aF0.0
aF0.0
aF0.0
aF0.0
aF685.9886811867601
aF0.0
aF0.0
asS'Bacteria.Actinobacteriota.Actinobacteria.Pseudonocardiales.Pseudonocardiaceae.Saccharopolyspora'
p457
(lp458
F0.0
aF0.0
aF0.0
aF0.0
aF0.0
aF0.0
aF0.0
aF32136.61422616647
aF0.0
asS'Bacteria.Firmicutes.Clostridia.Oscillospirales.Ruminococcaceae.uncultured'
p459
(lp460
F0.0
aF0.0
aF0.0
aF245.02797402703467
aF0.0
aF2324.2300987797785
aF1143.3144686446
aF0.0
aF0.0
asS'Bacteria.Firmicutes.Clostridia.Oscillospirales.Oscillospiraceae.Oscillibacter'
p461
(lp462
F0.0
aF0.0
aF0.0
aF0.0
aF0.0
aF835.2701917489829
aF0.0
aF493.0303437766125
aF0.0
asS'Bacteria.Firmicutes.Clostridia.Lachnospirales.Lachnospiraceae.Coprococcus'
p463
(lp464
F0.0
aF0.0
aF0.0
aF0.0
aF0.0
aF0.0
aF0.0
aF4257.989332616199
aF4884.856943475227
asS'Bacteria.Patescibacteria.Saccharimonadia.Saccharimonadales.Saccharimonadaceae.Candidatus_Saccharimonas'
p465
(lp466
F3738.7059923148804
aF15088.757396449708
aF32511.12009704812
aF551.3129415608281
aF12681.159420289856
aF2306.072051133062
aF28468.530269250547
aF851.5978665232398
aF0.0
asS'Bacteria.Firmicutes.Clostridia.Lachnospirales.Lachnospiraceae'
p467
(lp468
F8100.529650015575
aF27514.79289940829
aF51273.756570966434
aF3716.257606076693
aF23809.52380952381
aF29416.037187681573
aF17835.705710855764
aF12998.072699565239
aF25471.039776692254
asS'Bacteria.Firmicutes.Bacilli.Erysipelotrichales.Erysipelatoclostridiaceae.Erysipelatoclostridium'
p469
(lp470
F0.0
aF739.6449704142013
aF1213.101496158512
aF0.0
aF0.0
aF1434.4857640906446
aF0.0
aF0.0
aF0.0
asS'Bacteria.Proteobacteria.Gammaproteobacteria.Burkholderiales.Burkholderiaceae.Burkholderia_Caballeronia_Paraburkholderia'
p471
(lp472
F4777.235434624569
aF12869.822485207105
aF1617.4686615446824
aF4165.4755584595905
aF0.0
aF2560.2847181870998
aF6116.732407248611
aF3809.7799291829147
aF10118.632240055827
asS'Bacteria.Patescibacteria.Saccharimonadia'
p473
(lp474
F3738.7059923148804
aF15088.757396449708
aF32511.12009704812
aF551.3129415608281
aF12681.159420289856
aF2415.020337013364
aF28468.530269250547
aF851.5978665232398
aF0.0
asS'Bacteria.Firmicutes.Clostridia.Peptostreptococcales_Tissierellales.Peptostreptococcaceae'
p475
(lp476
F168241.76965416962
aF23668.639053254443
aF17873.028710068742
aF56111.40605219094
aF8281.573498964804
aF25294.160371876813
aF0.0
aF5109.587199139439
aF5233.7752965806
asS'Bacteria.Firmicutes.Bacilli.Erysipelotrichales.Erysipelotrichaceae.Holdemania'
p477
(lp478
F0.0
aF0.0
aF1213.101496158512
aF0.0
aF0.0
aF0.0
aF0.0
aF1254.9863296131955
aF0.0
asS'Bacteria.Firmicutes.Clostridia.Peptococcales.Peptococcaceae.uncultured'
p479
(lp480
F0.0
aF0.0
aF0.0
aF0.0
aF0.0
aF780.7960488088319
aF0.0
aF851.5978665232398
aF0.0
asS'Bacteria.Firmicutes.Clostridia.Oscillospirales.Butyricicoccaceae'
p481
(lp482
F0.0
aF8505.917159763316
aF4205.418520016175
aF285.86596969820715
aF0.0
aF9605.607205113303
aF514.4915108900701
aF7216.171395275874
aF3489.1835310537335
asS'Bacteria.Actinobacteriota.Actinobacteria.Micrococcales.Dermabacteraceae.Brachybacterium'
p483
(lp484
F0.0
aF0.0
aF0.0
aF0.0
aF0.0
aF217.89657176060425
aF0.0
aF0.0
aF0.0
asS'Bacteria.Proteobacteria.Alphaproteobacteria.Caulobacterales'
p485
(lp486
F0.0
aF961.5384615384618
aF0.0
aF632.988932903173
aF0.0
aF0.0
aF0.0
aF0.0
aF0.0
asS'Bacteria.Campylobacterota'
p487
(lp488
F0.0
aF0.0
aF0.0
aF0.0
aF0.0
aF2306.072051133062
aF0.0
aF0.0
aF0.0
asS'Bacteria.Cyanobacteria.Cyanobacteriia'
p489
(lp490
F0.0
aF0.0
aF0.0
aF0.0
aF0.0
aF0.0
aF457.3257874578401
aF0.0
aF0.0
asS'Bacteria.Patescibacteria.Saccharimonadia.Saccharimonadales'
p491
(lp492
F0.0
aF0.0
aF0.0
aF0.0
aF0.0
aF108.94828588030212
aF0.0
aF0.0
aF0.0
asS'Bacteria.Firmicutes.Clostridia.Lachnospirales.Lachnospiraceae.Blautia'
p493
(lp494
F3323.294215391005
aF54955.621301775165
aF18358.269308532148
aF0.0
aF0.0
aF43851.6850668216
aF1086.1487452123702
aF73640.80498408858
aF50942.07955338451
asS'Bacteria.Firmicutes.Clostridia.uncultured'
p495
(lp496
F0.0
aF0.0
aF0.0
aF0.0
aF0.0
aF599.2155723416618
aF0.0
aF717.1350454932546
aF0.0
asS'Bacteria.Cyanobacteria'
p497
(lp498
F519.2647211548446
aF0.0
aF0.0
aF0.0
aF0.0
aF1325.5374782103424
aF457.3257874578401
aF0.0
aF0.0
asS'Bacteria.Firmicutes.Clostridia.Oscillospirales.Ruminococcaceae.Subdoligranulum'
p499
(lp500
F0.0
aF8210.059171597633
aF38414.88071168621
aF0.0
aF0.0
aF926.060429982568
aF457.3257874578401
aF177401.28187889385
aF245638.52058618283
asS'Bacteria.Firmicutes.Bacilli.Staphylococcales.Staphylococcaceae'
p501
(lp502
F5711.9119327032895
aF0.0
aF1617.4686615446824
aF0.0
aF0.0
aF907.902382335851
aF1943.6345966958202
aF0.0
aF0.0
asS'Bacteria.Proteobacteria.Gammaproteobacteria.Burkholderiales.Comamonadaceae.Delftia'
p503
(lp504
F1557.7941634645335
aF45488.16568047339
aF3558.431055398302
aF5635.6434026217985
aF0.0
aF1924.7530505520042
aF2858.2861716115003
aF761.955985836583
aF8374.04047452896
asS'Bacteria.Actinobacteriota.Coriobacteriia.Coriobacteriales.Atopobiaceae.uncultured'
p505
(lp506
F0.0
aF0.0
aF0.0
aF530.8939437252419
aF0.0
aF0.0
aF0.0
aF0.0
aF0.0
asS'Bacteria.Actinobacteriota.Actinobacteria.Micrococcales.Micrococcaceae'
p507
(lp508
F0.0
aF0.0
aF0.0
aF0.0
aF0.0
aF417.63509587449147
aF0.0
aF0.0
aF0.0
asS'Bacteria.Firmicutes.Bacilli.Lactobacillales.Lactobacillaceae'
p509
(lp510
F28351.853775054507
aF11242.60355029586
aF1779.215527699151
aF4042.961571446073
aF0.0
aF6028.471818710051
aF14520.093751786422
aF5557.796602572723
aF0.0
asS'Bacteria.Actinobacteriota.Coriobacteriia.Coriobacteriales.Eggerthellaceae.Adlercreutzia'
p511
(lp512
F5504.206044241351
aF3254.437869822486
aF4448.038819247877
aF4512.598521664556
aF0.0
aF8552.440441603716
aF0.0
aF5109.587199139439
aF16050.244242847175
asS'Bacteria.Firmicutes.Bacilli.Lactobacillales.Aerococcaceae'
p513
(lp514
F1246.2353307716269
aF813.6094674556215
aF0.0
aF0.0
aF0.0
aF272.3707147007553
aF0.0
aF0.0
aF0.0
asS'Bacteria.Firmicutes.Clostridia.Oscillospirales.Oscillospiraceae'
p515
(lp516
F3738.7059923148804
aF0.0
aF11322.280630812778
aF0.0
aF0.0
aF31032.10342823939
aF12347.796261361682
aF2823.71924162969
aF0.0
asS'Bacteria.Actinobacteriota.Actinobacteria.Pseudonocardiales'
p517
(lp518
F0.0
aF0.0
aF0.0
aF0.0
aF0.0
aF0.0
aF0.0
aF32136.61422616647
aF5233.7752965806
asS'Bacteria.Firmicutes.Clostridia.Oscillospirales.Oscillospiraceae.UCG_005'
p519
(lp520
F4154.117769238756
aF7026.627218934913
aF171047.3109583502
aF0.0
aF0.0
aF1143.9570017431722
aF2686.7890013148103
aF1030.8816278965535
aF0.0
asS'Bacteria.Firmicutes.Bacilli.Lactobacillales.Lactobacillaceae.Ligilactobacillus'
p521
(lp522
F0.0
aF9319.526627218936
aF0.0
aF837.1789112590352
aF0.0
aF1979.227193492155
aF0.0
aF0.0
aF0.0
asS'Bacteria.Actinobacteriota.Actinobacteria.Streptomycetales.Streptomycetaceae'
p523
(lp524
F0.0
aF0.0
aF0.0
aF0.0
aF0.0
aF0.0
aF0.0
aF0.0
aF3489.1835310537335
assS'subclass_sl'
p525
(dp526
g12
(I0
I5
tp527
sg10
(I5
I9
tp528
ssS'norm'
p529
F1000000.0
sS'cls'
p530
(dp531
S'class'
p532
(S'HSD-NC'
p533
S'HSD-NC'
p534
S'HSD-NC'
p535
S'HSD-NC'
p536
g5
S'HSD-NR'
p537
S'HSD-NR'
p538
S'HSD-NR'
p539
g3
tp540
sS'subclass'
p541
(lp542
S'HSD-NC_subcl'
p543
aS'HSD-NC_subcl'
p544
aS'HSD-NC_subcl'
p545
aS'HSD-NC_subcl'
p546
ag12
aS'HSD-NR_subcl'
p547
aS'HSD-NR_subcl'
p548
aS'HSD-NR_subcl'
p549
ag10
asS'subject'
p550
(S'S210421121698'
p551
S'S210421121699'
p552
S'S210421121700'
p553
S'S210421121701'
p554
S'S210421121702'
p555
S'S210421121707'
p556
S'S210421121708'
p557
S'S210421121709'
p558
S'S210421121710'
p559
tp560
ss.