(dp0
S'class_sl'
p1
(dp2
S'HSD-NR'
p3
(I5
I9
tp4
sS'HSD-NC'
p5
(I0
I5
tp6
ssS'class_hierarchy'
p7
(dp8
g3
(lp9
S'HSD-NR_subcl'
p10
asg5
(lp11
S'HSD-NC_subcl'
p12
assS'feats'
p13
(dp14
S'Bacteria.Chloroflexi'
p15
(lp16
F0.0
aF0.0
aF0.0
aF0.0
aF0.0
aF0.0
aF228.66289372892012
aF0.0
aF0.0
asS'Bacteria.Campylobacterota'
p17
(lp18
F0.0
aF0.0
aF0.0
aF0.0
aF0.0
aF1153.0360255665312
aF0.0
aF0.0
aF0.0
asS'Bacteria.Desulfobacterota'
p19
(lp20
F934.6764980787206
aF2292.8994082840236
aF0.0
aF0.0
aF0.0
aF6019.392794886694
aF7231.4640141771
aF0.0
aF0.0
asS'Bacteria.Actinobacteriota'
p21
(lp22
F13812.44158271887
aF12647.92899408284
aF11767.084512737569
aF9678.604974067874
aF1682.1946169772261
aF11221.673445671122
aF10861.487452123705
aF51969.88032808928
aF18841.591067690162
asS'Bacteria.Gemmatimonadota'
p23
(lp24
F0.0
aF0.0
aF0.0
aF0.0
aF1423.3954451345758
aF0.0
aF0.0
aF0.0
aF0.0
asS'Bacteria'
p25
(lp26
F500000.0
aF500000.0
aF500000.0
aF500000.0
aF500000.0
aF500000.0
aF500000.0
aF500000.0
aF500000.0
asS'Bacteria.Cyanobacteria'
p27
(lp28
F259.6323605774224
aF0.0
aF0.0
aF0.0
aF0.0
aF662.7687391051713
aF228.66289372892012
aF0.0
aF0.0
asS'Bacteria.Firmicutes'
p29
(lp30
F470713.46972686675
aF307248.52071005915
aF426930.85321471904
aF454128.7213623556
aF184782.6086956522
aF428157.68448576407
aF194735.0368718916
aF347272.64578010846
aF333217.0272156316
asS'Bacteria.Bacteroidota'
p31
(lp32
F986.602970194205
aF105288.46153846155
aF16457.74363121715
aF11046.677829052149
aF284808.48861283646
aF44696.03428239396
aF255788.0294975133
aF57819.01304289364
aF45184.92672714586
asS'Bacteria.Proteobacteria'
p33
(lp34
F11423.823865406584
aF64534.023668639056
aF17994.338859684594
aF12669.988156981257
aF15916.149068322984
aF6346.2376525275995
aF15892.07111415995
aF14746.089372955044
aF31751.57013258898
asS'Bacteria.Acidobacteriota'
p35
(lp36
F0.0
aF0.0
aF0.0
aF0.0
aF0.0
aF0.0
aF342.99434059338023
aF0.0
aF0.0
asS'Bacteria.Verrucomicrobiota'
p37
(lp38
F0.0
aF443.7869822485207
aF10594.419733117673
aF12200.351206762773
aF5046.583850931678
aF535.6624055781523
aF457.32578745784025
aF27766.572542691945
aF71004.88485694349
asS'Bacteria.Patescibacteria'
p39
(lp40
F1869.352996157441
aF7544.378698224852
aF16255.560048524061
aF275.6564707804141
aF6340.57971014493
aF1207.510168506682
aF14234.265134625279
aF425.7989332616198
aF0.0
assS'subclass_sl'
p41
(dp42
g12
(I0
I5
tp43
sg10
(I5
I9
tp44
ssS'norm'
p45
F1000000.0
sS'cls'
p46
(dp47
S'class'
p48
(S'HSD-NC'
p49
S'HSD-NC'
p50
S'HSD-NC'
p51
S'HSD-NC'
p52
g5
S'HSD-NR'
p53
S'HSD-NR'
p54
S'HSD-NR'
p55
g3
tp56
sS'subclass'
p57
(lp58
S'HSD-NC_subcl'
p59
aS'HSD-NC_subcl'
p60
aS'HSD-NC_subcl'
p61
aS'HSD-NC_subcl'
p62
ag12
aS'HSD-NR_subcl'
p63
aS'HSD-NR_subcl'
p64
aS'HSD-NR_subcl'
p65
ag10
asS'subject'
p66
(S'S210421121698'
p67
S'S210421121699'
p68
S'S210421121700'
p69
S'S210421121701'
p70
S'S210421121702'
p71
S'S210421121707'
p72
S'S210421121708'
p73
S'S210421121709'
p74
S'S210421121710'
p75
tp76
ss.