(dp0
S'class_sl'
p1
(dp2
S'HSD-NR'
p3
(I5
I9
tp4
sS'HSD-NC'
p5
(I0
I5
tp6
ssS'class_hierarchy'
p7
(dp8
g3
(lp9
S'HSD-NR_subcl'
p10
asg5
(lp11
S'HSD-NC_subcl'
p12
assS'feats'
p13
(dp14
S'Bacteria'
p15
(lp16
F1000000.0
aF1000000.0
aF1000000.0
aF1000000.0
aF1000000.0
aF1000000.0
aF1000000.0
aF1000000.0
aF1000000.0
assS'subclass_sl'
p17
(dp18
g12
(I0
I5
tp19
sg10
(I5
I9
tp20
ssS'norm'
p21
F1000000.0
sS'cls'
p22
(dp23
S'class'
p24
(S'HSD-NC'
p25
S'HSD-NC'
p26
S'HSD-NC'
p27
S'HSD-NC'
p28
g5
S'HSD-NR'
p29
S'HSD-NR'
p30
S'HSD-NR'
p31
g3
tp32
sS'subclass'
p33
(lp34
S'HSD-NC_subcl'
p35
aS'HSD-NC_subcl'
p36
aS'HSD-NC_subcl'
p37
aS'HSD-NC_subcl'
p38
ag12
aS'HSD-NR_subcl'
p39
aS'HSD-NR_subcl'
p40
aS'HSD-NR_subcl'
p41
ag10
asS'subject'
p42
(S'S210421121698'
p43
S'S210421121699'
p44
S'S210421121700'
p45
S'S210421121701'
p46
S'S210421121702'
p47
S'S210421121707'
p48
S'S210421121708'
p49
S'S210421121709'
p50
S'S210421121710'
p51
tp52
ss.