(dp0
S'class_sl'
p1
(dp2
S'STD-NR'
p3
(I22
I29
tp4
sS'STD-NC'
p5
(I15
I22
tp6
sS'HSD-NR'
p7
(I8
I15
tp8
sS'HSD-NC'
p9
(I0
I8
tp10
ssS'class_hierarchy'
p11
(dp12
g3
(lp13
S'STD-NR_subcl'
p14
asg5
(lp15
S'STD-NC_subcl'
p16
asg7
(lp17
S'HSD-NR_subcl'
p18
asg9
(lp19
S'HSD-NC_subcl'
p20
assS'feats'
p21
(dp22
S'Archaea'
p23
(lp24
F0.0
aF0.0
aF0.0
aF0.0
aF0.0
aF0.0
aF0.0
aF0.0
aF0.0
aF0.0
aF0.0
aF0.0
aF0.0
aF0.0
aF0.0
aF0.0
aF0.0
aF0.0
aF0.0
aF0.0
aF0.0
aF0.0
aF0.0
aF0.0
aF0.0
aF0.0
aF0.0
aF83.5837362765953
aF461.42584054094374
asS'Bacteria'
p25
(lp26
F1000000.0
aF1000000.0
aF1000000.0
aF1000000.0
aF1000000.0
aF1000000.0
aF1000000.0
aF1000000.0
aF1000000.0
aF1000000.0
aF1000000.0
aF1000000.0
aF1000000.0
aF1000000.0
aF1000000.0
aF1000000.0
aF1000000.0
aF1000000.0
aF1000000.0
aF1000000.0
aF1000000.0
aF1000000.0
aF1000000.0
aF1000000.0
aF1000000.0
aF1000000.0
aF1000000.0
aF999916.4162637234
aF999538.574159459
assS'subclass_sl'
p27
(dp28
g20
(I0
I8
tp29
sg16
(I15
I22
tp30
sg18
(I8
I15
tp31
sg14
(I22
I29
tp32
ssS'norm'
p33
F1000000.0
sS'cls'
p34
(dp35
S'class'
p36
(S'HSD-NC'
p37
S'HSD-NC'
p38
S'HSD-NC'
p39
S'HSD-NC'
p40
S'HSD-NC'
p41
S'HSD-NC'
p42
S'HSD-NC'
p43
g9
S'HSD-NR'
p44
S'HSD-NR'
p45
S'HSD-NR'
p46
S'HSD-NR'
p47
S'HSD-NR'
p48
S'HSD-NR'
p49
g7
S'STD-NC'
p50
S'STD-NC'
p51
S'STD-NC'
p52
S'STD-NC'
p53
S'STD-NC'
p54
S'STD-NC'
p55
g5
S'STD-NR'
p56
S'STD-NR'
p57
S'STD-NR'
p58
S'STD-NR'
p59
S'STD-NR'
p60
S'STD-NR'
p61
g3
tp62
sS'subclass'
p63
(lp64
S'HSD-NC_subcl'
p65
aS'HSD-NC_subcl'
p66
aS'HSD-NC_subcl'
p67
aS'HSD-NC_subcl'
p68
aS'HSD-NC_subcl'
p69
aS'HSD-NC_subcl'
p70
aS'HSD-NC_subcl'
p71
ag20
aS'HSD-NR_subcl'
p72
aS'HSD-NR_subcl'
p73
aS'HSD-NR_subcl'
p74
aS'HSD-NR_subcl'
p75
aS'HSD-NR_subcl'
p76
aS'HSD-NR_subcl'
p77
ag18
aS'STD-NC_subcl'
p78
aS'STD-NC_subcl'
p79
aS'STD-NC_subcl'
p80
aS'STD-NC_subcl'
p81
aS'STD-NC_subcl'
p82
aS'STD-NC_subcl'
p83
ag16
aS'STD-NR_subcl'
p84
aS'STD-NR_subcl'
p85
aS'STD-NR_subcl'
p86
aS'STD-NR_subcl'
p87
aS'STD-NR_subcl'
p88
aS'STD-NR_subcl'
p89
ag14
asS'subject'
p90
(S'S210421121688'
p91
S'S210421121689'
p92
S'S210421121690'
p93
S'S210421121698'
p94
S'S210421121699'
p95
S'S210421121700'
p96
S'S210421121701'
p97
S'S210421121702'
p98
S'S210421121691'
p99
S'S210421121692'
p100
S'S210421121693'
p101
S'S210421121707'
p102
S'S210421121708'
p103
S'S210421121709'
p104
S'S210421121710'
p105
S'S210421121682'
p106
S'S210421121683'
p107
S'S210421121684'
p108
S'S210421121694'
p109
S'S210421121695'
p110
S'S210421121696'
p111
S'S210421121697'
p112
S'S210421121685'
p113
S'S210421121686'
p114
S'S210421121687'
p115
S'S210421121703'
p116
S'S210421121704'
p117
S'S210421121705'
p118
S'S210421121706'
p119
tp120
ss.