(dp0
S'class_sl'
p1
(dp2
S'STD-NR'
p3
(I22
I29
tp4
sS'STD-NC'
p5
(I15
I22
tp6
sS'HSD-NR'
p7
(I8
I15
tp8
sS'HSD-NC'
p9
(I0
I8
tp10
ssS'class_hierarchy'
p11
(dp12
g3
(lp13
S'STD-NR_subcl'
p14
asg5
(lp15
S'STD-NC_subcl'
p16
asg7
(lp17
S'HSD-NR_subcl'
p18
asg9
(lp19
S'HSD-NC_subcl'
p20
assS'feats'
p21
(dp22
S'Bacteria.Chloroflexi'
p23
(lp24
F0.0
aF0.0
aF0.0
aF0.0
aF0.0
aF0.0
aF0.0
aF0.0
aF0.0
aF0.0
aF0.0
aF0.0
aF454.0552812304898
aF0.0
aF0.0
aF0.0
aF0.0
aF0.0
aF0.0
aF179.3278298240732
aF0.0
aF0.0
aF0.0
aF0.0
aF0.0
aF0.0
aF0.0
aF0.0
aF0.0
asS'Bacteria.Campylobacterota'
p25
(lp26
F0.0
aF0.0
aF0.0
aF0.0
aF0.0
aF0.0
aF0.0
aF0.0
aF0.0
aF0.0
aF0.0
aF2301.099816999149
aF0.0
aF0.0
aF0.0
aF0.0
aF66.29855185020315
aF0.0
aF327.58794476363266
aF0.0
aF0.0
aF0.0
aF0.0
aF0.0
aF193.67333763718528
aF0.0
aF0.0
aF639.3621422392719
aF457.74525782848417
asS'Bacteria.Desulfobacterota'
p27
(lp28
F0.0
aF0.0
aF0.0
aF1868.9648011629117
aF4626.175197731682
aF0.0
aF0.0
aF0.0
aF0.0
aF0.0
aF0.0
aF12012.828178507367
aF14359.49826891424
aF0.0
aF0.0
aF0.0
aF0.0
aF0.0
aF0.0
aF1818.0131713199146
aF0.0
aF0.0
aF0.0
aF0.0
aF0.0
aF0.0
aF0.0
aF3723.344240099289
aF3401.87952977078
asS'Bacteria.Actinobacteriota'
p29
(lp30
F27423.672146615114
aF14141.735143233305
aF12718.265076531423
aF27619.14650607414
aF25667.81077451127
aF23632.243444480417
aF19354.83870967742
aF3360.910031023785
aF12230.106243891294
aF19352.071904651286
aF17453.48561358322
aF22177.52894493668
aF21567.625858448268
aF103989.24249215597
aF37735.84905660377
aF578.9459620745862
aF2131.0248808993874
aF3543.6821270560345
aF42687.22910996876
aF779.1485019942492
aF1057.9611577117812
aF8868.279959426169
aF3707.0213688936965
aF1573.0662134307308
aF5487.411233053584
aF26134.713717568335
aF0.0
aF597.5737669295155
aF4140.513923084925
asS'Bacteria.Gemmatimonadota'
p31
(lp32
F0.0
aF0.0
aF0.0
aF0.0
aF0.0
aF0.0
aF0.0
aF2843.846949327818
aF0.0
aF0.0
aF0.0
aF0.0
aF0.0
aF0.0
aF0.0
aF0.0
aF0.0
aF0.0
aF0.0
aF0.0
aF0.0
aF0.0
aF0.0
aF0.0
aF0.0
aF0.0
aF0.0
aF0.0
aF0.0
asS'Bacteria'
p33
(lp34
F0.0
aF1823.5196198604747
aF0.0
aF0.0
aF0.0
aF0.0
aF0.0
aF0.0
aF0.0
aF0.0
aF0.0
aF0.0
aF0.0
aF0.0
aF0.0
aF0.0
aF0.0
aF0.0
aF0.0
aF1397.520328973812
aF0.0
aF0.0
aF0.0
aF0.0
aF0.0
aF0.0
aF0.0
aF0.0
aF0.0
asS'Bacteria.Cyanobacteria'
p35
(lp36
F287.15887064518444
aF0.0
aF0.0
aF519.1568892119199
aF0.0
aF0.0
aF0.0
aF0.0
aF50.77366370063848
aF0.0
aF0.0
aF1322.6794223695892
aF454.0552812304898
aF0.0
aF0.0
aF293.92641151478983
aF0.0
aF745.1470183534791
aF2545.1063400866847
aF500.8811798534458
aF188.9216353056752
aF0.0
aF4405.608982484606
aF6454.995841319206
aF0.0
aF1073.1645729436273
aF0.0
aF0.0
aF114.43631445712104
asS'Bacteria.Firmicutes'
p37
(lp38
F479093.8086496354
aF928617.908324632
aF901179.9254227979
aF941439.1028968956
aF613565.1395314132
aF853674.3282615733
aF908268.6810943242
aF370217.1664943123
aF637165.0524872749
aF944856.4229937637
aF949833.9377096961
aF856860.720044935
aF393438.9011862194
aF694486.7772299417
aF665967.8546471
aF499808.5024894677
aF611869.335025525
aF235614.6404453947
aF853971.3738534423
aF472349.5037566088
aF303357.7671981662
aF572409.7956817852
aF421563.8221756497
aF285520.55834809964
aF786808.6937809341
aF889148.4123477053
aF782215.7434402333
aF215949.78708822778
aF442816.52044248703
asS'Bacteria.Bacteroidota'
p39
(lp40
F391151.40451454767
aF34556.07511992857
aF45644.20547814973
aF1972.7961790052957
aF209819.42993583047
aF32939.46260925866
aF22090.649244589626
aF569027.9214064116
aF256870.3113694926
aF16796.812179475724
aF12920.662893550683
aF89199.3259770615
aF508314.8873375334
aF115643.20932317348
aF90496.15653389238
aF494874.10152040125
aF367634.9412310694
aF716204.8307542497
aF52162.08043543997
aF507398.81890981045
aF601904.3300838813
aF367482.97348210396
aF556515.1745623968
aF703974.2523415181
aF184463.09446955027
aF9469.099173032006
aF203790.08746355685
aF768931.1787247023
aF519308.52723931056
asS'Bacteria.Elusimicrobiota'
p41
(lp42
F0.0
aF0.0
aF0.0
aF0.0
aF0.0
aF0.0
aF0.0
aF0.0
aF0.0
aF0.0
aF0.0
aF0.0
aF0.0
aF0.0
aF0.0
aF0.0
aF0.0
aF0.0
aF0.0
aF0.0
aF0.0
aF0.0
aF0.0
aF0.0
aF0.0
aF0.0
aF0.0
aF91.93442568146392
aF190.7271907618684
asS'Archaea.Euryarchaeota'
p43
(lp44
F0.0
aF0.0
aF0.0
aF0.0
aF0.0
aF0.0
aF0.0
aF0.0
aF0.0
aF0.0
aF0.0
aF0.0
aF0.0
aF0.0
aF0.0
aF0.0
aF0.0
aF0.0
aF0.0
aF0.0
aF0.0
aF0.0
aF0.0
aF0.0
aF0.0
aF0.0
aF0.0
aF83.57675061951267
aF461.21302493324544
asS'Bacteria.Proteobacteria'
p45
(lp46
F6707.210764355379
aF11758.296635946794
aF14080.936334731217
aF22842.903125324476
aF130204.44709744814
aF36014.89155066365
aF25336.872192731727
aF31799.379524301967
aF3719.1708660717686
aF12061.540660793738
aF9811.231233266682
aF12646.989545396897
aF31556.842045519043
aF29493.500672344242
aF63591.89378057302
aF2672.0582864980897
aF5247.056817858936
aF5152.522280319227
aF41578.46991230723
aF7401.910768945367
aF9534.245195093075
aF16751.195478916095
aF5492.926800412392
aF2007.0155136874841
aF4217.774908543146
aF58392.77823369737
aF11078.71720116618
aF9899.666110881275
aF5863.994174151263
asS'Bacteria.Acidobacteriota'
p47
(lp48
F0.0
aF0.0
aF0.0
aF0.0
aF0.0
aF0.0
aF0.0
aF0.0
aF0.0
aF0.0
aF0.0
aF0.0
aF681.0829218457346
aF0.0
aF0.0
aF0.0
aF0.0
aF0.0
aF377.9860901118839
aF0.0
aF0.0
aF0.0
aF0.0
aF0.0
aF0.0
aF0.0
aF0.0
aF0.0
aF0.0
asS'Bacteria.Deferribacterota'
p49
(lp50
F0.0
aF0.0
aF0.0
aF0.0
aF0.0
aF0.0
aF0.0
aF0.0
aF0.0
aF410.98582992334224
aF0.0
aF0.0
aF0.0
aF0.0
aF0.0
aF676.921432579516
aF0.0
aF0.0
aF0.0
aF0.0
aF125.94775687045014
aF0.0
aF67.60525292815252
aF0.0
aF0.0
aF0.0
aF0.0
aF0.0
aF0.0
asS'Bacteria.Verrucomicrobiota'
p51
(lp52
F91531.89001815254
aF3488.1433392351814
aF11007.003496466563
aF0.0
aF895.3887479480674
aF21204.27322758174
aF24397.71335238873
aF10082.730093071354
aF87159.34045010853
aF5342.815789003448
aF6151.08279391331
aF1069.0148756137776
aF908.1105624609796
aF55535.6342447333
aF142208.24598183087
aF587.8528230295797
aF11763.257342564619
aF37562.183788818555
aF0.0
aF6690.783167918869
aF82596.5389556412
aF24634.110998406024
aF7915.44836367119
aF470.1117419448161
aF16698.945556272865
aF0.0
aF0.0
aF0.0
aF0.0
asS'Bacteria.Patescibacteria'
p53
(lp54
F3804.855036048694
aF5614.3218171637845
aF15369.66419132327
aF3737.9296023258235
aF15221.608715117147
aF32534.800906442215
aF551.245406288281
aF12668.045501551189
aF2805.244919460276
aF1179.3506423887213
aF3829.5997559901048
aF2409.8131941802108
aF28264.94125659799
aF851.6360376512774
aF0.0
aF507.691074434637
aF1288.0861502325183
aF1176.9935858083363
aF6350.166313879648
aF1484.0923847509507
aF1234.2880173304113
aF9853.644399362409
aF332.3924935634165
aF0.0
aF2130.4067140090383
aF15781.831955053342
aF2915.451895043732
aF0.0
aF22783.229878281374
asS'Archaea'
p55
(lp56
F0.0
aF0.0
aF0.0
aF0.0
aF0.0
aF0.0
aF0.0
aF0.0
aF0.0
aF0.0
aF0.0
aF0.0
aF0.0
aF0.0
aF0.0
aF0.0
aF0.0
aF0.0
aF0.0
aF0.0
aF0.0
aF0.0
aF0.0
aF0.0
aF0.0
aF0.0
aF0.0
aF83.57675061951267
aF461.21302493324544
assS'subclass_sl'
p57
(dp58
g20
(I0
I8
tp59
sg16
(I15
I22
tp60
sg18
(I8
I15
tp61
sg14
(I22
I29
tp62
ssS'norm'
p63
F1000000.0
sS'cls'
p64
(dp65
S'class'
p66
(S'HSD-NC'
p67
S'HSD-NC'
p68
S'HSD-NC'
p69
S'HSD-NC'
p70
S'HSD-NC'
p71
S'HSD-NC'
p72
S'HSD-NC'
p73
g9
S'HSD-NR'
p74
S'HSD-NR'
p75
S'HSD-NR'
p76
S'HSD-NR'
p77
S'HSD-NR'
p78
S'HSD-NR'
p79
g7
S'STD-NC'
p80
S'STD-NC'
p81
S'STD-NC'
p82
S'STD-NC'
p83
S'STD-NC'
p84
S'STD-NC'
p85
g5
S'STD-NR'
p86
S'STD-NR'
p87
S'STD-NR'
p88
S'STD-NR'
p89
S'STD-NR'
p90
S'STD-NR'
p91
g3
tp92
sS'subclass'
p93
(lp94
S'HSD-NC_subcl'
p95
aS'HSD-NC_subcl'
p96
aS'HSD-NC_subcl'
p97
aS'HSD-NC_subcl'
p98
aS'HSD-NC_subcl'
p99
aS'HSD-NC_subcl'
p100
aS'HSD-NC_subcl'
p101
ag20
aS'HSD-NR_subcl'
p102
aS'HSD-NR_subcl'
p103
aS'HSD-NR_subcl'
p104
aS'HSD-NR_subcl'
p105
aS'HSD-NR_subcl'
p106
aS'HSD-NR_subcl'
p107
ag18
aS'STD-NC_subcl'
p108
aS'STD-NC_subcl'
p109
aS'STD-NC_subcl'
p110
aS'STD-NC_subcl'
p111
aS'STD-NC_subcl'
p112
aS'STD-NC_subcl'
p113
ag16
aS'STD-NR_subcl'
p114
aS'STD-NR_subcl'
p115
aS'STD-NR_subcl'
p116
aS'STD-NR_subcl'
p117
aS'STD-NR_subcl'
p118
aS'STD-NR_subcl'
p119
ag14
asS'subject'
p120
(S'S210421121688'
p121
S'S210421121689'
p122
S'S210421121690'
p123
S'S210421121698'
p124
S'S210421121699'
p125
S'S210421121700'
p126
S'S210421121701'
p127
S'S210421121702'
p128
S'S210421121691'
p129
S'S210421121692'
p130
S'S210421121693'
p131
S'S210421121707'
p132
S'S210421121708'
p133
S'S210421121709'
p134
S'S210421121710'
p135
S'S210421121682'
p136
S'S210421121683'
p137
S'S210421121684'
p138
S'S210421121694'
p139
S'S210421121695'
p140
S'S210421121696'
p141
S'S210421121697'
p142
S'S210421121685'
p143
S'S210421121686'
p144
S'S210421121687'
p145
S'S210421121703'
p146
S'S210421121704'
p147
S'S210421121705'
p148
S'S210421121706'
p149
tp150
ss.